	.file	"arc.c"
	.text
.Ltext0:
.globl __cyg_profile_func_enter
	.section	.rodata
	.align 8
.LC0:
	.string	"Error: clock_gettime(CLOCK_MONOTONIC) failed\n"
	.align 8
.LC1:
	.string	"Make sure you are are running kernel 2.6.x and have glibc 2.3.3 or newer installed\n"
.LC2:
	.string	"Aborting...\n"
.globl __cyg_profile_func_exit
	.text
	.align 32
	.type	gethrtime, @function
gethrtime:
.LFB0:
	.file 1 "../../lib/libsolkerncompat/include/sys/time_aux.h"
	.loc 1 48 0
	.cfi_startproc
	pushq	%rbp
.LCFI0:
	.cfi_def_cfa_offset 16
	movq	%rsp, %rbp
	.cfi_offset 6, -16
.LCFI1:
	.cfi_def_cfa_register 6
	pushq	%rbx
	naclsspq	$24, %r15
	.loc 1 48 0
	movq	8(%rbp), %rsi
	movl	$gethrtime, %edi
	.cfi_offset 3, -24
	call	__cyg_profile_func_enter
	.loc 1 51 0
	leal	-32(%rbp), %eax
	movl	%eax, %esi
	movl	$1, %edi
	call	clock_gettime
	testl	%eax, %eax
	je	.L2
	.loc 1 52 0
	mov	stderr(%rip), %eax
	movq	%rax, %rdx
	movl	$.LC0, %eax
	mov	%eax, %eax
	movl	%edx, %ecx
	movl	$45, %edx
	movl	$1, %esi
	movl	%eax, %edi
	call	fwrite
	.loc 1 53 0
	mov	stderr(%rip), %eax
	movq	%rax, %rdx
	movl	$.LC1, %eax
	mov	%eax, %eax
	movl	%edx, %ecx
	movl	$83, %edx
	movl	$1, %esi
	movl	%eax, %edi
	call	fwrite
	.loc 1 54 0
	mov	stderr(%rip), %eax
	movq	%rax, %rdx
	movl	$.LC2, %eax
	mov	%eax, %eax
	movl	%edx, %ecx
	movl	$12, %edx
	movl	$1, %esi
	movl	%eax, %edi
	call	fwrite
	.loc 1 55 0
	call	abort
	.align 32
.L2:
	.loc 1 58 0
	movq	-32(%rbp), %rax
	imulq	$1000000000, %rax, %rdx
	movl	-24(%rbp), %eax
	cltq
	leaq	(%rdx,%rax), %rax
	movq	%rax, %rbx
	movq	8(%rbp), %rsi
	movl	$gethrtime, %edi
	call	__cyg_profile_func_exit
	movq	%rbx, %rax
	.loc 1 59 0
	naclaspq	$24, %r15
	popq	%rbx
	popq	%r11
	naclrestbp	%r11d, %r15
	popq	%r11
	nacljmp	%r11d,%r15
	.cfi_endproc
.LFE0:
	.size	gethrtime, .-gethrtime
	.local	arc_reclaim_thr_lock
	.comm	arc_reclaim_thr_lock,44,32
	.local	arc_reclaim_thr_cv
	.comm	arc_reclaim_thr_cv,48,32
	.local	arc_thread_exit
	.comm	arc_thread_exit,1,1
.globl arc_reduce_dnlc_percent
	.data
	.align 4
	.type	arc_reduce_dnlc_percent, @object
	.size	arc_reduce_dnlc_percent, 4
arc_reduce_dnlc_percent:
	.long	3
	.align 4
	.type	arc_grow_retry, @object
	.size	arc_grow_retry, 4
arc_grow_retry:
	.long	60
	.local	arc_min_prefetch_lifespan
	.comm	arc_min_prefetch_lifespan,4,4
	.local	arc_dead
	.comm	arc_dead,4,4
	.local	arc_warm
	.comm	arc_warm,4,4
	.comm	zfs_arc_max,8,8
	.comm	zfs_arc_min,8,8
.globl zfs_arc_meta_limit
	.bss
	.align 8
	.type	zfs_arc_meta_limit, @object
	.size	zfs_arc_meta_limit, 8
zfs_arc_meta_limit:
	.zero	8
.globl zfs_mdcomp_disable
	.align 4
	.type	zfs_mdcomp_disable, @object
	.size	zfs_mdcomp_disable, 4
zfs_mdcomp_disable:
	.zero	4
	.local	ARC_anon
	.comm	ARC_anon,104,32
	.local	ARC_mru
	.comm	ARC_mru,104,32
	.local	ARC_mru_ghost
	.comm	ARC_mru_ghost,104,32
	.local	ARC_mfu
	.comm	ARC_mfu,104,32
	.local	ARC_mfu_ghost
	.comm	ARC_mfu_ghost,104,32
	.local	ARC_l2c_only
	.comm	ARC_l2c_only,104,32
	.data
	.align 32
	.type	arc_stats, @object
	.size	arc_stats, 2208
arc_stats:
	.string	"hits"
	.zero	26
	.byte	4
	.zero	16
	.string	"misses"
	.zero	24
	.byte	4
	.zero	16
	.string	"demand_data_hits"
	.zero	14
	.byte	4
	.zero	16
	.string	"demand_data_misses"
	.zero	12
	.byte	4
	.zero	16
	.string	"demand_metadata_hits"
	.zero	10
	.byte	4
	.zero	16
	.string	"demand_metadata_misses"
	.zero	8
	.byte	4
	.zero	16
	.string	"prefetch_data_hits"
	.zero	12
	.byte	4
	.zero	16
	.string	"prefetch_data_misses"
	.zero	10
	.byte	4
	.zero	16
	.string	"prefetch_metadata_hits"
	.zero	8
	.byte	4
	.zero	16
	.string	"prefetch_metadata_misses"
	.zero	6
	.byte	4
	.zero	16
	.string	"mru_hits"
	.zero	22
	.byte	4
	.zero	16
	.string	"mru_ghost_hits"
	.zero	16
	.byte	4
	.zero	16
	.string	"mfu_hits"
	.zero	22
	.byte	4
	.zero	16
	.string	"mfu_ghost_hits"
	.zero	16
	.byte	4
	.zero	16
	.string	"deleted"
	.zero	23
	.byte	4
	.zero	16
	.string	"recycle_miss"
	.zero	18
	.byte	4
	.zero	16
	.string	"mutex_miss"
	.zero	20
	.byte	4
	.zero	16
	.string	"evict_skip"
	.zero	20
	.byte	4
	.zero	16
	.string	"hash_elements"
	.zero	17
	.byte	4
	.zero	16
	.string	"hash_elements_max"
	.zero	13
	.byte	4
	.zero	16
	.string	"hash_collisions"
	.zero	15
	.byte	4
	.zero	16
	.string	"hash_chains"
	.zero	19
	.byte	4
	.zero	16
	.string	"hash_chain_max"
	.zero	16
	.byte	4
	.zero	16
	.string	"p"
	.zero	29
	.byte	4
	.zero	16
	.string	"c"
	.zero	29
	.byte	4
	.zero	16
	.string	"c_min"
	.zero	25
	.byte	4
	.zero	16
	.string	"c_max"
	.zero	25
	.byte	4
	.zero	16
	.string	"size"
	.zero	26
	.byte	4
	.zero	16
	.string	"hdr_size"
	.zero	22
	.byte	4
	.zero	16
	.string	"l2_hits"
	.zero	23
	.byte	4
	.zero	16
	.string	"l2_misses"
	.zero	21
	.byte	4
	.zero	16
	.string	"l2_feeds"
	.zero	22
	.byte	4
	.zero	16
	.string	"l2_rw_clash"
	.zero	19
	.byte	4
	.zero	16
	.string	"l2_writes_sent"
	.zero	16
	.byte	4
	.zero	16
	.string	"l2_writes_done"
	.zero	16
	.byte	4
	.zero	16
	.string	"l2_writes_error"
	.zero	15
	.byte	4
	.zero	16
	.string	"l2_writes_hdr_miss"
	.zero	12
	.byte	4
	.zero	16
	.string	"l2_evict_lock_retry"
	.zero	11
	.byte	4
	.zero	16
	.string	"l2_evict_reading"
	.zero	14
	.byte	4
	.zero	16
	.string	"l2_free_on_write"
	.zero	14
	.byte	4
	.zero	16
	.string	"l2_abort_lowmem"
	.zero	15
	.byte	4
	.zero	16
	.string	"l2_cksum_bad"
	.zero	18
	.byte	4
	.zero	16
	.string	"l2_io_error"
	.zero	19
	.byte	4
	.zero	16
	.string	"l2_size"
	.zero	23
	.byte	4
	.zero	16
	.string	"l2_hdr_size"
	.zero	19
	.byte	4
	.zero	16
	.string	"memory_throttle_count"
	.zero	9
	.byte	4
	.zero	16
	.comm	arc_ksp,4,4
	.local	arc_anon
	.comm	arc_anon,4,4
	.local	arc_mru
	.comm	arc_mru,4,4
	.local	arc_mru_ghost
	.comm	arc_mru_ghost,4,4
	.local	arc_mfu
	.comm	arc_mfu,4,4
	.local	arc_mfu_ghost
	.comm	arc_mfu_ghost,4,4
	.local	arc_l2c_only
	.comm	arc_l2c_only,4,4
	.local	arc_no_grow
	.comm	arc_no_grow,4,4
	.local	arc_tempreserve
	.comm	arc_tempreserve,8,8
	.local	arc_meta_used
	.comm	arc_meta_used,8,8
	.local	arc_meta_limit
	.comm	arc_meta_limit,8,8
	.local	arc_meta_max
	.comm	arc_meta_max,8,8
	.local	arc_eviction_list
	.comm	arc_eviction_list,4,4
	.local	arc_eviction_mtx
	.comm	arc_eviction_mtx,44,32
	.local	arc_eviction_hdr
	.comm	arc_eviction_hdr,408,32
	.local	buf_hash_table
	.comm	buf_hash_table,16400,32
	.comm	zfs_crc64_table,2048,32
.globl l2arc_write_max
	.align 8
	.type	l2arc_write_max, @object
	.size	l2arc_write_max, 8
l2arc_write_max:
	.quad	8388608
.globl l2arc_write_boost
	.align 8
	.type	l2arc_write_boost, @object
	.size	l2arc_write_boost, 8
l2arc_write_boost:
	.quad	8388608
.globl l2arc_headroom
	.align 8
	.type	l2arc_headroom, @object
	.size	l2arc_headroom, 8
l2arc_headroom:
	.quad	4
.globl l2arc_feed_secs
	.align 8
	.type	l2arc_feed_secs, @object
	.size	l2arc_feed_secs, 8
l2arc_feed_secs:
	.quad	1
.globl l2arc_noprefetch
	.align 4
	.type	l2arc_noprefetch, @object
	.size	l2arc_noprefetch, 4
l2arc_noprefetch:
	.long	1
	.local	L2ARC_dev_list
	.comm	L2ARC_dev_list,16,16
	.local	l2arc_dev_list
	.comm	l2arc_dev_list,4,4
	.local	l2arc_dev_mtx
	.comm	l2arc_dev_mtx,44,32
	.local	l2arc_dev_last
	.comm	l2arc_dev_last,4,4
	.local	l2arc_buflist_mtx
	.comm	l2arc_buflist_mtx,44,32
	.local	L2ARC_free_on_write
	.comm	L2ARC_free_on_write,16,16
	.local	l2arc_free_on_write
	.comm	l2arc_free_on_write,4,4
	.local	l2arc_free_on_write_mtx
	.comm	l2arc_free_on_write_mtx,44,32
	.local	l2arc_ndev
	.comm	l2arc_ndev,8,8
	.local	l2arc_feed_thr_lock
	.comm	l2arc_feed_thr_lock,44,32
	.local	l2arc_feed_thr_cv
	.comm	l2arc_feed_thr_cv,48,32
	.local	l2arc_thread_exit
	.comm	l2arc_thread_exit,1,1
	.section	.rodata
	.align 8
.LC3:
	.string	"/home/yarik/git/zfs-fuse-0.5.0/src/lib/libzpool/arc.c"
	.align 8
.LC4:
	.string	"zfs_crc64_table[128] == 0xC96C5795D7870F42ULL"
	.text
	.align 32
	.type	buf_hash, @function
buf_hash:
.LFB4:
	.file 2 "/home/yarik/git/zfs-fuse-0.5.0/src/lib/libzpool/arc.c"
	.loc 2 621 0
	.cfi_startproc
	pushq	%rbp
.LCFI2:
	.cfi_def_cfa_offset 16
	movq	%rsp, %rbp
	.cfi_offset 6, -16
.LCFI3:
	.cfi_def_cfa_register 6
	pushq	%rbx
	naclsspq	$56, %r15
	movl	%edi, -52(%rbp)
	movl	%esi, -56(%rbp)
	movq	%rdx, -64(%rbp)
	.loc 2 621 0
	movq	8(%rbp), %rsi
	movl	$buf_hash, %edi
	.cfi_offset 3, -24
	call	__cyg_profile_func_enter
	.loc 2 622 0
	movl	-52(%rbp), %eax
	movl	%eax, -40(%rbp)
	.loc 2 623 0
	movl	-56(%rbp), %eax
	movl	%eax, -36(%rbp)
	.loc 2 624 0
	movq	$-1, -32(%rbp)
	.loc 2 627 0
	movq	zfs_crc64_table+1024(%rip), %rdx
	movabsq	$-3932672073523589310, %rax
	cmpq	%rax, %rdx
	je	.L5
	movl	$__PRETTY_FUNCTION__.9574, %ecx
	movl	$627, %edx
	movl	$.LC3, %esi
	movl	$.LC4, %edi
	call	__assert_fail
	.align 32
.L5:
	.loc 2 629 0
	movl	$0, -20(%rbp)
	jmp	.L6
	.align 32
.L7:
	.loc 2 630 0
	movq	-32(%rbp), %rax
	movq	%rax, %rdx
	shrq	$8, %rdx
	movl	-20(%rbp), %eax
	addl	-36(%rbp), %eax
	mov	%eax, %eax
	movzbl	%nacl:(%r15,%rax), %eax
	movzbl	%al, %eax
	xorq	-32(%rbp), %rax
	andl	$255, %eax
	sall	$3, %eax
	cltq
	movq	%nacl:zfs_crc64_table(%r15,%rax), %rax
	xorq	%rdx, %rax
	movq	%rax, -32(%rbp)
	.loc 2 629 0
	addl	$1, -20(%rbp)
	.align 32
.L6:
	movl	-20(%rbp), %eax
	cmpl	$15, %eax
	jbe	.L7
	.loc 2 632 0
	movl	-40(%rbp), %eax
	shrl	$8, %eax
	mov	%eax, %eax
	xorq	-64(%rbp), %rax
	xorq	%rax, -32(%rbp)
	.loc 2 634 0
	movq	-32(%rbp), %rbx
	movq	8(%rbp), %rsi
	movl	$buf_hash, %edi
	call	__cyg_profile_func_exit
	movq	%rbx, %rax
	.loc 2 635 0
	naclaspq	$56, %r15
	popq	%rbx
	popq	%r11
	naclrestbp	%r11d, %r15
	popq	%r11
	nacljmp	%r11d,%r15
	.cfi_endproc
.LFE4:
	.size	buf_hash, .-buf_hash
	.align 32
	.type	buf_hash_find, @function
buf_hash_find:
.LFB5:
	.loc 2 649 0
	.cfi_startproc
	pushq	%rbp
.LCFI4:
	.cfi_def_cfa_offset 16
	movq	%rsp, %rbp
	.cfi_offset 6, -16
.LCFI5:
	.cfi_def_cfa_register 6
	pushq	%rbx
	naclsspq	$56, %r15
	movl	%edi, -36(%rbp)
	movl	%esi, -40(%rbp)
	movq	%rdx, -48(%rbp)
	movl	%ecx, -52(%rbp)
	.loc 2 649 0
	movq	8(%rbp), %rsi
	movl	$buf_hash_find, %edi
	.cfi_offset 3, -24
	call	__cyg_profile_func_enter
	.loc 2 650 0
	movq	-48(%rbp), %rdx
	movl	-40(%rbp), %ecx
	movl	-36(%rbp), %eax
	movl	%ecx, %esi
	movl	%eax, %edi
	call	buf_hash
	movq	buf_hash_table(%rip), %rdx
	andq	%rdx, %rax
	movq	%rax, -32(%rbp)
	.loc 2 651 0
	movq	-32(%rbp), %rax
	andl	$255, %eax
	sall	$6, %eax
	addl	$buf_hash_table, %eax
	addl	$12, %eax
	movl	%eax, -24(%rbp)
	.loc 2 654 0
	movl	-24(%rbp), %eax
	movl	%eax, %edi
	call	mutex_enter
	.loc 2 655 0
	mov	buf_hash_table+8(%rip), %eax
	movq	-32(%rbp), %rdx
	sall	$2, %edx
	leal	(%rdx,%rax), %eax
	mov	%eax, %eax
	movl	%nacl:(%r15,%rax), %eax
	movl	%eax, -20(%rbp)
	jmp	.L10
	.align 32
.L13:
	.loc 2 657 0
	mov	-20(%rbp), %eax
	movq	%nacl:(%r15,%rax), %rdx
	mov	-40(%rbp), %eax
	movq	%nacl:(%r15,%rax), %rax
	cmpq	%rax, %rdx
	jne	.L11
	mov	-20(%rbp), %eax
	movq	%nacl:8(%r15,%rax), %rdx
	mov	-40(%rbp), %eax
	movq	%nacl:8(%r15,%rax), %rax
	cmpq	%rax, %rdx
	jne	.L11
	mov	-20(%rbp), %eax
	movq	%nacl:16(%r15,%rax), %rax
	cmpq	-48(%rbp), %rax
	jne	.L11
	mov	-20(%rbp), %eax
	mov	%nacl:168(%r15,%rax), %eax
	cmpl	%eax, -36(%rbp)
	jne	.L11
	.loc 2 658 0
	mov	-52(%rbp), %eax
	movl	-24(%rbp), %edx
	movl	%edx, %nacl:(%r15,%rax)
	.loc 2 659 0
	mov	-20(%rbp), %ebx
	jmp	.L12
	.align 32
.L11:
	.loc 2 656 0
	mov	-20(%rbp), %eax
	movl	%nacl:80(%r15,%rax), %eax
	movl	%eax, -20(%rbp)
	.align 32
.L10:
	.loc 2 655 0
	cmpl	$0, -20(%rbp)
	jne	.L13
	.loc 2 662 0
	movl	-24(%rbp), %eax
	movl	%eax, %edi
	call	mutex_exit
	.loc 2 663 0
	mov	-52(%rbp), %eax
	movl	$0, %nacl:(%r15,%rax)
	.loc 2 664 0
	movl	$0, %ebx
	.align 32
.L12:
	movq	8(%rbp), %rsi
	movl	$buf_hash_find, %edi
	call	__cyg_profile_func_exit
	movl	%ebx, %eax
	.loc 2 665 0
	naclaspq	$56, %r15
	popq	%rbx
	popq	%r11
	naclrestbp	%r11d, %r15
	popq	%r11
	nacljmp	%r11d,%r15
	.cfi_endproc
.LFE5:
	.size	buf_hash_find, .-buf_hash_find
	.section	.rodata
.LC5:
	.string	"!((buf)->b_flags & (1 << 9))"
	.text
	.align 32
	.type	buf_hash_insert, @function
buf_hash_insert:
.LFB6:
	.loc 2 675 0
	.cfi_startproc
	pushq	%rbp
.LCFI6:
	.cfi_def_cfa_offset 16
	movq	%rsp, %rbp
	.cfi_offset 6, -16
.LCFI7:
	.cfi_def_cfa_register 6
	pushq	%rbx
	naclsspq	$72, %r15
	movl	%edi, -68(%rbp)
	movl	%esi, -72(%rbp)
	.loc 2 675 0
	movq	8(%rbp), %rsi
	movl	$buf_hash_insert, %edi
	.cfi_offset 3, -24
	call	__cyg_profile_func_enter
	.loc 2 676 0
	mov	-68(%rbp), %eax
	movq	%nacl:16(%r15,%rax), %rax
	mov	-68(%rbp), %ebx
	mov	-68(%rbp), %edx
	mov	%nacl:168(%r15,%rdx), %ecx
	movq	%rax, %rdx
	movl	%ebx, %esi
	movl	%ecx, %edi
	call	buf_hash
	movq	buf_hash_table(%rip), %rdx
	andq	%rdx, %rax
	movq	%rax, -56(%rbp)
	.loc 2 677 0
	movq	-56(%rbp), %rax
	andl	$255, %eax
	sall	$6, %eax
	addl	$buf_hash_table, %eax
	addl	$12, %eax
	movl	%eax, -44(%rbp)
	.loc 2 681 0
	mov	-68(%rbp), %eax
	movl	%nacl:88(%r15,%rax), %eax
	andl	$512, %eax
	testl	%eax, %eax
	je	.L16
	movl	$__PRETTY_FUNCTION__.9636, %ecx
	movl	$681, %edx
	movl	$.LC3, %esi
	movl	$.LC5, %edi
	call	__assert_fail
	.align 32
.L16:
	.loc 2 682 0
	mov	-72(%rbp), %eax
	movl	-44(%rbp), %edx
	movl	%edx, %nacl:(%r15,%rax)
	.loc 2 683 0
	movl	-44(%rbp), %eax
	movl	%eax, %edi
	call	mutex_enter
	.loc 2 684 0
	mov	buf_hash_table+8(%rip), %eax
	movq	-56(%rbp), %rdx
	sall	$2, %edx
	leal	(%rdx,%rax), %eax
	mov	%eax, %eax
	movl	%nacl:(%r15,%rax), %eax
	movl	%eax, -40(%rbp)
	movl	$0, -36(%rbp)
	jmp	.L17
	.align 32
.L20:
	.loc 2 686 0
	mov	-40(%rbp), %eax
	movq	%nacl:(%r15,%rax), %rdx
	mov	-68(%rbp), %eax
	movq	%nacl:(%r15,%rax), %rax
	cmpq	%rax, %rdx
	jne	.L18
	mov	-40(%rbp), %eax
	movq	%nacl:8(%r15,%rax), %rdx
	mov	-68(%rbp), %eax
	movq	%nacl:8(%r15,%rax), %rax
	cmpq	%rax, %rdx
	jne	.L18
	mov	-40(%rbp), %eax
	movq	%nacl:16(%r15,%rax), %rdx
	mov	-68(%rbp), %eax
	movq	%nacl:16(%r15,%rax), %rax
	cmpq	%rax, %rdx
	jne	.L18
	mov	-40(%rbp), %eax
	mov	%nacl:168(%r15,%rax), %edx
	mov	-68(%rbp), %eax
	mov	%nacl:168(%r15,%rax), %eax
	cmpl	%eax, %edx
	jne	.L18
	.loc 2 687 0
	mov	-40(%rbp), %ebx
	jmp	.L19
	.align 32
.L18:
	.loc 2 685 0
	mov	-40(%rbp), %eax
	movl	%nacl:80(%r15,%rax), %eax
	movl	%eax, -40(%rbp)
	addl	$1, -36(%rbp)
	.align 32
.L17:
	.loc 2 684 0
	cmpl	$0, -40(%rbp)
	jne	.L20
	.loc 2 690 0
	mov	buf_hash_table+8(%rip), %eax
	movq	-56(%rbp), %rdx
	sall	$2, %edx
	leal	(%rdx,%rax), %eax
	mov	%eax, %eax
	mov	%nacl:(%r15,%rax), %edx
	mov	-68(%rbp), %eax
	movl	%edx, %nacl:80(%r15,%rax)
	.loc 2 691 0
	mov	buf_hash_table+8(%rip), %eax
	movq	-56(%rbp), %rdx
	sall	$2, %edx
	leal	(%rdx,%rax), %eax
	mov	%eax, %eax
	movl	-68(%rbp), %edx
	movl	%edx, %nacl:(%r15,%rax)
	.loc 2 692 0
	mov	-68(%rbp), %eax
	movl	%nacl:88(%r15,%rax), %eax
	movl	%eax, %edx
	orb	$2, %dh
	mov	-68(%rbp), %eax
	movl	%edx, %nacl:88(%r15,%rax)
	.loc 2 695 0
	cmpl	$0, -36(%rbp)
	je	.L21
	.loc 2 696 0
	movl	$arc_stats+992, %eax
	mov	%eax, %eax
	movl	$1, %esi
	movl	%eax, %edi
	call	atomic_add_64
	.loc 2 697 0
	cmpl	$1, -36(%rbp)
	jne	.L29
	.loc 2 698 0
	movl	$arc_stats+1040, %eax
	mov	%eax, %eax
	movl	$1, %esi
	movl	%eax, %edi
	call	atomic_add_64
.LBB2:
	.loc 2 700 0
	jmp	.L23
	.align 32
.L29:
	nop
	.align 32
.L23:
	mov	-36(%rbp), %eax
	movq	arc_stats+1088(%rip), %rdx
	movq	%rdx, -32(%rbp)
	cmpq	-32(%rbp), %rax
	jbe	.L21
	mov	-36(%rbp), %edx
	movl	$arc_stats+1088, %eax
	mov	%eax, %ecx
	movq	-32(%rbp), %rax
	movq	%rax, %rsi
	movl	%ecx, %edi
	call	atomic_cas_64
	cmpq	-32(%rbp), %rax
	jne	.L23
	.align 32
.L21:
.LBE2:
	.loc 2 703 0
	movl	$arc_stats+896, %eax
	mov	%eax, %eax
	movl	$1, %esi
	movl	%eax, %edi
	call	atomic_add_64
.LBB3:
	.loc 2 704 0
	nop
	.align 32
.L25:
	movq	arc_stats+896(%rip), %rax
	movq	arc_stats+944(%rip), %rdx
	movq	%rdx, -24(%rbp)
	cmpq	-24(%rbp), %rax
	jbe	.L26
	movq	arc_stats+896(%rip), %rdx
	movl	$arc_stats+944, %eax
	mov	%eax, %ecx
	movq	-24(%rbp), %rax
	movq	%rax, %rsi
	movl	%ecx, %edi
	call	atomic_cas_64
	cmpq	-24(%rbp), %rax
	jne	.L25
	.align 32
.L26:
.LBE3:
	.loc 2 706 0
	movl	$0, %ebx
	.align 32
.L19:
	movq	8(%rbp), %rsi
	movl	$buf_hash_insert, %edi
	call	__cyg_profile_func_exit
	movl	%ebx, %eax
	.loc 2 707 0
	naclaspq	$72, %r15
	popq	%rbx
	popq	%r11
	naclrestbp	%r11d, %r15
	popq	%r11
	nacljmp	%r11d,%r15
	.cfi_endproc
.LFE6:
	.size	buf_hash_insert, .-buf_hash_insert
	.section	.rodata
	.align 8
.LC6:
	.string	"(((&((buf_hash_table.ht_locks[idx & (256-1)]).ht_lock)))->m_owner == ((void *)(uintptr_t)pthread_self()))"
.LC7:
	.string	"((buf)->b_flags & (1 << 9))"
.LC8:
	.string	"fbuf != ((void *)0)"
	.text
	.align 32
	.type	buf_hash_remove, @function
buf_hash_remove:
.LFB7:
	.loc 2 711 0
	.cfi_startproc
	pushq	%rbp
.LCFI8:
	.cfi_def_cfa_offset 16
	movq	%rsp, %rbp
	.cfi_offset 6, -16
.LCFI9:
	.cfi_def_cfa_register 6
	pushq	%rbx
	naclsspq	$40, %r15
	movl	%edi, -36(%rbp)
	.loc 2 711 0
	movq	8(%rbp), %rsi
	movl	$buf_hash_remove, %edi
	.cfi_offset 3, -24
	call	__cyg_profile_func_enter
	.loc 2 713 0
	mov	-36(%rbp), %eax
	movq	%nacl:16(%r15,%rax), %rax
	mov	-36(%rbp), %ebx
	mov	-36(%rbp), %edx
	mov	%nacl:168(%r15,%rdx), %ecx
	movq	%rax, %rdx
	movl	%ebx, %esi
	movl	%ecx, %edi
	call	buf_hash
	movq	buf_hash_table(%rip), %rdx
	andq	%rdx, %rax
	movq	%rax, -24(%rbp)
	.loc 2 715 0
	movq	-24(%rbp), %rax
	andl	$255, %eax
	sall	$6, %eax
	movslq	%eax,%rdx
	movl	$buf_hash_table+12, %eax
	leaq	(%rdx,%rax), %rax
	mov	%nacl:(%r15,%rax), %ebx
	call	pthread_self
	mov	%eax, %eax
	cmpl	%eax, %ebx
	je	.L31
	movl	$__PRETTY_FUNCTION__.9713, %ecx
	movl	$715, %edx
	movl	$.LC3, %esi
	movl	$.LC6, %edi
	call	__assert_fail
	.align 32
.L31:
	.loc 2 716 0
	mov	-36(%rbp), %eax
	movl	%nacl:88(%r15,%rax), %eax
	andl	$512, %eax
	testl	%eax, %eax
	jne	.L32
	movl	$__PRETTY_FUNCTION__.9713, %ecx
	movl	$716, %edx
	movl	$.LC3, %esi
	movl	$.LC7, %edi
	call	__assert_fail
	.align 32
.L32:
	.loc 2 718 0
	mov	buf_hash_table+8(%rip), %eax
	movq	-24(%rbp), %rdx
	sall	$2, %edx
	leal	(%rdx,%rax), %eax
	movl	%eax, -28(%rbp)
	.loc 2 719 0
	jmp	.L33
	.align 32
.L35:
	.loc 2 720 0
	cmpl	$0, -32(%rbp)
	jne	.L34
	movl	$__PRETTY_FUNCTION__.9713, %ecx
	movl	$720, %edx
	movl	$.LC3, %esi
	movl	$.LC8, %edi
	call	__assert_fail
	.align 32
.L34:
	.loc 2 721 0
	movl	-32(%rbp), %eax
	addl	$80, %eax
	movl	%eax, -28(%rbp)
	.align 32
.L33:
	.loc 2 719 0
	mov	-28(%rbp), %eax
	movl	%nacl:(%r15,%rax), %eax
	movl	%eax, -32(%rbp)
	movl	-32(%rbp), %eax
	cmpl	-36(%rbp), %eax
	jne	.L35
	.loc 2 723 0
	mov	-36(%rbp), %eax
	mov	%nacl:80(%r15,%rax), %edx
	mov	-28(%rbp), %eax
	movl	%edx, %nacl:(%r15,%rax)
	.loc 2 724 0
	mov	-36(%rbp), %eax
	movl	$0, %nacl:80(%r15,%rax)
	.loc 2 725 0
	mov	-36(%rbp), %eax
	movl	%nacl:88(%r15,%rax), %eax
	movl	%eax, %edx
	andb	$253, %dh
	mov	-36(%rbp), %eax
	movl	%edx, %nacl:88(%r15,%rax)
	.loc 2 728 0
	movl	$arc_stats+896, %eax
	mov	%eax, %eax
	movq	$-1, %rsi
	movl	%eax, %edi
	call	atomic_add_64
	.loc 2 730 0
	mov	buf_hash_table+8(%rip), %eax
	movq	-24(%rbp), %rdx
	sall	$2, %edx
	leal	(%rdx,%rax), %eax
	mov	%eax, %eax
	mov	%nacl:(%r15,%rax), %eax
	testq	%rax, %rax
	je	.L36
	.loc 2 731 0
	mov	buf_hash_table+8(%rip), %eax
	movq	-24(%rbp), %rdx
	sall	$2, %edx
	leal	(%rdx,%rax), %eax
	mov	%eax, %eax
	mov	%nacl:(%r15,%rax), %eax
	mov	%nacl:80(%r15,%rax), %eax
	.loc 2 730 0
	testq	%rax, %rax
	jne	.L36
	.loc 2 732 0
	movl	$arc_stats+1040, %eax
	mov	%eax, %eax
	movq	$-1, %rsi
	movl	%eax, %edi
	call	atomic_add_64
	.align 32
.L36:
	movq	8(%rbp), %rsi
	movl	$buf_hash_remove, %edi
	call	__cyg_profile_func_exit
	.loc 2 733 0
	naclaspq	$40, %r15
	popq	%rbx
	popq	%r11
	naclrestbp	%r11d, %r15
	popq	%r11
	nacljmp	%r11d,%r15
	.cfi_endproc
.LFE7:
	.size	buf_hash_remove, .-buf_hash_remove
	.local	hdr_cache
	.comm	hdr_cache,4,4
	.local	buf_cache
	.comm	buf_cache,4,4
	.align 32
	.type	buf_fini, @function
buf_fini:
.LFB8:
	.loc 2 743 0
	.cfi_startproc
	pushq	%rbp
.LCFI10:
	.cfi_def_cfa_offset 16
	movq	%rsp, %rbp
	.cfi_offset 6, -16
.LCFI11:
	.cfi_def_cfa_register 6
	naclsspq	$16, %r15
	.loc 2 743 0
	movq	8(%rbp), %rsi
	movl	$buf_fini, %edi
	call	__cyg_profile_func_enter
	.loc 2 746 0
	movq	buf_hash_table(%rip), %rax
	addq	$1, %rax
	leal	0(,%rax,4), %edx
	mov	buf_hash_table+8(%rip), %eax
	movl	%edx, %esi
	movl	%eax, %edi
	call	umem_free
	.loc 2 748 0
	movl	$0, -4(%rbp)
	jmp	.L39
	.align 32
.L40:
	.loc 2 749 0
	movl	-4(%rbp), %eax
	sall	$6, %eax
	addl	$buf_hash_table, %eax
	addl	$12, %eax
	mov	%eax, %eax
	movl	%eax, %edi
	call	zmutex_destroy
	.loc 2 748 0
	addl	$1, -4(%rbp)
	.align 32
.L39:
	cmpl	$255, -4(%rbp)
	jle	.L40
	.loc 2 750 0
	mov	hdr_cache(%rip), %eax
	movl	%eax, %edi
	call	umem_cache_destroy
	.loc 2 751 0
	mov	buf_cache(%rip), %eax
	movl	%eax, %edi
	call	umem_cache_destroy
	movq	8(%rbp), %rsi
	movl	$buf_fini, %edi
	call	__cyg_profile_func_exit
	.loc 2 752 0
	movq	%rbp, %rsp
	popq	%r11
	naclrestbp	%r11d, %r15
	popq	%r11
	nacljmp	%r11d,%r15
	.cfi_endproc
.LFE8:
	.size	buf_fini, .-buf_fini
	.align 32
	.type	hdr_cons, @function
hdr_cons:
.LFB9:
	.loc 2 761 0
	.cfi_startproc
	pushq	%rbp
.LCFI12:
	.cfi_def_cfa_offset 16
	movq	%rsp, %rbp
	.cfi_offset 6, -16
.LCFI13:
	.cfi_def_cfa_register 6
	pushq	%rbx
	naclsspq	$40, %r15
	movl	%edi, -36(%rbp)
	movl	%esi, -40(%rbp)
	movl	%edx, -44(%rbp)
	.loc 2 761 0
	movq	8(%rbp), %rsi
	movl	$hdr_cons, %edi
	.cfi_offset 3, -24
	call	__cyg_profile_func_enter
	.loc 2 762 0
	movl	-36(%rbp), %eax
	movl	%eax, -20(%rbp)
	.loc 2 764 0
	movl	-20(%rbp), %eax
	movl	$408, %esi
	movl	%eax, %edi
	call	bzero
	.loc 2 765 0
	movl	-20(%rbp), %eax
	addl	$192, %eax
	mov	%eax, %eax
	movl	%eax, %edi
	call	refcount_create
	.loc 2 766 0
	movl	-20(%rbp), %eax
	addl	$104, %eax
	mov	%eax, %eax
	movl	$0, %ecx
	movl	$0, %edx
	movl	$0, %esi
	movl	%eax, %edi
	call	cv_init
	.loc 2 767 0
	movl	-20(%rbp), %eax
	addl	$32, %eax
	mov	%eax, %eax
	movl	%eax, %edi
	call	zmutex_init
	.loc 2 768 0
	movl	-20(%rbp), %eax
	addl	$300, %eax
	mov	%eax, %eax
	movl	$0, %ecx
	movl	$0, %edx
	movl	$0, %esi
	movl	%eax, %edi
	call	rw_init
	.loc 2 770 0
	movl	$arc_stats+1376, %eax
	mov	%eax, %eax
	movl	$408, %esi
	movl	%eax, %edi
	call	atomic_add_64
	.loc 2 771 0
	movl	$0, %ebx
	movq	8(%rbp), %rsi
	movl	$hdr_cons, %edi
	call	__cyg_profile_func_exit
	movl	%ebx, %eax
	.loc 2 772 0
	naclaspq	$40, %r15
	popq	%rbx
	popq	%r11
	naclrestbp	%r11d, %r15
	popq	%r11
	nacljmp	%r11d,%r15
	.cfi_endproc
.LFE9:
	.size	hdr_cons, .-hdr_cons
	.align 32
	.type	hdr_dest, @function
hdr_dest:
.LFB10:
	.loc 2 781 0
	.cfi_startproc
	pushq	%rbp
.LCFI14:
	.cfi_def_cfa_offset 16
	movq	%rsp, %rbp
	.cfi_offset 6, -16
.LCFI15:
	.cfi_def_cfa_register 6
	naclsspq	$32, %r15
	movl	%edi, -20(%rbp)
	movl	%esi, -24(%rbp)
	.loc 2 781 0
	movq	8(%rbp), %rsi
	movl	$hdr_dest, %edi
	call	__cyg_profile_func_enter
	.loc 2 782 0
	movl	-20(%rbp), %eax
	movl	%eax, -4(%rbp)
	.loc 2 784 0
	movl	-4(%rbp), %eax
	addl	$192, %eax
	mov	%eax, %eax
	movl	%eax, %edi
	call	refcount_destroy
	.loc 2 785 0
	movl	-4(%rbp), %eax
	addl	$104, %eax
	mov	%eax, %eax
	movl	%eax, %edi
	call	cv_destroy
	.loc 2 786 0
	movl	-4(%rbp), %eax
	addl	$32, %eax
	mov	%eax, %eax
	movl	%eax, %edi
	call	zmutex_destroy
	.loc 2 787 0
	movl	-4(%rbp), %eax
	addl	$300, %eax
	mov	%eax, %eax
	movl	%eax, %edi
	call	rw_destroy
	.loc 2 789 0
	movl	$arc_stats+1376, %eax
	mov	%eax, %eax
	movq	$-408, %rsi
	movl	%eax, %edi
	call	atomic_add_64
	movq	8(%rbp), %rsi
	movl	$hdr_dest, %edi
	call	__cyg_profile_func_exit
	.loc 2 790 0
	movq	%rbp, %rsp
	popq	%r11
	naclrestbp	%r11d, %r15
	popq	%r11
	nacljmp	%r11d,%r15
	.cfi_endproc
.LFE10:
	.size	hdr_dest, .-hdr_dest
	.section	.rodata
.LC9:
	.string	"hdr_recl called\n"
	.text
	.align 32
	.type	hdr_recl, @function
hdr_recl:
.LFB11:
	.loc 2 798 0
	.cfi_startproc
	pushq	%rbp
.LCFI16:
	.cfi_def_cfa_offset 16
	movq	%rsp, %rbp
	.cfi_offset 6, -16
.LCFI17:
	.cfi_def_cfa_register 6
	naclsspq	$16, %r15
	movl	%edi, -4(%rbp)
	.loc 2 798 0
	movq	8(%rbp), %rsi
	movl	$hdr_recl, %edi
	call	__cyg_profile_func_enter
	.loc 2 799 0
	movl	zfs_flags(%rip), %eax
	andl	$1, %eax
	testb	%al, %al
	je	.L47
	movl	$.LC9, %ecx
	movl	$799, %edx
	movl	$__func__.9800, %esi
	movl	$.LC3, %edi
	movl	$0, %eax
	call	__dprintf
	.align 32
.L47:
	.loc 2 804 0
	movl	arc_dead(%rip), %eax
	testl	%eax, %eax
	jne	.L48
	.loc 2 805 0
	movl	$arc_reclaim_thr_cv, %edi
	call	cv_signal
	.align 32
.L48:
	movq	8(%rbp), %rsi
	movl	$hdr_recl, %edi
	call	__cyg_profile_func_exit
	.loc 2 806 0
	movq	%rbp, %rsp
	popq	%r11
	naclrestbp	%r11d, %r15
	popq	%r11
	nacljmp	%r11d,%r15
	.cfi_endproc
.LFE11:
	.size	hdr_recl, .-hdr_recl
	.section	.rodata
.LC10:
	.string	"hsize > (1ULL << 8)"
.LC11:
	.string	"arc_buf_hdr_t"
.LC12:
	.string	"arc_buf_t"
	.text
	.align 32
	.type	buf_init, @function
buf_init:
.LFB12:
	.loc 2 810 0
	.cfi_startproc
	pushq	%rbp
.LCFI18:
	.cfi_def_cfa_offset 16
	movq	%rsp, %rbp
	.cfi_offset 6, -16
.LCFI19:
	.cfi_def_cfa_register 6
	naclsspq	$64, %r15
	.loc 2 810 0
	movq	8(%rbp), %rsi
	movl	$buf_init, %edi
	call	__cyg_profile_func_enter
	.loc 2 812 0
	movq	$4096, -16(%rbp)
	.loc 2 820 0
	jmp	.L51
	.align 32
.L52:
	.loc 2 821 0
	salq	-16(%rbp)
	.align 32
.L51:
	.loc 2 820 0
	movq	-16(%rbp), %rax
	movq	%rax, %rcx
	salq	$16, %rcx
	movl	_pagesize(%rip), %eax
	mov	%eax, %edx
	movq	physmem(%rip), %rax
	imulq	%rdx, %rax
	cmpq	%rax, %rcx
	jb	.L52
	.align 32
.L53:
	.loc 2 823 0
	movq	-16(%rbp), %rax
	subq	$1, %rax
	movq	%rax, buf_hash_table(%rip)
	.loc 2 825 0
	movq	-16(%rbp), %rax
	sall	$2, %eax
	movl	$0, %esi
	movl	%eax, %edi
	call	umem_zalloc
	mov	%eax, %eax
	.loc 2 824 0
	movl	%eax, buf_hash_table+8(%rip)
	.loc 2 826 0
	mov	buf_hash_table+8(%rip), %eax
	testq	%rax, %rax
	jne	.L54
	.loc 2 827 0
	cmpq	$256, -16(%rbp)
	ja	.L55
	movl	$__PRETTY_FUNCTION__.9820, %ecx
	movl	$827, %edx
	movl	$.LC3, %esi
	movl	$.LC10, %edi
	call	__assert_fail
	.align 32
.L55:
	.loc 2 828 0
	shrq	-16(%rbp)
	.loc 2 829 0
	jmp	.L53
	.align 32
.L54:
	.loc 2 832 0
	movl	$0, 16(%rsp)
	movl	$0, 8(%rsp)
	movl	$0, (%rsp)
	movl	$hdr_recl, %r9d
	movl	$hdr_dest, %r8d
	movl	$hdr_cons, %ecx
	movl	$0, %edx
	movl	$408, %esi
	movl	$.LC11, %edi
	call	umem_cache_create
	mov	%eax, %eax
	movl	%eax, hdr_cache(%rip)
	.loc 2 834 0
	movl	$0, 16(%rsp)
	movl	$0, 8(%rsp)
	movl	$0, (%rsp)
	movl	$0, %r9d
	movl	$0, %r8d
	movl	$0, %ecx
	movl	$0, %edx
	movl	$20, %esi
	movl	$.LC12, %edi
	call	umem_cache_create
	mov	%eax, %eax
	movl	%eax, buf_cache(%rip)
	.loc 2 837 0
	movl	$0, -8(%rbp)
	jmp	.L56
	.align 32
.L59:
	.loc 2 838 0
	movl	-8(%rbp), %eax
	sall	$3, %eax
	addl	$zfs_crc64_table, %eax
	movl	%eax, -20(%rbp)
	movl	-8(%rbp), %eax
	movslq	%eax,%rdx
	mov	-20(%rbp), %eax
	movq	%rdx, %nacl:(%r15,%rax)
	movl	$8, -4(%rbp)
	jmp	.L57
	.align 32
.L58:
	.loc 2 839 0
	mov	-20(%rbp), %eax
	movq	%nacl:(%r15,%rax), %rax
	movq	%rax, %rdx
	shrq	%rdx
	mov	-20(%rbp), %eax
	movq	%nacl:(%r15,%rax), %rax
	andl	$1, %eax
	movq	%rax, %rcx
	negq	%rcx
	movabsq	$-3932672073523589310, %rax
	andq	%rcx, %rax
	xorq	%rax, %rdx
	mov	-20(%rbp), %eax
	movq	%rdx, %nacl:(%r15,%rax)
	.loc 2 838 0
	subl	$1, -4(%rbp)
	.align 32
.L57:
	cmpl	$0, -4(%rbp)
	jg	.L58
	.loc 2 837 0
	addl	$1, -8(%rbp)
	.align 32
.L56:
	cmpl	$255, -8(%rbp)
	jle	.L59
	.loc 2 841 0
	movl	$0, -8(%rbp)
	jmp	.L60
	.align 32
.L61:
	.loc 2 842 0
	movl	-8(%rbp), %eax
	sall	$6, %eax
	addl	$buf_hash_table, %eax
	addl	$12, %eax
	mov	%eax, %eax
	movl	%eax, %edi
	call	zmutex_init
	.loc 2 841 0
	addl	$1, -8(%rbp)
	.align 32
.L60:
	cmpl	$255, -8(%rbp)
	jle	.L61
	movq	8(%rbp), %rsi
	movl	$buf_init, %edi
	call	__cyg_profile_func_exit
	.loc 2 845 0
	movq	%rbp, %rsp
	popq	%r11
	naclrestbp	%r11d, %r15
	popq	%r11
	nacljmp	%r11d,%r15
	.cfi_endproc
.LFE12:
	.size	buf_init, .-buf_init
	.section	.rodata
.LC13:
	.string	"buffer modified while frozen!"
	.text
	.align 32
	.type	arc_cksum_verify, @function
arc_cksum_verify:
.LFB13:
	.loc 2 851 0
	.cfi_startproc
	pushq	%rbp
.LCFI20:
	.cfi_def_cfa_offset 16
	movq	%rsp, %rbp
	.cfi_offset 6, -16
.LCFI21:
	.cfi_def_cfa_register 6
	pushq	%rbx
	naclsspq	$56, %r15
	movl	%edi, -52(%rbp)
	.loc 2 851 0
	movq	8(%rbp), %rsi
	movl	$arc_cksum_verify, %edi
	.cfi_offset 3, -24
	call	__cyg_profile_func_enter
	.loc 2 854 0
	movl	zfs_flags(%rip), %eax
	andl	$16, %eax
	testl	%eax, %eax
	jne	.L64
	movl	$0, %ebx
	jmp	.L65
	.align 32
.L64:
	.loc 2 857 0
	mov	-52(%rbp), %eax
	mov	%nacl:(%r15,%rax), %eax
	addl	$32, %eax
	mov	%eax, %eax
	movl	%eax, %edi
	call	mutex_enter
	.loc 2 858 0
	mov	-52(%rbp), %eax
	mov	%nacl:(%r15,%rax), %eax
	mov	%nacl:76(%r15,%rax), %eax
	testq	%rax, %rax
	je	.L66
	.loc 2 859 0
	mov	-52(%rbp), %eax
	mov	%nacl:(%r15,%rax), %eax
	movl	%nacl:88(%r15,%rax), %eax
	andl	$2048, %eax
	.loc 2 858 0
	testl	%eax, %eax
	je	.L67
	.align 32
.L66:
	.loc 2 860 0
	mov	-52(%rbp), %eax
	mov	%nacl:(%r15,%rax), %eax
	addl	$32, %eax
	mov	%eax, %eax
	movl	%eax, %edi
	call	mutex_exit
	movl	$0, %ebx
	jmp	.L65
	.align 32
.L67:
	.loc 2 863 0
	mov	-52(%rbp), %eax
	mov	%nacl:(%r15,%rax), %eax
	movq	%nacl:160(%r15,%rax), %rax
	mov	-52(%rbp), %edx
	mov	%nacl:8(%r15,%rdx), %ecx
	leal	-48(%rbp), %edx
	movq	%rax, %rsi
	movl	%ecx, %edi
	call	fletcher_2_native
	.loc 2 864 0
	mov	-52(%rbp), %eax
	mov	%nacl:(%r15,%rax), %eax
	mov	%nacl:76(%r15,%rax), %eax
	movq	%nacl:(%r15,%rax), %rdx
	movq	-48(%rbp), %rax
	movq	%rdx, %rcx
	subq	%rax, %rcx
	mov	-52(%rbp), %eax
	mov	%nacl:(%r15,%rax), %eax
	mov	%nacl:76(%r15,%rax), %eax
	movq	%nacl:8(%r15,%rax), %rdx
	movq	-40(%rbp), %rax
	movq	%rdx, %rbx
	subq	%rax, %rbx
	movq	%rbx, %rax
	orq	%rax, %rcx
	mov	-52(%rbp), %eax
	mov	%nacl:(%r15,%rax), %eax
	mov	%nacl:76(%r15,%rax), %eax
	movq	%nacl:16(%r15,%rax), %rdx
	movq	-32(%rbp), %rax
	movq	%rdx, %rbx
	subq	%rax, %rbx
	movq	%rbx, %rax
	orq	%rax, %rcx
	mov	-52(%rbp), %eax
	mov	%nacl:(%r15,%rax), %eax
	mov	%nacl:76(%r15,%rax), %eax
	movq	%nacl:24(%r15,%rax), %rdx
	movq	-24(%rbp), %rax
	movq	%rdx, %rbx
	subq	%rax, %rbx
	movq	%rbx, %rax
	orq	%rcx, %rax
	testq	%rax, %rax
	je	.L68
	.loc 2 865 0
	movl	$.LC13, %edi
	movl	$0, %eax
	call	panic
	.align 32
.L68:
	.loc 2 866 0
	mov	-52(%rbp), %eax
	mov	%nacl:(%r15,%rax), %eax
	addl	$32, %eax
	mov	%eax, %eax
	movl	%eax, %edi
	call	mutex_exit
	movl	$1, %ebx
	.align 32
.L65:
	movq	8(%rbp), %rsi
	movl	$arc_cksum_verify, %edi
	call	__cyg_profile_func_exit
	cmpl	$1, %ebx
	.loc 2 867 0
	naclaspq	$56, %r15
	popq	%rbx
	popq	%r11
	naclrestbp	%r11d, %r15
	popq	%r11
	nacljmp	%r11d,%r15
	.cfi_endproc
.LFE13:
	.size	arc_cksum_verify, .-arc_cksum_verify
	.align 32
	.type	arc_cksum_equal, @function
arc_cksum_equal:
.LFB14:
	.loc 2 871 0
	.cfi_startproc
	pushq	%rbp
.LCFI22:
	.cfi_def_cfa_offset 16
	movq	%rsp, %rbp
	.cfi_offset 6, -16
.LCFI23:
	.cfi_def_cfa_register 6
	pushq	%rbx
	naclsspq	$72, %r15
	movl	%edi, -68(%rbp)
	.loc 2 871 0
	movq	8(%rbp), %rsi
	movl	$arc_cksum_equal, %edi
	.cfi_offset 3, -24
	call	__cyg_profile_func_enter
	.loc 2 875 0
	mov	-68(%rbp), %eax
	mov	%nacl:(%r15,%rax), %eax
	addl	$32, %eax
	mov	%eax, %eax
	movl	%eax, %edi
	call	mutex_enter
	.loc 2 876 0
	mov	-68(%rbp), %eax
	mov	%nacl:(%r15,%rax), %eax
	movq	%nacl:160(%r15,%rax), %rax
	mov	-68(%rbp), %edx
	mov	%nacl:8(%r15,%rdx), %ecx
	leal	-64(%rbp), %edx
	movq	%rax, %rsi
	movl	%ecx, %edi
	call	fletcher_2_native
	.loc 2 877 0
	mov	-68(%rbp), %eax
	mov	%nacl:(%r15,%rax), %eax
	mov	%nacl:76(%r15,%rax), %eax
	movq	%nacl:(%r15,%rax), %rdx
	movq	-64(%rbp), %rax
	movq	%rdx, %rcx
	subq	%rax, %rcx
	mov	-68(%rbp), %eax
	mov	%nacl:(%r15,%rax), %eax
	mov	%nacl:76(%r15,%rax), %eax
	movq	%nacl:8(%r15,%rax), %rdx
	movq	-56(%rbp), %rax
	movq	%rdx, %rbx
	subq	%rax, %rbx
	movq	%rbx, %rax
	orq	%rax, %rcx
	mov	-68(%rbp), %eax
	mov	%nacl:(%r15,%rax), %eax
	mov	%nacl:76(%r15,%rax), %eax
	movq	%nacl:16(%r15,%rax), %rdx
	movq	-48(%rbp), %rax
	movq	%rdx, %rbx
	subq	%rax, %rbx
	movq	%rbx, %rax
	orq	%rax, %rcx
	mov	-68(%rbp), %eax
	mov	%nacl:(%r15,%rax), %eax
	mov	%nacl:76(%r15,%rax), %eax
	movq	%nacl:24(%r15,%rax), %rdx
	movq	-40(%rbp), %rax
	movq	%rdx, %rbx
	subq	%rax, %rbx
	movq	%rbx, %rax
	orq	%rcx, %rax
	testq	%rax, %rax
	sete	%al
	movzbl	%al, %eax
	movl	%eax, -20(%rbp)
	.loc 2 878 0
	mov	-68(%rbp), %eax
	mov	%nacl:(%r15,%rax), %eax
	addl	$32, %eax
	mov	%eax, %eax
	movl	%eax, %edi
	call	mutex_exit
	.loc 2 880 0
	movl	-20(%rbp), %ebx
	movq	8(%rbp), %rsi
	movl	$arc_cksum_equal, %edi
	call	__cyg_profile_func_exit
	movl	%ebx, %eax
	.loc 2 881 0
	naclaspq	$72, %r15
	popq	%rbx
	popq	%r11
	naclrestbp	%r11d, %r15
	popq	%r11
	nacljmp	%r11d,%r15
	.cfi_endproc
.LFE14:
	.size	arc_cksum_equal, .-arc_cksum_equal
	.align 32
	.type	arc_cksum_compute, @function
arc_cksum_compute:
.LFB15:
	.loc 2 885 0
	.cfi_startproc
	pushq	%rbp
.LCFI24:
	.cfi_def_cfa_offset 16
	movq	%rsp, %rbp
	.cfi_offset 6, -16
.LCFI25:
	.cfi_def_cfa_register 6
	pushq	%rbx
	naclsspq	$24, %r15
	movl	%edi, -20(%rbp)
	movl	%esi, -24(%rbp)
	.loc 2 885 0
	movq	8(%rbp), %rsi
	movl	$arc_cksum_compute, %edi
	.cfi_offset 3, -24
	call	__cyg_profile_func_enter
	.loc 2 886 0
	cmpl	$0, -24(%rbp)
	jne	.L76
	movl	zfs_flags(%rip), %eax
	andl	$16, %eax
	testl	%eax, %eax
	jne	.L76
	movl	$0, %ebx
	jmp	.L77
	.align 32
.L76:
	.loc 2 889 0
	mov	-20(%rbp), %eax
	mov	%nacl:(%r15,%rax), %eax
	addl	$32, %eax
	mov	%eax, %eax
	movl	%eax, %edi
	call	mutex_enter
	.loc 2 890 0
	mov	-20(%rbp), %eax
	mov	%nacl:(%r15,%rax), %eax
	mov	%nacl:76(%r15,%rax), %eax
	testq	%rax, %rax
	je	.L78
	.loc 2 891 0
	mov	-20(%rbp), %eax
	mov	%nacl:(%r15,%rax), %eax
	addl	$32, %eax
	mov	%eax, %eax
	movl	%eax, %edi
	call	mutex_exit
	movl	$0, %ebx
	jmp	.L77
	.align 32
.L78:
	.loc 2 894 0
	mov	-20(%rbp), %eax
	mov	%nacl:(%r15,%rax), %ebx
	movl	$256, %esi
	movl	$32, %edi
	call	umem_alloc
	mov	%eax, %eax
	movl	%eax, %nacl:76(%r15,%rbx)
	.loc 2 896 0
	mov	-20(%rbp), %eax
	mov	%nacl:(%r15,%rax), %eax
	.loc 2 895 0
	mov	%nacl:76(%r15,%rax), %ebx
	mov	-20(%rbp), %eax
	mov	%nacl:(%r15,%rax), %eax
	movq	%nacl:160(%r15,%rax), %rax
	mov	-20(%rbp), %edx
	mov	%nacl:8(%r15,%rdx), %ecx
	movl	%ebx, %edx
	movq	%rax, %rsi
	movl	%ecx, %edi
	call	fletcher_2_native
	.loc 2 897 0
	mov	-20(%rbp), %eax
	mov	%nacl:(%r15,%rax), %eax
	addl	$32, %eax
	mov	%eax, %eax
	movl	%eax, %edi
	call	mutex_exit
	movl	$1, %ebx
	.align 32
.L77:
	movq	8(%rbp), %rsi
	movl	$arc_cksum_compute, %edi
	call	__cyg_profile_func_exit
	cmpl	$1, %ebx
	.loc 2 898 0
	naclaspq	$24, %r15
	popq	%rbx
	popq	%r11
	naclrestbp	%r11d, %r15
	popq	%r11
	nacljmp	%r11d,%r15
	.cfi_endproc
.LFE15:
	.size	arc_cksum_compute, .-arc_cksum_compute
	.section	.rodata
.LC14:
	.string	"modifying non-anon buffer!"
	.align 8
.LC15:
	.string	"modifying buffer while i/o in progress!"
	.text
	.align 32
.globl arc_buf_thaw
	.type	arc_buf_thaw, @function
arc_buf_thaw:
.LFB16:
	.loc 2 902 0
	.cfi_startproc
	pushq	%rbp
.LCFI26:
	.cfi_def_cfa_offset 16
	movq	%rsp, %rbp
	.cfi_offset 6, -16
.LCFI27:
	.cfi_def_cfa_register 6
	naclsspq	$16, %r15
	movl	%edi, -4(%rbp)
	.loc 2 902 0
	movq	8(%rbp), %rsi
	movl	$arc_buf_thaw, %edi
	call	__cyg_profile_func_enter
	.loc 2 903 0
	movl	zfs_flags(%rip), %eax
	andl	$16, %eax
	testl	%eax, %eax
	je	.L84
	.loc 2 904 0
	mov	-4(%rbp), %eax
	mov	%nacl:(%r15,%rax), %eax
	mov	%nacl:172(%r15,%rax), %edx
	mov	arc_anon(%rip), %eax
	cmpl	%eax, %edx
	je	.L85
	.loc 2 905 0
	movl	$.LC14, %edi
	movl	$0, %eax
	call	panic
	.align 32
.L85:
	.loc 2 906 0
	mov	-4(%rbp), %eax
	mov	%nacl:(%r15,%rax), %eax
	movl	%nacl:88(%r15,%rax), %eax
	andl	$1024, %eax
	testl	%eax, %eax
	je	.L86
	.loc 2 907 0
	movl	$.LC15, %edi
	movl	$0, %eax
	call	panic
	.align 32
.L86:
	.loc 2 908 0
	movl	-4(%rbp), %eax
	movl	%eax, %edi
	call	arc_cksum_verify
	.align 32
.L84:
	.loc 2 911 0
	mov	-4(%rbp), %eax
	mov	%nacl:(%r15,%rax), %eax
	addl	$32, %eax
	mov	%eax, %eax
	movl	%eax, %edi
	call	mutex_enter
	.loc 2 912 0
	mov	-4(%rbp), %eax
	mov	%nacl:(%r15,%rax), %eax
	mov	%nacl:76(%r15,%rax), %eax
	testq	%rax, %rax
	je	.L87
	.loc 2 913 0
	mov	-4(%rbp), %eax
	mov	%nacl:(%r15,%rax), %eax
	mov	%nacl:76(%r15,%rax), %eax
	movl	$32, %esi
	movl	%eax, %edi
	call	umem_free
	.loc 2 914 0
	mov	-4(%rbp), %eax
	mov	%nacl:(%r15,%rax), %eax
	movl	$0, %nacl:76(%r15,%rax)
	.align 32
.L87:
	.loc 2 916 0
	mov	-4(%rbp), %eax
	mov	%nacl:(%r15,%rax), %eax
	addl	$32, %eax
	mov	%eax, %eax
	movl	%eax, %edi
	call	mutex_exit
	movq	8(%rbp), %rsi
	movl	$arc_buf_thaw, %edi
	call	__cyg_profile_func_exit
	.loc 2 917 0
	movq	%rbp, %rsp
	popq	%r11
	naclrestbp	%r11d, %r15
	popq	%r11
	nacljmp	%r11d,%r15
	.cfi_endproc
.LFE16:
	.size	arc_buf_thaw, .-arc_buf_thaw
	.section	.rodata
	.align 8
.LC16:
	.string	"buf->b_hdr->b_freeze_cksum != ((void *)0) || buf->b_hdr->b_state == arc_anon"
	.text
	.align 32
.globl arc_buf_freeze
	.type	arc_buf_freeze, @function
arc_buf_freeze:
.LFB17:
	.loc 2 921 0
	.cfi_startproc
	pushq	%rbp
.LCFI28:
	.cfi_def_cfa_offset 16
	movq	%rsp, %rbp
	.cfi_offset 6, -16
.LCFI29:
	.cfi_def_cfa_register 6
	pushq	%rbx
	naclsspq	$24, %r15
	movl	%edi, -20(%rbp)
	.loc 2 921 0
	movq	8(%rbp), %rsi
	movl	$arc_buf_freeze, %edi
	.cfi_offset 3, -24
	call	__cyg_profile_func_enter
	.loc 2 922 0
	movl	zfs_flags(%rip), %eax
	andl	$16, %eax
	testl	%eax, %eax
	jne	.L90
	movl	$0, %ebx
	jmp	.L91
	.align 32
.L90:
	.loc 2 925 0
	mov	-20(%rbp), %eax
	mov	%nacl:(%r15,%rax), %eax
	mov	%nacl:76(%r15,%rax), %eax
	testq	%rax, %rax
	jne	.L92
	mov	-20(%rbp), %eax
	mov	%nacl:(%r15,%rax), %eax
	mov	%nacl:172(%r15,%rax), %edx
	mov	arc_anon(%rip), %eax
	cmpl	%eax, %edx
	je	.L92
	movl	$__PRETTY_FUNCTION__.10004, %ecx
	movl	$926, %edx
	movl	$.LC3, %esi
	movl	$.LC16, %edi
	call	__assert_fail
	.align 32
.L92:
	.loc 2 927 0
	movl	-20(%rbp), %eax
	movl	$0, %esi
	movl	%eax, %edi
	call	arc_cksum_compute
	movl	$1, %ebx
	.align 32
.L91:
	movq	8(%rbp), %rsi
	movl	$arc_buf_freeze, %edi
	call	__cyg_profile_func_exit
	cmpl	$1, %ebx
	.loc 2 928 0
	naclaspq	$24, %r15
	popq	%rbx
	popq	%r11
	naclrestbp	%r11d, %r15
	popq	%r11
	nacljmp	%r11d,%r15
	.cfi_endproc
.LFE17:
	.size	arc_buf_freeze, .-arc_buf_freeze
	.section	.rodata
	.align 8
.LC17:
	.string	"((hash_lock)->m_owner == ((void *)(uintptr_t)pthread_self()))"
	.align 8
.LC18:
	.string	"!((&ab->b_state->arcs_mtx)->m_owner == ((void *)(uintptr_t)pthread_self()))"
	.align 8
.LC19:
	.string	"list_link_active(&ab->b_arc_node)"
.LC20:
	.string	"%s %s %s (0x%llx %s 0x%llx)"
.LC21:
	.string	"0"
.LC22:
	.string	"=="
.LC23:
	.string	"ab->b_datacnt"
	.align 8
.LC24:
	.string	"%s:%i: %s: Assertion `%s` failed.\n"
.LC25:
	.string	"((void *)0)"
.LC26:
	.string	"ab->b_buf"
.LC27:
	.string	"delta > 0"
.LC28:
	.string	"delta"
.LC29:
	.string	">="
.LC30:
	.string	"*size"
	.text
	.align 32
	.type	add_reference, @function
add_reference:
.LFB18:
	.loc 2 932 0
	.cfi_startproc
	pushq	%rbp
.LCFI30:
	.cfi_def_cfa_offset 16
	movq	%rsp, %rbp
	.cfi_offset 6, -16
.LCFI31:
	.cfi_def_cfa_register 6
	pushq	%rbx
	naclsspq	$136, %r15
	movl	%edi, -100(%rbp)
	movl	%esi, -104(%rbp)
	movl	%edx, -108(%rbp)
	.loc 2 932 0
	movq	8(%rbp), %rsi
	movl	$add_reference, %edi
	.cfi_offset 3, -24
	call	__cyg_profile_func_enter
	.loc 2 933 0
	mov	-104(%rbp), %eax
	mov	%nacl:(%r15,%rax), %ebx
	call	pthread_self
	mov	%eax, %eax
	cmpl	%eax, %ebx
	je	.L98
	movl	$__PRETTY_FUNCTION__.10023, %ecx
	movl	$933, %edx
	movl	$.LC3, %esi
	movl	$.LC17, %edi
	call	__assert_fail
	.align 32
.L98:
	.loc 2 935 0
	movl	-100(%rbp), %eax
	addl	$192, %eax
	mov	%eax, %edx
	movl	-108(%rbp), %eax
	movl	%eax, %esi
	movl	%edx, %edi
	call	refcount_add
	cmpq	$1, %rax
	jne	.L99
	.loc 2 936 0
	mov	-100(%rbp), %eax
	mov	%nacl:172(%r15,%rax), %edx
	mov	arc_anon(%rip), %eax
	.loc 2 935 0
	cmpl	%eax, %edx
	je	.L99
.LBB4:
	.loc 2 937 0
	mov	-100(%rbp), %eax
	movq	%nacl:160(%r15,%rax), %rdx
	mov	-100(%rbp), %eax
	movl	%nacl:92(%r15,%rax), %eax
	mov	%eax, %eax
	imulq	%rdx, %rax
	movq	%rax, -88(%rbp)
	.loc 2 938 0
	mov	-100(%rbp), %eax
	mov	%nacl:172(%r15,%rax), %eax
	movq	%rax, %rdx
	mov	-100(%rbp), %eax
	movl	%nacl:152(%r15,%rax), %eax
	sall	$4, %eax
	addl	%edx, %eax
	movl	%eax, -80(%rbp)
	.loc 2 939 0
	mov	-100(%rbp), %eax
	mov	%nacl:172(%r15,%rax), %eax
	addl	$32, %eax
	mov	%eax, %edx
	mov	-100(%rbp), %eax
	movl	%nacl:152(%r15,%rax), %eax
	sall	$3, %eax
	addl	%edx, %eax
	movl	%eax, -76(%rbp)
	.loc 2 941 0
	mov	-100(%rbp), %eax
	mov	%nacl:172(%r15,%rax), %eax
	mov	%nacl:56(%r15,%rax), %ebx
	call	pthread_self
	mov	%eax, %eax
	cmpl	%eax, %ebx
	jne	.L100
	movl	$__PRETTY_FUNCTION__.10023, %ecx
	movl	$941, %edx
	movl	$.LC3, %esi
	movl	$.LC18, %edi
	call	__assert_fail
	.align 32
.L100:
	.loc 2 942 0
	mov	-100(%rbp), %eax
	mov	%nacl:172(%r15,%rax), %eax
	addl	$56, %eax
	mov	%eax, %eax
	movl	%eax, %edi
	call	mutex_enter
	.loc 2 943 0
	movl	-100(%rbp), %eax
	addl	$176, %eax
	mov	%eax, %eax
	movl	%eax, %edi
	call	list_link_active
	testl	%eax, %eax
	jne	.L101
	movl	$__PRETTY_FUNCTION__.10023, %ecx
	movl	$943, %edx
	movl	$.LC3, %esi
	movl	$.LC19, %edi
	call	__assert_fail
	.align 32
.L101:
	.loc 2 944 0
	movl	-100(%rbp), %edx
	movl	-80(%rbp), %eax
	movl	%edx, %esi
	movl	%eax, %edi
	call	list_remove
	.loc 2 945 0
	mov	-100(%rbp), %eax
	mov	%nacl:172(%r15,%rax), %edx
	mov	arc_mru_ghost(%rip), %eax
	cmpl	%eax, %edx
	je	.L102
	mov	-100(%rbp), %eax
	mov	%nacl:172(%r15,%rax), %edx
	mov	arc_mfu_ghost(%rip), %eax
	cmpl	%eax, %edx
	je	.L102
	mov	-100(%rbp), %eax
	mov	%nacl:172(%r15,%rax), %edx
	mov	arc_l2c_only(%rip), %eax
	cmpl	%eax, %edx
	jne	.L103
	.align 32
.L102:
.LBB5:
	.loc 2 946 0
	mov	-100(%rbp), %eax
	movl	%nacl:92(%r15,%rax), %eax
	mov	%eax, %eax
	movq	%rax, -72(%rbp)
	movq	$0, -64(%rbp)
	movq	-72(%rbp), %rax
	cmpq	-64(%rbp), %rax
	je	.L104
.LBB6:
	naclsspq	$272, %r15
	leal	24(%rsp), %eax
	addq	$15, %rax
	shrq	$4, %rax
	salq	$4, %rax
	mov	%eax, %eax
	movl	%eax, -56(%rbp)
	movl	$.LC20, %eax
	mov	%eax, %ebx
	movl	-56(%rbp), %eax
	movq	-64(%rbp), %rdx
	movq	%rdx, 16(%rsp)
	movl	$.LC22, 8(%rsp)
	movq	-72(%rbp), %rdx
	movq	%rdx, (%rsp)
	movl	$.LC21, %r9d
	movl	$.LC22, %r8d
	movl	$.LC23, %ecx
	movl	%ebx, %edx
	movl	$256, %esi
	movl	%eax, %edi
	movl	$0, %eax
	call	snprintf
	movl	$.LC24, %eax
	mov	%eax, %ebx
	mov	stderr(%rip), %eax
	movl	-56(%rbp), %edx
	movl	%edx, %r9d
	movl	$__PRETTY_FUNCTION__.10023, %r8d
	movl	$946, %ecx
	movl	$.LC3, %edx
	movl	%ebx, %esi
	movl	%eax, %edi
	movl	$0, %eax
	call	fprintf
	call	abort
	.align 32
.L104:
.LBE6:
.LBE5:
.LBB7:
	.loc 2 947 0
	mov	-100(%rbp), %eax
	mov	%nacl:84(%r15,%rax), %eax
	movl	%eax, -52(%rbp)
	movl	$0, -48(%rbp)
	movl	-52(%rbp), %eax
	cmpl	-48(%rbp), %eax
	je	.L105
.LBB8:
	naclsspq	$272, %r15
	leal	24(%rsp), %eax
	addq	$15, %rax
	shrq	$4, %rax
	salq	$4, %rax
	mov	%eax, %eax
	movl	%eax, -44(%rbp)
	mov	-48(%rbp), %ecx
	mov	-52(%rbp), %edx
	movl	$.LC20, %eax
	mov	%eax, %ebx
	movl	-44(%rbp), %eax
	movq	%rcx, 16(%rsp)
	movl	$.LC22, 8(%rsp)
	movq	%rdx, (%rsp)
	movl	$.LC25, %r9d
	movl	$.LC22, %r8d
	movl	$.LC26, %ecx
	movl	%ebx, %edx
	movl	$256, %esi
	movl	%eax, %edi
	movl	$0, %eax
	call	snprintf
	movl	$.LC24, %eax
	mov	%eax, %ebx
	mov	stderr(%rip), %eax
	movl	-44(%rbp), %edx
	movl	%edx, %r9d
	movl	$__PRETTY_FUNCTION__.10023, %r8d
	movl	$947, %ecx
	movl	$.LC3, %edx
	movl	%ebx, %esi
	movl	%eax, %edi
	movl	$0, %eax
	call	fprintf
	call	abort
	.align 32
.L105:
.LBE8:
.LBE7:
	.loc 2 948 0
	mov	-100(%rbp), %eax
	movq	%nacl:160(%r15,%rax), %rax
	movq	%rax, -88(%rbp)
	.align 32
.L103:
	.loc 2 950 0
	cmpq	$0, -88(%rbp)
	jne	.L106
	movl	$__PRETTY_FUNCTION__.10023, %ecx
	movl	$950, %edx
	movl	$.LC3, %esi
	movl	$.LC27, %edi
	call	__assert_fail
	.align 32
.L106:
.LBB9:
	.loc 2 951 0
	mov	-76(%rbp), %eax
	movq	%nacl:(%r15,%rax), %rax
	movq	%rax, -40(%rbp)
	movq	-88(%rbp), %rax
	movq	%rax, -32(%rbp)
	movq	-40(%rbp), %rax
	cmpq	-32(%rbp), %rax
	jae	.L107
.LBB10:
	naclsspq	$272, %r15
	leal	24(%rsp), %eax
	addq	$15, %rax
	shrq	$4, %rax
	salq	$4, %rax
	mov	%eax, %eax
	movl	%eax, -20(%rbp)
	movl	$.LC20, %eax
	mov	%eax, %ebx
	movl	-20(%rbp), %eax
	movq	-32(%rbp), %rdx
	movq	%rdx, 16(%rsp)
	movl	$.LC29, 8(%rsp)
	movq	-40(%rbp), %rdx
	movq	%rdx, (%rsp)
	movl	$.LC28, %r9d
	movl	$.LC29, %r8d
	movl	$.LC30, %ecx
	movl	%ebx, %edx
	movl	$256, %esi
	movl	%eax, %edi
	movl	$0, %eax
	call	snprintf
	movl	$.LC24, %eax
	mov	%eax, %ebx
	mov	stderr(%rip), %eax
	movl	-20(%rbp), %edx
	movl	%edx, %r9d
	movl	$__PRETTY_FUNCTION__.10023, %r8d
	movl	$951, %ecx
	movl	$.LC3, %edx
	movl	%ebx, %esi
	movl	%eax, %edi
	movl	$0, %eax
	call	fprintf
	call	abort
	.align 32
.L107:
.LBE10:
.LBE9:
	.loc 2 952 0
	movq	-88(%rbp), %rax
	negq	%rax
	mov	-76(%rbp), %edx
	movq	%rax, %rsi
	movl	%edx, %edi
	call	atomic_add_64
	.loc 2 953 0
	mov	-100(%rbp), %eax
	mov	%nacl:172(%r15,%rax), %eax
	addl	$56, %eax
	mov	%eax, %eax
	movl	%eax, %edi
	call	mutex_exit
	.loc 2 955 0
	mov	-100(%rbp), %eax
	movl	%nacl:88(%r15,%rax), %eax
	andl	$8, %eax
	testl	%eax, %eax
	je	.L99
	.loc 2 956 0
	mov	-100(%rbp), %eax
	movl	%nacl:88(%r15,%rax), %eax
	movl	%eax, %edx
	andl	$-9, %edx
	mov	-100(%rbp), %eax
	movl	%edx, %nacl:88(%r15,%rax)
	.align 32
.L99:
	movq	8(%rbp), %rsi
	movl	$add_reference, %edi
	call	__cyg_profile_func_exit
.LBE4:
	.loc 2 958 0
	movq	-8(%rbp), %rbx
	movq	%rbp, %rsp
	popq	%r11
	naclrestbp	%r11d, %r15
	popq	%r11
	nacljmp	%r11d,%r15
	.cfi_endproc
.LFE18:
	.size	add_reference, .-add_reference
	.section	.rodata
	.align 8
.LC31:
	.string	"state == arc_anon || ((hash_lock)->m_owner == ((void *)(uintptr_t)pthread_self()))"
	.align 8
.LC32:
	.string	"!((state) == arc_mru_ghost || (state) == arc_mfu_ghost || (state) == arc_l2c_only)"
	.align 8
.LC33:
	.string	"!((&state->arcs_mtx)->m_owner == ((void *)(uintptr_t)pthread_self()))"
	.align 8
.LC34:
	.string	"!list_link_active(&ab->b_arc_node)"
.LC35:
	.string	"ab->b_datacnt > 0"
	.text
	.align 32
	.type	remove_reference, @function
remove_reference:
.LFB19:
	.loc 2 962 0
	.cfi_startproc
	pushq	%rbp
.LCFI32:
	.cfi_def_cfa_offset 16
	movq	%rsp, %rbp
	.cfi_offset 6, -16
.LCFI33:
	.cfi_def_cfa_register 6
	pushq	%rbx
	naclsspq	$40, %r15
	movl	%edi, -36(%rbp)
	movl	%esi, -40(%rbp)
	movl	%edx, -44(%rbp)
	.loc 2 962 0
	movq	8(%rbp), %rsi
	movl	$remove_reference, %edi
	.cfi_offset 3, -24
	call	__cyg_profile_func_enter
	.loc 2 964 0
	mov	-36(%rbp), %eax
	movl	%nacl:172(%r15,%rax), %eax
	movl	%eax, -24(%rbp)
	.loc 2 966 0
	mov	arc_anon(%rip), %eax
	cmpl	%eax, -24(%rbp)
	je	.L110
	mov	-40(%rbp), %eax
	mov	%nacl:(%r15,%rax), %ebx
	call	pthread_self
	mov	%eax, %eax
	cmpl	%eax, %ebx
	je	.L110
	movl	$__PRETTY_FUNCTION__.10127, %ecx
	movl	$966, %edx
	movl	$.LC3, %esi
	movl	$.LC31, %edi
	call	__assert_fail
	.align 32
.L110:
	.loc 2 967 0
	mov	arc_mru_ghost(%rip), %eax
	cmpl	%eax, -24(%rbp)
	je	.L111
	mov	arc_mfu_ghost(%rip), %eax
	cmpl	%eax, -24(%rbp)
	je	.L111
	mov	arc_l2c_only(%rip), %eax
	cmpl	%eax, -24(%rbp)
	jne	.L112
	.align 32
.L111:
	movl	$__PRETTY_FUNCTION__.10127, %ecx
	movl	$967, %edx
	movl	$.LC3, %esi
	movl	$.LC32, %edi
	call	__assert_fail
	.align 32
.L112:
	.loc 2 969 0
	movl	-36(%rbp), %eax
	addl	$192, %eax
	mov	%eax, %edx
	movl	-44(%rbp), %eax
	movl	%eax, %esi
	movl	%edx, %edi
	call	refcount_remove
	movl	%eax, -28(%rbp)
	cmpl	$0, -28(%rbp)
	jne	.L113
	.loc 2 970 0
	mov	arc_anon(%rip), %eax
	.loc 2 969 0
	cmpl	%eax, -24(%rbp)
	je	.L113
.LBB11:
	.loc 2 971 0
	movl	-24(%rbp), %eax
	addl	$32, %eax
	mov	%eax, %edx
	mov	-36(%rbp), %eax
	movl	%nacl:152(%r15,%rax), %eax
	sall	$3, %eax
	addl	%edx, %eax
	movl	%eax, -20(%rbp)
	.loc 2 973 0
	mov	-24(%rbp), %eax
	mov	%nacl:56(%r15,%rax), %ebx
	call	pthread_self
	mov	%eax, %eax
	cmpl	%eax, %ebx
	jne	.L114
	movl	$__PRETTY_FUNCTION__.10127, %ecx
	movl	$973, %edx
	movl	$.LC3, %esi
	movl	$.LC33, %edi
	call	__assert_fail
	.align 32
.L114:
	.loc 2 974 0
	movl	-24(%rbp), %eax
	addl	$56, %eax
	mov	%eax, %eax
	movl	%eax, %edi
	call	mutex_enter
	.loc 2 975 0
	movl	-36(%rbp), %eax
	addl	$176, %eax
	mov	%eax, %eax
	movl	%eax, %edi
	call	list_link_active
	testl	%eax, %eax
	je	.L115
	movl	$__PRETTY_FUNCTION__.10127, %ecx
	movl	$975, %edx
	movl	$.LC3, %esi
	movl	$.LC34, %edi
	call	__assert_fail
	.align 32
.L115:
	.loc 2 976 0
	mov	-24(%rbp), %edx
	mov	-36(%rbp), %eax
	movl	%nacl:152(%r15,%rax), %eax
	sall	$4, %eax
	addl	%edx, %eax
	mov	%eax, %edx
	movl	-36(%rbp), %eax
	movl	%eax, %esi
	movl	%edx, %edi
	call	list_insert_head
	.loc 2 977 0
	mov	-36(%rbp), %eax
	movl	%nacl:92(%r15,%rax), %eax
	testl	%eax, %eax
	jne	.L116
	movl	$__PRETTY_FUNCTION__.10127, %ecx
	movl	$977, %edx
	movl	$.LC3, %esi
	movl	$.LC35, %edi
	call	__assert_fail
	.align 32
.L116:
	.loc 2 978 0
	mov	-36(%rbp), %eax
	movq	%nacl:160(%r15,%rax), %rdx
	mov	-36(%rbp), %eax
	movl	%nacl:92(%r15,%rax), %eax
	mov	%eax, %eax
	imulq	%rdx, %rax
	mov	-20(%rbp), %edx
	movq	%rax, %rsi
	movl	%edx, %edi
	call	atomic_add_64
	.loc 2 979 0
	movl	-24(%rbp), %eax
	addl	$56, %eax
	mov	%eax, %eax
	movl	%eax, %edi
	call	mutex_exit
	.align 32
.L113:
.LBE11:
	.loc 2 981 0
	movl	-28(%rbp), %ebx
	movq	8(%rbp), %rsi
	movl	$remove_reference, %edi
	call	__cyg_profile_func_exit
	movl	%ebx, %eax
	.loc 2 982 0
	naclaspq	$40, %r15
	popq	%rbx
	popq	%r11
	naclrestbp	%r11d, %r15
	popq	%r11
	nacljmp	%r11d,%r15
	.cfi_endproc
.LFE19:
	.size	remove_reference, .-remove_reference
	.section	.rodata
.LC36:
	.string	"new_state != old_state"
	.align 8
.LC37:
	.string	"refcnt == 0 || ab->b_datacnt > 0"
	.align 8
.LC38:
	.string	"ab->b_datacnt == 0 || !((new_state) == arc_mru_ghost || (new_state) == arc_mfu_ghost || (new_state) == arc_l2c_only)"
.LC39:
	.string	"ab->b_buf == ((void *)0)"
.LC40:
	.string	"from_delta"
.LC41:
	.string	"ab->b_datacnt == 0"
	.align 8
.LC42:
	.string	"!((ab)->b_dva.dva_word[0] == 0 && (ab)->b_dva.dva_word[1] == 0 && (ab)->b_birth == 0)"
.LC43:
	.string	"old_state->arcs_size"
	.text
	.align 32
	.type	arc_change_state, @function
arc_change_state:
.LFB20:
	.loc 2 990 0
	.cfi_startproc
	pushq	%rbp
.LCFI34:
	.cfi_def_cfa_offset 16
	movq	%rsp, %rbp
	.cfi_offset 6, -16
.LCFI35:
	.cfi_def_cfa_register 6
	pushq	%rbx
	naclsspq	$152, %r15
	movl	%edi, -116(%rbp)
	movl	%esi, -120(%rbp)
	movl	%edx, -124(%rbp)
	.loc 2 990 0
	movq	8(%rbp), %rsi
	movl	$arc_change_state, %edi
	.cfi_offset 3, -24
	call	__cyg_profile_func_enter
	.loc 2 991 0
	mov	-120(%rbp), %eax
	movl	%nacl:172(%r15,%rax), %eax
	movl	%eax, -108(%rbp)
	.loc 2 992 0
	movl	-120(%rbp), %eax
	addl	$192, %eax
	mov	%eax, %eax
	movl	%eax, %edi
	call	refcount_count
	movq	%rax, -104(%rbp)
	.loc 2 995 0
	mov	-124(%rbp), %eax
	mov	%nacl:(%r15,%rax), %ebx
	call	pthread_self
	mov	%eax, %eax
	cmpl	%eax, %ebx
	je	.L119
	movl	$__PRETTY_FUNCTION__.10188, %ecx
	movl	$995, %edx
	movl	$.LC3, %esi
	movl	$.LC17, %edi
	call	__assert_fail
	.align 32
.L119:
	.loc 2 996 0
	movl	-116(%rbp), %eax
	cmpl	-108(%rbp), %eax
	jne	.L120
	movl	$__PRETTY_FUNCTION__.10188, %ecx
	movl	$996, %edx
	movl	$.LC3, %esi
	movl	$.LC36, %edi
	call	__assert_fail
	.align 32
.L120:
	.loc 2 997 0
	cmpq	$0, -104(%rbp)
	je	.L121
	mov	-120(%rbp), %eax
	movl	%nacl:92(%r15,%rax), %eax
	testl	%eax, %eax
	jne	.L121
	movl	$__PRETTY_FUNCTION__.10188, %ecx
	movl	$997, %edx
	movl	$.LC3, %esi
	movl	$.LC37, %edi
	call	__assert_fail
	.align 32
.L121:
	.loc 2 998 0
	mov	-120(%rbp), %eax
	movl	%nacl:92(%r15,%rax), %eax
	testl	%eax, %eax
	je	.L122
	mov	arc_mru_ghost(%rip), %eax
	cmpl	%eax, -116(%rbp)
	je	.L123
	mov	arc_mfu_ghost(%rip), %eax
	cmpl	%eax, -116(%rbp)
	je	.L123
	mov	arc_l2c_only(%rip), %eax
	cmpl	%eax, -116(%rbp)
	jne	.L122
	.align 32
.L123:
	movl	$__PRETTY_FUNCTION__.10188, %ecx
	movl	$998, %edx
	movl	$.LC3, %esi
	movl	$.LC38, %edi
	call	__assert_fail
	.align 32
.L122:
	.loc 2 1000 0
	mov	-120(%rbp), %eax
	movl	%nacl:92(%r15,%rax), %eax
	mov	%eax, %edx
	mov	-120(%rbp), %eax
	movq	%nacl:160(%r15,%rax), %rax
	imulq	%rdx, %rax
	movq	%rax, -88(%rbp)
	movq	-88(%rbp), %rax
	movq	%rax, -96(%rbp)
	.loc 2 1006 0
	cmpq	$0, -104(%rbp)
	jne	.L124
	.loc 2 1007 0
	mov	arc_anon(%rip), %eax
	cmpl	%eax, -108(%rbp)
	je	.L125
.LBB12:
	.loc 2 1008 0
	mov	-108(%rbp), %eax
	mov	%nacl:56(%r15,%rax), %ebx
	call	pthread_self
	mov	%eax, %eax
	cmpl	%eax, %ebx
	setne	%al
	movzbl	%al, %eax
	movl	%eax, -80(%rbp)
	.loc 2 1009 0
	movl	-108(%rbp), %eax
	addl	$32, %eax
	mov	%eax, %edx
	mov	-120(%rbp), %eax
	movl	%nacl:152(%r15,%rax), %eax
	sall	$3, %eax
	addl	%edx, %eax
	movl	%eax, -76(%rbp)
	.loc 2 1011 0
	cmpl	$0, -80(%rbp)
	je	.L126
	.loc 2 1012 0
	movl	-108(%rbp), %eax
	addl	$56, %eax
	mov	%eax, %eax
	movl	%eax, %edi
	call	mutex_enter
	.align 32
.L126:
	.loc 2 1014 0
	movl	-120(%rbp), %eax
	addl	$176, %eax
	mov	%eax, %eax
	movl	%eax, %edi
	call	list_link_active
	testl	%eax, %eax
	jne	.L127
	movl	$__PRETTY_FUNCTION__.10188, %ecx
	movl	$1014, %edx
	movl	$.LC3, %esi
	movl	$.LC19, %edi
	call	__assert_fail
	.align 32
.L127:
	.loc 2 1015 0
	mov	-108(%rbp), %edx
	mov	-120(%rbp), %eax
	movl	%nacl:152(%r15,%rax), %eax
	sall	$4, %eax
	addl	%edx, %eax
	mov	%eax, %edx
	movl	-120(%rbp), %eax
	movl	%eax, %esi
	movl	%edx, %edi
	call	list_remove
	.loc 2 1021 0
	mov	arc_mru_ghost(%rip), %eax
	cmpl	%eax, -108(%rbp)
	je	.L128
	mov	arc_mfu_ghost(%rip), %eax
	cmpl	%eax, -108(%rbp)
	je	.L128
	mov	arc_l2c_only(%rip), %eax
	cmpl	%eax, -108(%rbp)
	jne	.L129
	.align 32
.L128:
	mov	-120(%rbp), %eax
	movl	%nacl:92(%r15,%rax), %eax
	testl	%eax, %eax
	jne	.L129
	.loc 2 1023 0
	mov	-120(%rbp), %eax
	mov	%nacl:84(%r15,%rax), %eax
	testq	%rax, %rax
	je	.L130
	movl	$__PRETTY_FUNCTION__.10188, %ecx
	movl	$1023, %edx
	movl	$.LC3, %esi
	movl	$.LC39, %edi
	call	__assert_fail
	.align 32
.L130:
	.loc 2 1024 0
	mov	-120(%rbp), %eax
	movq	%nacl:160(%r15,%rax), %rax
	movq	%rax, -96(%rbp)
	.align 32
.L129:
.LBB13:
	.loc 2 1026 0
	mov	-76(%rbp), %eax
	movq	%nacl:(%r15,%rax), %rax
	movq	%rax, -72(%rbp)
	movq	-96(%rbp), %rax
	movq	%rax, -64(%rbp)
	movq	-72(%rbp), %rax
	cmpq	-64(%rbp), %rax
	jae	.L131
.LBB14:
	naclsspq	$272, %r15
	leal	24(%rsp), %eax
	addq	$15, %rax
	shrq	$4, %rax
	salq	$4, %rax
	mov	%eax, %eax
	movl	%eax, -52(%rbp)
	movl	$.LC20, %eax
	mov	%eax, %ebx
	movl	-52(%rbp), %eax
	movq	-64(%rbp), %rdx
	movq	%rdx, 16(%rsp)
	movl	$.LC29, 8(%rsp)
	movq	-72(%rbp), %rdx
	movq	%rdx, (%rsp)
	movl	$.LC40, %r9d
	movl	$.LC29, %r8d
	movl	$.LC30, %ecx
	movl	%ebx, %edx
	movl	$256, %esi
	movl	%eax, %edi
	movl	$0, %eax
	call	snprintf
	movl	$.LC24, %eax
	mov	%eax, %ebx
	mov	stderr(%rip), %eax
	movl	-52(%rbp), %edx
	movl	%edx, %r9d
	movl	$__PRETTY_FUNCTION__.10188, %r8d
	movl	$1026, %ecx
	movl	$.LC3, %edx
	movl	%ebx, %esi
	movl	%eax, %edi
	movl	$0, %eax
	call	fprintf
	call	abort
	.align 32
.L131:
.LBE14:
.LBE13:
	.loc 2 1027 0
	movq	-96(%rbp), %rax
	negq	%rax
	mov	-76(%rbp), %edx
	movq	%rax, %rsi
	movl	%edx, %edi
	call	atomic_add_64
	.loc 2 1029 0
	cmpl	$0, -80(%rbp)
	je	.L125
	.loc 2 1030 0
	movl	-108(%rbp), %eax
	addl	$56, %eax
	mov	%eax, %eax
	movl	%eax, %edi
	call	mutex_exit
	.align 32
.L125:
.LBE12:
	.loc 2 1032 0
	mov	arc_anon(%rip), %eax
	cmpl	%eax, -116(%rbp)
	je	.L124
.LBB15:
	.loc 2 1033 0
	mov	-116(%rbp), %eax
	mov	%nacl:56(%r15,%rax), %ebx
	call	pthread_self
	mov	%eax, %eax
	cmpl	%eax, %ebx
	setne	%al
	movzbl	%al, %eax
	movl	%eax, -48(%rbp)
	.loc 2 1034 0
	movl	-116(%rbp), %eax
	addl	$32, %eax
	mov	%eax, %edx
	mov	-120(%rbp), %eax
	movl	%nacl:152(%r15,%rax), %eax
	sall	$3, %eax
	addl	%edx, %eax
	movl	%eax, -44(%rbp)
	.loc 2 1036 0
	cmpl	$0, -48(%rbp)
	je	.L132
	.loc 2 1037 0
	movl	-116(%rbp), %eax
	addl	$56, %eax
	mov	%eax, %eax
	movl	%eax, %edi
	call	mutex_enter
	.align 32
.L132:
	.loc 2 1039 0
	mov	-116(%rbp), %edx
	mov	-120(%rbp), %eax
	movl	%nacl:152(%r15,%rax), %eax
	sall	$4, %eax
	addl	%edx, %eax
	mov	%eax, %edx
	movl	-120(%rbp), %eax
	movl	%eax, %esi
	movl	%edx, %edi
	call	list_insert_head
	.loc 2 1042 0
	mov	arc_mru_ghost(%rip), %eax
	cmpl	%eax, -116(%rbp)
	je	.L133
	mov	arc_mfu_ghost(%rip), %eax
	cmpl	%eax, -116(%rbp)
	je	.L133
	mov	arc_l2c_only(%rip), %eax
	cmpl	%eax, -116(%rbp)
	jne	.L134
	.align 32
.L133:
	.loc 2 1043 0
	mov	-120(%rbp), %eax
	movl	%nacl:92(%r15,%rax), %eax
	testl	%eax, %eax
	je	.L135
	movl	$__PRETTY_FUNCTION__.10188, %ecx
	movl	$1043, %edx
	movl	$.LC3, %esi
	movl	$.LC41, %edi
	call	__assert_fail
	.align 32
.L135:
	.loc 2 1044 0
	mov	-120(%rbp), %eax
	mov	%nacl:84(%r15,%rax), %eax
	testq	%rax, %rax
	je	.L136
	movl	$__PRETTY_FUNCTION__.10188, %ecx
	movl	$1044, %edx
	movl	$.LC3, %esi
	movl	$.LC39, %edi
	call	__assert_fail
	.align 32
.L136:
	.loc 2 1045 0
	mov	-120(%rbp), %eax
	movq	%nacl:160(%r15,%rax), %rax
	movq	%rax, -88(%rbp)
	.align 32
.L134:
	.loc 2 1047 0
	movq	-88(%rbp), %rax
	mov	-44(%rbp), %edx
	movq	%rax, %rsi
	movl	%edx, %edi
	call	atomic_add_64
	.loc 2 1048 0
	movq	-88(%rbp), %rax
	movl	-116(%rbp), %edx
	addl	$48, %edx
	mov	%edx, %edx
	movq	%rax, %rsi
	movl	%edx, %edi
	call	atomic_add_64
	.loc 2 1050 0
	cmpl	$0, -48(%rbp)
	je	.L124
	.loc 2 1051 0
	movl	-116(%rbp), %eax
	addl	$56, %eax
	mov	%eax, %eax
	movl	%eax, %edi
	call	mutex_exit
	.align 32
.L124:
.LBE15:
	.loc 2 1055 0
	mov	-120(%rbp), %eax
	movq	%nacl:(%r15,%rax), %rax
	testq	%rax, %rax
	jne	.L137
	mov	-120(%rbp), %eax
	movq	%nacl:8(%r15,%rax), %rax
	testq	%rax, %rax
	jne	.L137
	mov	-120(%rbp), %eax
	movq	%nacl:16(%r15,%rax), %rax
	testq	%rax, %rax
	jne	.L137
	movl	$__PRETTY_FUNCTION__.10188, %ecx
	movl	$1055, %edx
	movl	$.LC3, %esi
	movl	$.LC42, %edi
	call	__assert_fail
	.align 32
.L137:
	.loc 2 1056 0
	mov	arc_anon(%rip), %eax
	cmpl	%eax, -116(%rbp)
	jne	.L138
	.loc 2 1057 0
	movl	-120(%rbp), %eax
	movl	%eax, %edi
	call	buf_hash_remove
	.align 32
.L138:
	.loc 2 1061 0
	cmpq	$0, -88(%rbp)
	je	.L139
	cmpq	$0, -104(%rbp)
	jne	.L140
	mov	arc_anon(%rip), %eax
	cmpl	%eax, -116(%rbp)
	jne	.L139
	.align 32
.L140:
	.loc 2 1062 0
	movq	-88(%rbp), %rax
	movl	-116(%rbp), %edx
	addl	$48, %edx
	mov	%edx, %edx
	movq	%rax, %rsi
	movl	%edx, %edi
	call	atomic_add_64
	.align 32
.L139:
	.loc 2 1063 0
	cmpq	$0, -96(%rbp)
	je	.L141
.LBB16:
	.loc 2 1064 0
	mov	-108(%rbp), %eax
	movq	%nacl:48(%r15,%rax), %rax
	movq	%rax, -40(%rbp)
	movq	-96(%rbp), %rax
	movq	%rax, -32(%rbp)
	movq	-40(%rbp), %rax
	cmpq	-32(%rbp), %rax
	jae	.L142
.LBB17:
	naclsspq	$272, %r15
	leal	24(%rsp), %eax
	addq	$15, %rax
	shrq	$4, %rax
	salq	$4, %rax
	mov	%eax, %eax
	movl	%eax, -20(%rbp)
	movl	$.LC20, %eax
	mov	%eax, %ebx
	movl	-20(%rbp), %eax
	movq	-32(%rbp), %rdx
	movq	%rdx, 16(%rsp)
	movl	$.LC29, 8(%rsp)
	movq	-40(%rbp), %rdx
	movq	%rdx, (%rsp)
	movl	$.LC40, %r9d
	movl	$.LC29, %r8d
	movl	$.LC43, %ecx
	movl	%ebx, %edx
	movl	$256, %esi
	movl	%eax, %edi
	movl	$0, %eax
	call	snprintf
	movl	$.LC24, %eax
	mov	%eax, %ebx
	mov	stderr(%rip), %eax
	movl	-20(%rbp), %edx
	movl	%edx, %r9d
	movl	$__PRETTY_FUNCTION__.10188, %r8d
	movl	$1064, %ecx
	movl	$.LC3, %edx
	movl	%ebx, %esi
	movl	%eax, %edi
	movl	$0, %eax
	call	fprintf
	call	abort
	.align 32
.L142:
.LBE17:
.LBE16:
	.loc 2 1065 0
	movq	-96(%rbp), %rax
	negq	%rax
	movl	-108(%rbp), %edx
	addl	$48, %edx
	mov	%edx, %edx
	movq	%rax, %rsi
	movl	%edx, %edi
	call	atomic_add_64
	.align 32
.L141:
	.loc 2 1067 0
	mov	-120(%rbp), %eax
	movl	-116(%rbp), %edx
	movl	%edx, %nacl:172(%r15,%rax)
	.loc 2 1070 0
	mov	arc_l2c_only(%rip), %eax
	cmpl	%eax, -116(%rbp)
	jne	.L143
	.loc 2 1071 0
	call	l2arc_hdr_stat_add
	jmp	.L144
	.align 32
.L143:
	.loc 2 1072 0
	mov	arc_l2c_only(%rip), %eax
	cmpl	%eax, -108(%rbp)
	jne	.L144
	.loc 2 1073 0
	call	l2arc_hdr_stat_remove
	.align 32
.L144:
	movq	8(%rbp), %rsi
	movl	$arc_change_state, %edi
	call	__cyg_profile_func_exit
	.loc 2 1074 0
	movq	-8(%rbp), %rbx
	movq	%rbp, %rsp
	popq	%r11
	naclrestbp	%r11d, %r15
	popq	%r11
	nacljmp	%r11d,%r15
	.cfi_endproc
.LFE20:
	.size	arc_change_state, .-arc_change_state
	.align 32
.globl arc_space_consume
	.type	arc_space_consume, @function
arc_space_consume:
.LFB21:
	.loc 2 1078 0
	.cfi_startproc
	pushq	%rbp
.LCFI36:
	.cfi_def_cfa_offset 16
	movq	%rsp, %rbp
	.cfi_offset 6, -16
.LCFI37:
	.cfi_def_cfa_register 6
	naclsspq	$16, %r15
	movq	%rdi, -8(%rbp)
	.loc 2 1078 0
	movq	8(%rbp), %rsi
	movl	$arc_space_consume, %edi
	call	__cyg_profile_func_enter
	.loc 2 1079 0
	movq	-8(%rbp), %rax
	movl	$arc_meta_used, %edx
	mov	%edx, %edx
	movq	%rax, %rsi
	movl	%edx, %edi
	call	atomic_add_64
	.loc 2 1080 0
	movq	-8(%rbp), %rax
	movl	$arc_stats+1328, %edx
	mov	%edx, %edx
	movq	%rax, %rsi
	movl	%edx, %edi
	call	atomic_add_64
	movq	8(%rbp), %rsi
	movl	$arc_space_consume, %edi
	call	__cyg_profile_func_exit
	.loc 2 1081 0
	movq	%rbp, %rsp
	popq	%r11
	naclrestbp	%r11d, %r15
	popq	%r11
	nacljmp	%r11d,%r15
	.cfi_endproc
.LFE21:
	.size	arc_space_consume, .-arc_space_consume
	.section	.rodata
.LC44:
	.string	"arc_meta_used >= space"
	.align 8
.LC45:
	.string	"(arc_stats.arcstat_size.value.ui64) >= space"
	.text
	.align 32
.globl arc_space_return
	.type	arc_space_return, @function
arc_space_return:
.LFB22:
	.loc 2 1085 0
	.cfi_startproc
	pushq	%rbp
.LCFI38:
	.cfi_def_cfa_offset 16
	movq	%rsp, %rbp
	.cfi_offset 6, -16
.LCFI39:
	.cfi_def_cfa_register 6
	naclsspq	$16, %r15
	movq	%rdi, -8(%rbp)
	.loc 2 1085 0
	movq	8(%rbp), %rsi
	movl	$arc_space_return, %edi
	call	__cyg_profile_func_enter
	.loc 2 1086 0
	movq	arc_meta_used(%rip), %rax
	cmpq	-8(%rbp), %rax
	jae	.L149
	movl	$__PRETTY_FUNCTION__.10362, %ecx
	movl	$1086, %edx
	movl	$.LC3, %esi
	movl	$.LC44, %edi
	call	__assert_fail
	.align 32
.L149:
	.loc 2 1087 0
	movq	arc_meta_max(%rip), %rdx
	movq	arc_meta_used(%rip), %rax
	cmpq	%rax, %rdx
	jae	.L150
	.loc 2 1088 0
	movq	arc_meta_used(%rip), %rax
	movq	%rax, arc_meta_max(%rip)
	.align 32
.L150:
	.loc 2 1089 0
	movq	-8(%rbp), %rax
	negq	%rax
	movl	$arc_meta_used, %edx
	mov	%edx, %edx
	movq	%rax, %rsi
	movl	%edx, %edi
	call	atomic_add_64
	.loc 2 1090 0
	movq	arc_stats+1328(%rip), %rax
	cmpq	-8(%rbp), %rax
	jae	.L151
	movl	$__PRETTY_FUNCTION__.10362, %ecx
	movl	$1090, %edx
	movl	$.LC3, %esi
	movl	$.LC45, %edi
	call	__assert_fail
	.align 32
.L151:
	.loc 2 1091 0
	movq	-8(%rbp), %rax
	negq	%rax
	movl	$arc_stats+1328, %edx
	mov	%edx, %edx
	movq	%rax, %rsi
	movl	%edx, %edi
	call	atomic_add_64
	movq	8(%rbp), %rsi
	movl	$arc_space_return, %edi
	call	__cyg_profile_func_exit
	.loc 2 1092 0
	movq	%rbp, %rsp
	popq	%r11
	naclrestbp	%r11d, %r15
	popq	%r11
	nacljmp	%r11d,%r15
	.cfi_endproc
.LFE22:
	.size	arc_space_return, .-arc_space_return
	.align 32
.globl arc_data_buf_alloc
	.type	arc_data_buf_alloc, @function
arc_data_buf_alloc:
.LFB23:
	.loc 2 1096 0
	.cfi_startproc
	pushq	%rbp
.LCFI40:
	.cfi_def_cfa_offset 16
	movq	%rsp, %rbp
	.cfi_offset 6, -16
.LCFI41:
	.cfi_def_cfa_register 6
	pushq	%rbx
	naclsspq	$24, %r15
	movq	%rdi, -24(%rbp)
	.loc 2 1096 0
	movq	8(%rbp), %rsi
	movl	$arc_data_buf_alloc, %edi
	.cfi_offset 3, -24
	call	__cyg_profile_func_enter
	.loc 2 1097 0
	movl	$0, %edi
	call	arc_evict_needed
	testl	%eax, %eax
	je	.L154
	.loc 2 1098 0
	movl	$arc_reclaim_thr_cv, %edi
	call	cv_signal
	.align 32
.L154:
	.loc 2 1099 0
	movq	-24(%rbp), %rax
	movl	$arc_stats+1328, %edx
	mov	%edx, %edx
	movq	%rax, %rsi
	movl	%edx, %edi
	call	atomic_add_64
	.loc 2 1100 0
	movq	-24(%rbp), %rax
	movl	%eax, %edi
	call	zio_data_buf_alloc
	mov	%eax, %eax
	movq	%rax, %rbx
	movq	8(%rbp), %rsi
	movl	$arc_data_buf_alloc, %edi
	call	__cyg_profile_func_exit
	movl	%ebx, %eax
	.loc 2 1101 0
	naclaspq	$24, %r15
	popq	%rbx
	popq	%r11
	naclrestbp	%r11d, %r15
	popq	%r11
	nacljmp	%r11d,%r15
	.cfi_endproc
.LFE23:
	.size	arc_data_buf_alloc, .-arc_data_buf_alloc
	.section	.rodata
	.align 8
.LC46:
	.string	"(arc_stats.arcstat_size.value.ui64) >= size"
	.text
	.align 32
.globl arc_data_buf_free
	.type	arc_data_buf_free, @function
arc_data_buf_free:
.LFB24:
	.loc 2 1105 0
	.cfi_startproc
	pushq	%rbp
.LCFI42:
	.cfi_def_cfa_offset 16
	movq	%rsp, %rbp
	.cfi_offset 6, -16
.LCFI43:
	.cfi_def_cfa_register 6
	naclsspq	$16, %r15
	movl	%edi, -4(%rbp)
	movq	%rsi, -16(%rbp)
	.loc 2 1105 0
	movq	8(%rbp), %rsi
	movl	$arc_data_buf_free, %edi
	call	__cyg_profile_func_enter
	.loc 2 1106 0
	movq	-16(%rbp), %rax
	movl	%eax, %edx
	movl	-4(%rbp), %eax
	movl	%edx, %esi
	movl	%eax, %edi
	call	zio_data_buf_free
	.loc 2 1107 0
	movq	arc_stats+1328(%rip), %rax
	cmpq	-16(%rbp), %rax
	jae	.L157
	movl	$__PRETTY_FUNCTION__.10395, %ecx
	movl	$1107, %edx
	movl	$.LC3, %esi
	movl	$.LC46, %edi
	call	__assert_fail
	.align 32
.L157:
	.loc 2 1108 0
	movq	-16(%rbp), %rax
	negq	%rax
	movl	$arc_stats+1328, %edx
	mov	%edx, %edx
	movq	%rax, %rsi
	movl	%edx, %edi
	call	atomic_add_64
	movq	8(%rbp), %rsi
	movl	$arc_data_buf_free, %edi
	call	__cyg_profile_func_exit
	.loc 2 1109 0
	movq	%rbp, %rsp
	popq	%r11
	naclrestbp	%r11d, %r15
	popq	%r11
	nacljmp	%r11d,%r15
	.cfi_endproc
.LFE24:
	.size	arc_data_buf_free, .-arc_data_buf_free
	.section	.rodata
.LC47:
	.string	">"
.LC48:
	.string	"size"
	.align 8
.LC49:
	.string	"((hdr)->b_dva.dva_word[0] == 0 && (hdr)->b_dva.dva_word[1] == 0 && (hdr)->b_birth == 0)"
	.align 8
.LC50:
	.string	"refcount_is_zero(&hdr->b_refcnt)"
	.text
	.align 32
.globl arc_buf_alloc
	.type	arc_buf_alloc, @function
arc_buf_alloc:
.LFB25:
	.loc 2 1113 0
	.cfi_startproc
	pushq	%rbp
.LCFI44:
	.cfi_def_cfa_offset 16
	movq	%rsp, %rbp
	.cfi_offset 6, -16
.LCFI45:
	.cfi_def_cfa_register 6
	pushq	%rbx
	naclsspq	$88, %r15
	movl	%edi, -52(%rbp)
	movl	%esi, -56(%rbp)
	movl	%edx, -60(%rbp)
	movl	%ecx, -64(%rbp)
	.loc 2 1113 0
	movq	8(%rbp), %rsi
	movl	$arc_buf_alloc, %edi
	.cfi_offset 3, -24
	call	__cyg_profile_func_enter
.LBB18:
	.loc 2 1117 0
	movl	-56(%rbp), %eax
	cltq
	movq	%rax, -40(%rbp)
	movq	$0, -32(%rbp)
	movq	-40(%rbp), %rax
	cmpq	-32(%rbp), %rax
	ja	.L160
.LBB19:
	naclsspq	$272, %r15
	leal	24(%rsp), %eax
	addq	$15, %rax
	shrq	$4, %rax
	salq	$4, %rax
	mov	%eax, %eax
	movl	%eax, -20(%rbp)
	movl	$.LC20, %eax
	mov	%eax, %ebx
	movl	-20(%rbp), %eax
	movq	-32(%rbp), %rdx
	movq	%rdx, 16(%rsp)
	movl	$.LC47, 8(%rsp)
	movq	-40(%rbp), %rdx
	movq	%rdx, (%rsp)
	movl	$.LC21, %r9d
	movl	$.LC47, %r8d
	movl	$.LC48, %ecx
	movl	%ebx, %edx
	movl	$256, %esi
	movl	%eax, %edi
	movl	$0, %eax
	call	snprintf
	movl	$.LC24, %eax
	mov	%eax, %ebx
	mov	stderr(%rip), %eax
	movl	-20(%rbp), %edx
	movl	%edx, %r9d
	movl	$__PRETTY_FUNCTION__.10414, %r8d
	movl	$1117, %ecx
	movl	$.LC3, %edx
	movl	%ebx, %esi
	movl	%eax, %edi
	movl	$0, %eax
	call	fprintf
	call	abort
	.align 32
.L160:
.LBE19:
.LBE18:
	.loc 2 1118 0
	mov	hdr_cache(%rip), %eax
	movl	$256, %esi
	movl	%eax, %edi
	call	umem_cache_alloc
	mov	%eax, %eax
	movl	%eax, -48(%rbp)
	.loc 2 1119 0
	mov	-48(%rbp), %eax
	movq	%nacl:(%r15,%rax), %rax
	testq	%rax, %rax
	jne	.L161
	mov	-48(%rbp), %eax
	movq	%nacl:8(%r15,%rax), %rax
	testq	%rax, %rax
	jne	.L161
	mov	-48(%rbp), %eax
	movq	%nacl:16(%r15,%rax), %rax
	testq	%rax, %rax
	je	.L162
	.align 32
.L161:
	movl	$__PRETTY_FUNCTION__.10414, %ecx
	movl	$1119, %edx
	movl	$.LC3, %esi
	movl	$.LC49, %edi
	call	__assert_fail
	.align 32
.L162:
	.loc 2 1120 0
	movl	-56(%rbp), %eax
	movslq	%eax,%rdx
	mov	-48(%rbp), %eax
	movq	%rdx, %nacl:160(%r15,%rax)
	.loc 2 1121 0
	mov	-48(%rbp), %eax
	movl	-64(%rbp), %edx
	movl	%edx, %nacl:152(%r15,%rax)
	.loc 2 1122 0
	mov	-48(%rbp), %eax
	movl	-52(%rbp), %edx
	movl	%edx, %nacl:168(%r15,%rax)
	.loc 2 1123 0
	mov	arc_anon(%rip), %edx
	mov	-48(%rbp), %eax
	movl	%edx, %nacl:172(%r15,%rax)
	.loc 2 1124 0
	mov	-48(%rbp), %eax
	movl	$0, %nacl:184(%r15,%rax)
	.loc 2 1125 0
	mov	buf_cache(%rip), %eax
	movl	$256, %esi
	movl	%eax, %edi
	call	umem_cache_alloc
	mov	%eax, %eax
	movl	%eax, -44(%rbp)
	.loc 2 1126 0
	mov	-44(%rbp), %eax
	movl	-48(%rbp), %edx
	movl	%edx, %nacl:(%r15,%rax)
	.loc 2 1127 0
	mov	-44(%rbp), %eax
	movl	$0, %nacl:8(%r15,%rax)
	.loc 2 1128 0
	mov	-44(%rbp), %eax
	movl	$0, %nacl:12(%r15,%rax)
	.loc 2 1129 0
	mov	-44(%rbp), %eax
	movl	$0, %nacl:16(%r15,%rax)
	.loc 2 1130 0
	mov	-44(%rbp), %eax
	movl	$0, %nacl:4(%r15,%rax)
	.loc 2 1131 0
	mov	-48(%rbp), %eax
	movl	-44(%rbp), %edx
	movl	%edx, %nacl:84(%r15,%rax)
	.loc 2 1132 0
	movl	-44(%rbp), %eax
	movl	%eax, %edi
	call	arc_get_data_buf
	.loc 2 1133 0
	mov	-48(%rbp), %eax
	movl	$1, %nacl:92(%r15,%rax)
	.loc 2 1134 0
	mov	-48(%rbp), %eax
	movl	$0, %nacl:88(%r15,%rax)
	.loc 2 1135 0
	movl	-48(%rbp), %eax
	addl	$192, %eax
	mov	%eax, %eax
	movl	%eax, %edi
	call	refcount_is_zero
	testl	%eax, %eax
	jne	.L163
	movl	$__PRETTY_FUNCTION__.10414, %ecx
	movl	$1135, %edx
	movl	$.LC3, %esi
	movl	$.LC50, %edi
	call	__assert_fail
	.align 32
.L163:
	.loc 2 1136 0
	movl	-48(%rbp), %eax
	addl	$192, %eax
	mov	%eax, %edx
	movl	-60(%rbp), %eax
	movl	%eax, %esi
	movl	%edx, %edi
	call	refcount_add
	.loc 2 1138 0
	mov	-44(%rbp), %ebx
	movq	8(%rbp), %rsi
	movl	$arc_buf_alloc, %edi
	call	__cyg_profile_func_exit
	movl	%ebx, %eax
	.loc 2 1139 0
	movq	-8(%rbp), %rbx
	movq	%rbp, %rsp
	popq	%r11
	naclrestbp	%r11d, %r15
	popq	%r11
	nacljmp	%r11d,%r15
	.cfi_endproc
.LFE25:
	.size	arc_buf_alloc, .-arc_buf_alloc
	.align 32
	.type	arc_buf_clone, @function
arc_buf_clone:
.LFB26:
	.loc 2 1143 0
	.cfi_startproc
	pushq	%rbp
.LCFI46:
	.cfi_def_cfa_offset 16
	movq	%rsp, %rbp
	.cfi_offset 6, -16
.LCFI47:
	.cfi_def_cfa_register 6
	pushq	%rbx
	naclsspq	$40, %r15
	movl	%edi, -36(%rbp)
	.loc 2 1143 0
	movq	8(%rbp), %rsi
	movl	$arc_buf_clone, %edi
	.cfi_offset 3, -24
	call	__cyg_profile_func_enter
	.loc 2 1145 0
	mov	-36(%rbp), %eax
	movl	%nacl:(%r15,%rax), %eax
	movl	%eax, -28(%rbp)
	.loc 2 1146 0
	mov	-28(%rbp), %eax
	movq	%nacl:160(%r15,%rax), %rax
	movq	%rax, -24(%rbp)
	.loc 2 1148 0
	mov	buf_cache(%rip), %eax
	movl	$256, %esi
	movl	%eax, %edi
	call	umem_cache_alloc
	mov	%eax, %eax
	movl	%eax, -32(%rbp)
	.loc 2 1149 0
	mov	-32(%rbp), %eax
	movl	-28(%rbp), %edx
	movl	%edx, %nacl:(%r15,%rax)
	.loc 2 1150 0
	mov	-32(%rbp), %eax
	movl	$0, %nacl:8(%r15,%rax)
	.loc 2 1151 0
	mov	-32(%rbp), %eax
	movl	$0, %nacl:12(%r15,%rax)
	.loc 2 1152 0
	mov	-32(%rbp), %eax
	movl	$0, %nacl:16(%r15,%rax)
	.loc 2 1153 0
	mov	-28(%rbp), %eax
	mov	%nacl:84(%r15,%rax), %edx
	mov	-32(%rbp), %eax
	movl	%edx, %nacl:4(%r15,%rax)
	.loc 2 1154 0
	mov	-28(%rbp), %eax
	movl	-32(%rbp), %edx
	movl	%edx, %nacl:84(%r15,%rax)
	.loc 2 1155 0
	movl	-32(%rbp), %eax
	movl	%eax, %edi
	call	arc_get_data_buf
	.loc 2 1156 0
	movq	-24(%rbp), %rax
	mov	-32(%rbp), %edx
	mov	%nacl:8(%r15,%rdx), %ebx
	mov	-36(%rbp), %edx
	mov	%nacl:8(%r15,%rdx), %ecx
	movl	%eax, %edx
	movl	%ebx, %esi
	movl	%ecx, %edi
	call	bcopy
	.loc 2 1157 0
	mov	-28(%rbp), %eax
	movl	%nacl:92(%r15,%rax), %eax
	leal	1(%rax), %edx
	mov	-28(%rbp), %eax
	movl	%edx, %nacl:92(%r15,%rax)
	.loc 2 1158 0
	mov	-32(%rbp), %ebx
	movq	8(%rbp), %rsi
	movl	$arc_buf_clone, %edi
	call	__cyg_profile_func_exit
	movl	%ebx, %eax
	.loc 2 1159 0
	naclaspq	$40, %r15
	popq	%rbx
	popq	%r11
	naclrestbp	%r11d, %r15
	popq	%r11
	nacljmp	%r11d,%r15
	.cfi_endproc
.LFE26:
	.size	arc_buf_clone, .-arc_buf_clone
	.section	.rodata
.LC51:
	.string	"buf->b_hdr == hdr"
	.align 8
.LC52:
	.string	"hdr->b_state == arc_mru || hdr->b_state == arc_mfu"
	.text
	.align 32
.globl arc_buf_add_ref
	.type	arc_buf_add_ref, @function
arc_buf_add_ref:
.LFB27:
	.loc 2 1163 0
	.cfi_startproc
	pushq	%rbp
.LCFI48:
	.cfi_def_cfa_offset 16
	movq	%rsp, %rbp
	.cfi_offset 6, -16
.LCFI49:
	.cfi_def_cfa_register 6
	pushq	%rbx
	naclsspq	$40, %r15
	movl	%edi, -36(%rbp)
	movl	%esi, -40(%rbp)
	.loc 2 1163 0
	movq	8(%rbp), %rsi
	movl	$arc_buf_add_ref, %edi
	.cfi_offset 3, -24
	call	__cyg_profile_func_enter
	.loc 2 1171 0
	movl	$arc_eviction_mtx, %edi
	call	mutex_enter
	.loc 2 1172 0
	mov	-36(%rbp), %eax
	movl	%nacl:(%r15,%rax), %eax
	movl	%eax, -24(%rbp)
	.loc 2 1173 0
	cmpl	$0, -24(%rbp)
	jne	.L168
	.loc 2 1174 0
	movl	$arc_eviction_mtx, %edi
	call	mutex_exit
	movl	$0, %ebx
	jmp	.L169
	.align 32
.L168:
	.loc 2 1177 0
	mov	-24(%rbp), %eax
	movq	%nacl:16(%r15,%rax), %rax
	mov	-24(%rbp), %ebx
	mov	-24(%rbp), %edx
	mov	%nacl:168(%r15,%rdx), %ecx
	movq	%rax, %rdx
	movl	%ebx, %esi
	movl	%ecx, %edi
	call	buf_hash
	movq	buf_hash_table(%rip), %rdx
	andq	%rdx, %rax
	andl	$255, %eax
	sall	$6, %eax
	addl	$buf_hash_table, %eax
	addl	$12, %eax
	movl	%eax, -20(%rbp)
	.loc 2 1178 0
	movl	$arc_eviction_mtx, %edi
	call	mutex_exit
	.loc 2 1180 0
	movl	-20(%rbp), %eax
	movl	%eax, %edi
	call	mutex_enter
	.loc 2 1181 0
	mov	-36(%rbp), %eax
	mov	%nacl:8(%r15,%rax), %eax
	testq	%rax, %rax
	jne	.L170
	.loc 2 1185 0
	movl	-20(%rbp), %eax
	movl	%eax, %edi
	call	mutex_exit
	movl	$0, %ebx
	jmp	.L169
	.align 32
.L170:
	.loc 2 1189 0
	mov	-36(%rbp), %eax
	mov	%nacl:(%r15,%rax), %eax
	cmpl	%eax, -24(%rbp)
	je	.L171
	movl	$__PRETTY_FUNCTION__.10462, %ecx
	movl	$1189, %edx
	movl	$.LC3, %esi
	movl	$.LC51, %edi
	call	__assert_fail
	.align 32
.L171:
	.loc 2 1190 0
	mov	-24(%rbp), %eax
	mov	%nacl:172(%r15,%rax), %edx
	mov	arc_mru(%rip), %eax
	cmpl	%eax, %edx
	je	.L172
	mov	-24(%rbp), %eax
	mov	%nacl:172(%r15,%rax), %edx
	mov	arc_mfu(%rip), %eax
	cmpl	%eax, %edx
	je	.L172
	movl	$__PRETTY_FUNCTION__.10462, %ecx
	movl	$1190, %edx
	movl	$.LC3, %esi
	movl	$.LC52, %edi
	call	__assert_fail
	.align 32
.L172:
	.loc 2 1191 0
	movl	-40(%rbp), %edx
	movl	-20(%rbp), %ecx
	movl	-24(%rbp), %eax
	movl	%ecx, %esi
	movl	%eax, %edi
	call	add_reference
	.loc 2 1192 0
	movl	-20(%rbp), %edx
	movl	-24(%rbp), %eax
	movl	%edx, %esi
	movl	%eax, %edi
	call	arc_access
	.loc 2 1193 0
	movl	-20(%rbp), %eax
	movl	%eax, %edi
	call	mutex_exit
	.loc 2 1194 0
	movl	$arc_stats+32, %eax
	mov	%eax, %eax
	movl	$1, %esi
	movl	%eax, %edi
	call	atomic_add_64
	.loc 2 1195 0
	mov	-24(%rbp), %eax
	movl	%nacl:88(%r15,%rax), %eax
	andl	$8, %eax
	testl	%eax, %eax
	jne	.L173
	mov	-24(%rbp), %eax
	movl	%nacl:152(%r15,%rax), %eax
	cmpl	$1, %eax
	je	.L174
	movl	$arc_stats+128, %eax
	mov	%eax, %eax
	movl	$1, %esi
	movl	%eax, %edi
	call	atomic_add_64
	jmp	.L176
	.align 32
.L174:
	movl	$arc_stats+224, %eax
	mov	%eax, %eax
	movl	$1, %esi
	movl	%eax, %edi
	call	atomic_add_64
	jmp	.L176
	.align 32
.L173:
	mov	-24(%rbp), %eax
	movl	%nacl:152(%r15,%rax), %eax
	cmpl	$1, %eax
	je	.L177
	movl	$arc_stats+320, %eax
	mov	%eax, %eax
	movl	$1, %esi
	movl	%eax, %edi
	call	atomic_add_64
	jmp	.L176
	.align 32
.L177:
	movl	$arc_stats+416, %eax
	mov	%eax, %eax
	movl	$1, %esi
	movl	%eax, %edi
	call	atomic_add_64
	.align 32
.L176:
	movl	$1, %ebx
	.align 32
.L169:
	movq	8(%rbp), %rsi
	movl	$arc_buf_add_ref, %edi
	call	__cyg_profile_func_exit
	cmpl	$1, %ebx
	.loc 2 1198 0
	naclaspq	$40, %r15
	popq	%rbx
	popq	%r11
	naclrestbp	%r11d, %r15
	popq	%r11
	nacljmp	%r11d,%r15
	.cfi_endproc
.LFE27:
	.size	arc_buf_add_ref, .-arc_buf_add_ref
	.align 32
	.type	arc_buf_data_free, @function
arc_buf_data_free:
.LFB28:
	.loc 2 1207 0
	.cfi_startproc
	pushq	%rbp
.LCFI50:
	.cfi_def_cfa_offset 16
	movq	%rsp, %rbp
	.cfi_offset 6, -16
.LCFI51:
	.cfi_def_cfa_register 6
	naclsspq	$32, %r15
	movl	%edi, -20(%rbp)
	movl	%esi, -24(%rbp)
	movl	%edx, -28(%rbp)
	movl	%ecx, -32(%rbp)
	.loc 2 1207 0
	movq	8(%rbp), %rsi
	movl	$arc_buf_data_free, %edi
	call	__cyg_profile_func_enter
	.loc 2 1208 0
	mov	-20(%rbp), %eax
	movl	%nacl:88(%r15,%rax), %eax
	andl	$65536, %eax
	testl	%eax, %eax
	je	.L183
.LBB20:
	.loc 2 1210 0
	movl	$256, %esi
	movl	$20, %edi
	call	umem_alloc
	mov	%eax, %eax
	movl	%eax, -4(%rbp)
	.loc 2 1211 0
	mov	-4(%rbp), %eax
	movl	-28(%rbp), %edx
	movl	%edx, %nacl:(%r15,%rax)
	.loc 2 1212 0
	mov	-4(%rbp), %eax
	movl	-32(%rbp), %edx
	movl	%edx, %nacl:4(%r15,%rax)
	.loc 2 1213 0
	mov	-4(%rbp), %eax
	movl	-24(%rbp), %edx
	movl	%edx, %nacl:8(%r15,%rax)
	.loc 2 1214 0
	movl	$l2arc_free_on_write_mtx, %edi
	call	mutex_enter
	.loc 2 1215 0
	mov	l2arc_free_on_write(%rip), %edx
	movl	-4(%rbp), %eax
	movl	%eax, %esi
	movl	%edx, %edi
	call	list_insert_head
	.loc 2 1216 0
	movl	$l2arc_free_on_write_mtx, %edi
	call	mutex_exit
	.loc 2 1217 0
	movl	$arc_stats+1904, %eax
	mov	%eax, %eax
	movl	$1, %esi
	movl	%eax, %edi
	call	atomic_add_64
	jmp	.L184
	.align 32
.L183:
.LBE20:
	.loc 2 1219 0
	movl	-32(%rbp), %ecx
	movl	-28(%rbp), %edx
	mov	-24(%rbp), %eax
	movl	%ecx, %esi
	movl	%edx, %edi
	naclcall	%eax,%r15
	.align 32
.L184:
	movq	8(%rbp), %rsi
	movl	$arc_buf_data_free, %edi
	call	__cyg_profile_func_exit
	.loc 2 1221 0
	movq	%rbp, %rsp
	popq	%r11
	naclrestbp	%r11d, %r15
	popq	%r11
	nacljmp	%r11d,%r15
	.cfi_endproc
.LFE28:
	.size	arc_buf_data_free, .-arc_buf_data_free
	.section	.rodata
.LC53:
	.string	"type == ARC_BUFC_DATA"
	.align 8
.LC54:
	.string	"refcount_is_zero(&buf->b_hdr->b_refcnt)"
.LC55:
	.string	"state != arc_anon"
.LC56:
	.string	"*cnt"
.LC57:
	.string	"state->arcs_size"
.LC58:
	.string	"buf->b_hdr->b_datacnt > 0"
.LC59:
	.string	"buf->b_efunc == ((void *)0)"
	.text
	.align 32
	.type	arc_buf_destroy, @function
arc_buf_destroy:
.LFB29:
	.loc 2 1225 0
	.cfi_startproc
	pushq	%rbp
.LCFI52:
	.cfi_def_cfa_offset 16
	movq	%rsp, %rbp
	.cfi_offset 6, -16
.LCFI53:
	.cfi_def_cfa_register 6
	pushq	%rbx
	naclsspq	$136, %r15
	movl	%edi, -100(%rbp)
	movl	%esi, -104(%rbp)
	movl	%edx, -108(%rbp)
	.loc 2 1225 0
	movq	8(%rbp), %rsi
	movl	$arc_buf_destroy, %edi
	.cfi_offset 3, -24
	call	__cyg_profile_func_enter
	.loc 2 1229 0
	mov	-100(%rbp), %eax
	mov	%nacl:8(%r15,%rax), %eax
	testq	%rax, %rax
	je	.L187
.LBB21:
	.loc 2 1230 0
	mov	-100(%rbp), %eax
	mov	%nacl:(%r15,%rax), %eax
	movl	%nacl:172(%r15,%rax), %eax
	movl	%eax, -84(%rbp)
	.loc 2 1231 0
	mov	-100(%rbp), %eax
	mov	%nacl:(%r15,%rax), %eax
	movq	%nacl:160(%r15,%rax), %rax
	movq	%rax, -80(%rbp)
	.loc 2 1232 0
	mov	-100(%rbp), %eax
	mov	%nacl:(%r15,%rax), %eax
	movl	%nacl:152(%r15,%rax), %eax
	movl	%eax, -72(%rbp)
	.loc 2 1234 0
	movl	-100(%rbp), %eax
	movl	%eax, %edi
	call	arc_cksum_verify
	.loc 2 1235 0
	cmpl	$0, -104(%rbp)
	jne	.L188
	.loc 2 1236 0
	cmpl	$1, -72(%rbp)
	jne	.L189
	.loc 2 1237 0
	movq	-80(%rbp), %rax
	mov	-100(%rbp), %edx
	mov	%nacl:8(%r15,%rdx), %esi
	mov	-100(%rbp), %edx
	mov	%nacl:(%r15,%rdx), %ebx
	movl	%eax, %ecx
	movl	%esi, %edx
	movl	$zio_buf_free, %esi
	movl	%ebx, %edi
	call	arc_buf_data_free
	.loc 2 1239 0
	movq	-80(%rbp), %rax
	movq	%rax, %rdi
	call	arc_space_return
	jmp	.L188
	.align 32
.L189:
	.loc 2 1241 0
	cmpl	$0, -72(%rbp)
	je	.L190
	movl	$__PRETTY_FUNCTION__.10530, %ecx
	movl	$1241, %edx
	movl	$.LC3, %esi
	movl	$.LC53, %edi
	call	__assert_fail
	.align 32
.L190:
	.loc 2 1242 0
	movq	-80(%rbp), %rax
	mov	-100(%rbp), %edx
	mov	%nacl:8(%r15,%rdx), %esi
	mov	-100(%rbp), %edx
	mov	%nacl:(%r15,%rdx), %ebx
	movl	%eax, %ecx
	movl	%esi, %edx
	movl	$zio_data_buf_free, %esi
	movl	%ebx, %edi
	call	arc_buf_data_free
	.loc 2 1244 0
	movq	-80(%rbp), %rax
	negq	%rax
	movl	$arc_stats+1328, %edx
	mov	%edx, %edx
	movq	%rax, %rsi
	movl	%edx, %edi
	call	atomic_add_64
	.align 32
.L188:
	.loc 2 1247 0
	mov	-100(%rbp), %eax
	mov	%nacl:(%r15,%rax), %eax
	addl	$176, %eax
	mov	%eax, %eax
	movl	%eax, %edi
	call	list_link_active
	testl	%eax, %eax
	je	.L191
.LBB22:
	.loc 2 1248 0
	movl	-84(%rbp), %eax
	addl	$32, %eax
	mov	%eax, %eax
	movl	-72(%rbp), %edx
	sall	$3, %edx
	leal	(%rdx,%rax), %eax
	movl	%eax, -68(%rbp)
	.loc 2 1250 0
	mov	-100(%rbp), %eax
	mov	%nacl:(%r15,%rax), %eax
	addl	$192, %eax
	mov	%eax, %eax
	movl	%eax, %edi
	call	refcount_is_zero
	testl	%eax, %eax
	jne	.L192
	movl	$__PRETTY_FUNCTION__.10530, %ecx
	movl	$1250, %edx
	movl	$.LC3, %esi
	movl	$.LC54, %edi
	call	__assert_fail
	.align 32
.L192:
	.loc 2 1251 0
	mov	arc_anon(%rip), %eax
	cmpl	%eax, -84(%rbp)
	jne	.L193
	movl	$__PRETTY_FUNCTION__.10530, %ecx
	movl	$1251, %edx
	movl	$.LC3, %esi
	movl	$.LC55, %edi
	call	__assert_fail
	.align 32
.L193:
.LBB23:
	.loc 2 1253 0
	mov	-68(%rbp), %eax
	movq	%nacl:(%r15,%rax), %rax
	movq	%rax, -64(%rbp)
	movq	-80(%rbp), %rax
	movq	%rax, -56(%rbp)
	movq	-64(%rbp), %rax
	cmpq	-56(%rbp), %rax
	jae	.L194
.LBB24:
	naclsspq	$272, %r15
	leal	24(%rsp), %eax
	addq	$15, %rax
	shrq	$4, %rax
	salq	$4, %rax
	mov	%eax, %eax
	movl	%eax, -44(%rbp)
	movl	$.LC20, %eax
	mov	%eax, %ebx
	movl	-44(%rbp), %eax
	movq	-56(%rbp), %rdx
	movq	%rdx, 16(%rsp)
	movl	$.LC29, 8(%rsp)
	movq	-64(%rbp), %rdx
	movq	%rdx, (%rsp)
	movl	$.LC48, %r9d
	movl	$.LC29, %r8d
	movl	$.LC56, %ecx
	movl	%ebx, %edx
	movl	$256, %esi
	movl	%eax, %edi
	movl	$0, %eax
	call	snprintf
	movl	$.LC24, %eax
	mov	%eax, %ebx
	mov	stderr(%rip), %eax
	movl	-44(%rbp), %edx
	movl	%edx, %r9d
	movl	$__PRETTY_FUNCTION__.10530, %r8d
	movl	$1253, %ecx
	movl	$.LC3, %edx
	movl	%ebx, %esi
	movl	%eax, %edi
	movl	$0, %eax
	call	fprintf
	call	abort
	.align 32
.L194:
.LBE24:
.LBE23:
	.loc 2 1254 0
	movq	-80(%rbp), %rax
	negq	%rax
	mov	-68(%rbp), %edx
	movq	%rax, %rsi
	movl	%edx, %edi
	call	atomic_add_64
	.align 32
.L191:
.LBE22:
.LBB25:
	.loc 2 1256 0
	mov	-84(%rbp), %eax
	movq	%nacl:48(%r15,%rax), %rax
	movq	%rax, -40(%rbp)
	movq	-80(%rbp), %rax
	movq	%rax, -32(%rbp)
	movq	-40(%rbp), %rax
	cmpq	-32(%rbp), %rax
	jae	.L195
.LBB26:
	naclsspq	$272, %r15
	leal	24(%rsp), %eax
	addq	$15, %rax
	shrq	$4, %rax
	salq	$4, %rax
	mov	%eax, %eax
	movl	%eax, -20(%rbp)
	movl	$.LC20, %eax
	mov	%eax, %ebx
	movl	-20(%rbp), %eax
	movq	-32(%rbp), %rdx
	movq	%rdx, 16(%rsp)
	movl	$.LC29, 8(%rsp)
	movq	-40(%rbp), %rdx
	movq	%rdx, (%rsp)
	movl	$.LC48, %r9d
	movl	$.LC29, %r8d
	movl	$.LC57, %ecx
	movl	%ebx, %edx
	movl	$256, %esi
	movl	%eax, %edi
	movl	$0, %eax
	call	snprintf
	movl	$.LC24, %eax
	mov	%eax, %ebx
	mov	stderr(%rip), %eax
	movl	-20(%rbp), %edx
	movl	%edx, %r9d
	movl	$__PRETTY_FUNCTION__.10530, %r8d
	movl	$1256, %ecx
	movl	$.LC3, %edx
	movl	%ebx, %esi
	movl	%eax, %edi
	movl	$0, %eax
	call	fprintf
	call	abort
	.align 32
.L195:
.LBE26:
.LBE25:
	.loc 2 1257 0
	movq	-80(%rbp), %rax
	negq	%rax
	movl	-84(%rbp), %edx
	addl	$48, %edx
	mov	%edx, %edx
	movq	%rax, %rsi
	movl	%edx, %edi
	call	atomic_add_64
	.loc 2 1258 0
	mov	-100(%rbp), %eax
	movl	$0, %nacl:8(%r15,%rax)
	.loc 2 1259 0
	mov	-100(%rbp), %eax
	mov	%nacl:(%r15,%rax), %eax
	movl	%nacl:92(%r15,%rax), %eax
	testl	%eax, %eax
	jne	.L196
	movl	$__PRETTY_FUNCTION__.10530, %ecx
	movl	$1259, %edx
	movl	$.LC3, %esi
	movl	$.LC58, %edi
	call	__assert_fail
	.align 32
.L196:
	.loc 2 1260 0
	mov	-100(%rbp), %eax
	mov	%nacl:(%r15,%rax), %eax
	mov	-100(%rbp), %edx
	mov	%nacl:(%r15,%rdx), %edx
	movl	%nacl:92(%r15,%rdx), %edx
	subl	$1, %edx
	movl	%edx, %nacl:92(%r15,%rax)
	.align 32
.L187:
.LBE21:
	.loc 2 1264 0
	cmpl	$0, -108(%rbp)
	jne	.L197
	movl	$0, %ebx
	jmp	.L198
	.align 32
.L197:
	.loc 2 1268 0
	mov	-100(%rbp), %eax
	mov	%nacl:(%r15,%rax), %eax
	addl	$84, %eax
	movl	%eax, -88(%rbp)
	jmp	.L199
	.align 32
.L200:
	mov	-88(%rbp), %eax
	mov	%nacl:(%r15,%rax), %eax
	addl	$4, %eax
	movl	%eax, -88(%rbp)
	.align 32
.L199:
	mov	-88(%rbp), %eax
	mov	%nacl:(%r15,%rax), %eax
	cmpl	%eax, -100(%rbp)
	jne	.L200
	.loc 2 1270 0
	mov	-100(%rbp), %eax
	mov	%nacl:4(%r15,%rax), %edx
	mov	-88(%rbp), %eax
	movl	%edx, %nacl:(%r15,%rax)
	.loc 2 1272 0
	mov	-100(%rbp), %eax
	mov	%nacl:12(%r15,%rax), %eax
	testq	%rax, %rax
	je	.L201
	movl	$__PRETTY_FUNCTION__.10530, %ecx
	movl	$1272, %edx
	movl	$.LC3, %esi
	movl	$.LC59, %edi
	call	__assert_fail
	.align 32
.L201:
	.loc 2 1275 0
	mov	-100(%rbp), %eax
	movl	$0, %nacl:(%r15,%rax)
	.loc 2 1276 0
	mov	buf_cache(%rip), %edx
	movl	-100(%rbp), %eax
	movl	%eax, %esi
	movl	%edx, %edi
	call	umem_cache_free
	movl	$1, %ebx
	.align 32
.L198:
	movq	8(%rbp), %rsi
	movl	$arc_buf_destroy, %edi
	call	__cyg_profile_func_exit
	cmpl	$1, %ebx
	.loc 2 1277 0
	movq	-8(%rbp), %rbx
	movq	%rbp, %rsp
	popq	%r11
	naclrestbp	%r11d, %r15
	popq	%r11
	nacljmp	%r11d,%r15
	.cfi_endproc
.LFE29:
	.size	arc_buf_destroy, .-arc_buf_destroy
	.section	.rodata
.LC60:
	.string	"arc_anon"
.LC61:
	.string	"hdr->b_state"
.LC62:
	.string	"!((hdr)->b_flags & (1 << 10))"
.LC63:
	.string	"!(hdr->b_flags & (1 << 19))"
.LC64:
	.string	"!((hdr)->b_flags & (1 << 9))"
.LC65:
	.string	"buf->b_hdr != ((void *)0)"
	.align 8
.LC66:
	.string	"!list_link_active(&hdr->b_arc_node)"
.LC67:
	.string	"hdr->b_hash_next"
.LC68:
	.string	"hdr->b_acb"
	.text
	.align 32
	.type	arc_hdr_destroy, @function
arc_hdr_destroy:
.LFB30:
	.loc 2 1281 0
	.cfi_startproc
	pushq	%rbp
.LCFI54:
	.cfi_def_cfa_offset 16
	movq	%rsp, %rbp
	.cfi_offset 6, -16
.LCFI55:
	.cfi_def_cfa_register 6
	pushq	%rbx
	naclsspq	$104, %r15
	movl	%edi, -68(%rbp)
	.loc 2 1281 0
	movq	8(%rbp), %rsi
	movl	$arc_hdr_destroy, %edi
	.cfi_offset 3, -24
	call	__cyg_profile_func_enter
	.loc 2 1282 0
	movl	-68(%rbp), %eax
	addl	$192, %eax
	mov	%eax, %eax
	movl	%eax, %edi
	call	refcount_is_zero
	testl	%eax, %eax
	jne	.L207
	movl	$__PRETTY_FUNCTION__.10621, %ecx
	movl	$1282, %edx
	movl	$.LC3, %esi
	movl	$.LC50, %edi
	call	__assert_fail
	.align 32
.L207:
.LBB27:
	.loc 2 1283 0
	mov	-68(%rbp), %eax
	mov	%nacl:172(%r15,%rax), %eax
	movl	%eax, -56(%rbp)
	mov	arc_anon(%rip), %eax
	movl	%eax, -52(%rbp)
	movl	-56(%rbp), %eax
	cmpl	-52(%rbp), %eax
	je	.L208
.LBB28:
	naclsspq	$272, %r15
	leal	24(%rsp), %eax
	addq	$15, %rax
	shrq	$4, %rax
	salq	$4, %rax
	mov	%eax, %eax
	movl	%eax, -48(%rbp)
	mov	-52(%rbp), %ecx
	mov	-56(%rbp), %edx
	movl	$.LC20, %eax
	mov	%eax, %ebx
	movl	-48(%rbp), %eax
	movq	%rcx, 16(%rsp)
	movl	$.LC22, 8(%rsp)
	movq	%rdx, (%rsp)
	movl	$.LC60, %r9d
	movl	$.LC22, %r8d
	movl	$.LC61, %ecx
	movl	%ebx, %edx
	movl	$256, %esi
	movl	%eax, %edi
	movl	$0, %eax
	call	snprintf
	movl	$.LC24, %eax
	mov	%eax, %ebx
	mov	stderr(%rip), %eax
	movl	-48(%rbp), %edx
	movl	%edx, %r9d
	movl	$__PRETTY_FUNCTION__.10621, %r8d
	movl	$1283, %ecx
	movl	$.LC3, %edx
	movl	%ebx, %esi
	movl	%eax, %edi
	movl	$0, %eax
	call	fprintf
	call	abort
	.align 32
.L208:
.LBE28:
.LBE27:
	.loc 2 1284 0
	mov	-68(%rbp), %eax
	movl	%nacl:88(%r15,%rax), %eax
	andl	$1024, %eax
	testl	%eax, %eax
	je	.L209
	movl	$__PRETTY_FUNCTION__.10621, %ecx
	movl	$1284, %edx
	movl	$.LC3, %esi
	movl	$.LC62, %edi
	call	__assert_fail
	.align 32
.L209:
	.loc 2 1285 0
	mov	-68(%rbp), %eax
	movl	%nacl:88(%r15,%rax), %eax
	andl	$524288, %eax
	testl	%eax, %eax
	je	.L210
	movl	$__PRETTY_FUNCTION__.10621, %ecx
	movl	$1285, %edx
	movl	$.LC3, %esi
	movl	$.LC63, %edi
	call	__assert_fail
	.align 32
.L210:
	.loc 2 1287 0
	mov	-68(%rbp), %eax
	mov	%nacl:288(%r15,%rax), %eax
	testq	%rax, %rax
	je	.L211
	.loc 2 1288 0
	mov	l2arc_buflist_mtx(%rip), %ebx
	call	pthread_self
	mov	%eax, %eax
	cmpl	%eax, %ebx
	je	.L212
	.loc 2 1299 0
	movl	$l2arc_buflist_mtx, %edi
	call	mutex_enter
	.loc 2 1300 0
	mov	-68(%rbp), %eax
	mov	%nacl:288(%r15,%rax), %eax
	testq	%rax, %rax
	je	.L213
	.loc 2 1301 0
	mov	-68(%rbp), %eax
	mov	%nacl:288(%r15,%rax), %eax
	mov	%nacl:(%r15,%rax), %eax
	mov	%nacl:60(%r15,%rax), %edx
	movl	-68(%rbp), %eax
	movl	%eax, %esi
	movl	%edx, %edi
	call	list_remove
	.align 32
.L213:
	.loc 2 1304 0
	movl	$l2arc_buflist_mtx, %edi
	call	mutex_exit
	jmp	.L214
	.align 32
.L212:
	.loc 2 1306 0
	mov	-68(%rbp), %eax
	mov	%nacl:288(%r15,%rax), %eax
	mov	%nacl:(%r15,%rax), %eax
	mov	%nacl:60(%r15,%rax), %edx
	movl	-68(%rbp), %eax
	movl	%eax, %esi
	movl	%edx, %edi
	call	list_remove
	.align 32
.L214:
	.loc 2 1308 0
	mov	-68(%rbp), %eax
	movq	%nacl:160(%r15,%rax), %rax
	negq	%rax
	movl	$arc_stats+2096, %edx
	mov	%edx, %edx
	movq	%rax, %rsi
	movl	%edx, %edi
	call	atomic_add_64
	.loc 2 1309 0
	mov	-68(%rbp), %eax
	mov	%nacl:288(%r15,%rax), %eax
	movl	$8, %esi
	movl	%eax, %edi
	call	umem_free
	.loc 2 1310 0
	mov	-68(%rbp), %eax
	mov	%nacl:172(%r15,%rax), %edx
	mov	arc_l2c_only(%rip), %eax
	cmpl	%eax, %edx
	jne	.L215
	.loc 2 1311 0
	call	l2arc_hdr_stat_remove
	.align 32
.L215:
	.loc 2 1312 0
	mov	-68(%rbp), %eax
	movl	$0, %nacl:288(%r15,%rax)
	.align 32
.L211:
	.loc 2 1315 0
	mov	-68(%rbp), %eax
	movq	%nacl:(%r15,%rax), %rax
	testq	%rax, %rax
	jne	.L216
	mov	-68(%rbp), %eax
	movq	%nacl:8(%r15,%rax), %rax
	testq	%rax, %rax
	jne	.L216
	mov	-68(%rbp), %eax
	movq	%nacl:16(%r15,%rax), %rax
	testq	%rax, %rax
	je	.L228
	.align 32
.L216:
	.loc 2 1316 0
	mov	-68(%rbp), %eax
	movl	%nacl:88(%r15,%rax), %eax
	andl	$512, %eax
	testl	%eax, %eax
	je	.L218
	movl	$__PRETTY_FUNCTION__.10621, %ecx
	movl	$1316, %edx
	movl	$.LC3, %esi
	movl	$.LC64, %edi
	call	__assert_fail
	.align 32
.L218:
	.loc 2 1317 0
	mov	-68(%rbp), %eax
	movl	$16, %esi
	movl	%eax, %edi
	call	bzero
	.loc 2 1318 0
	mov	-68(%rbp), %eax
	movq	$0, %nacl:16(%r15,%rax)
	.loc 2 1319 0
	mov	-68(%rbp), %eax
	movq	$0, %nacl:24(%r15,%rax)
	.loc 2 1321 0
	jmp	.L219
	.align 32
.L222:
.LBB29:
	.loc 2 1322 0
	mov	-68(%rbp), %eax
	movl	%nacl:84(%r15,%rax), %eax
	movl	%eax, -44(%rbp)
	.loc 2 1324 0
	mov	-44(%rbp), %eax
	mov	%nacl:12(%r15,%rax), %eax
	testq	%rax, %rax
	je	.L220
	.loc 2 1325 0
	movl	$arc_eviction_mtx, %edi
	call	mutex_enter
	.loc 2 1326 0
	mov	-44(%rbp), %eax
	mov	%nacl:(%r15,%rax), %eax
	testq	%rax, %rax
	jne	.L221
	movl	$__PRETTY_FUNCTION__.10621, %ecx
	movl	$1326, %edx
	movl	$.LC3, %esi
	movl	$.LC65, %edi
	call	__assert_fail
	.align 32
.L221:
	.loc 2 1327 0
	mov	-68(%rbp), %eax
	mov	%nacl:84(%r15,%rax), %eax
	movl	$0, %edx
	movl	$0, %esi
	movl	%eax, %edi
	call	arc_buf_destroy
	.loc 2 1328 0
	mov	-44(%rbp), %eax
	mov	%nacl:4(%r15,%rax), %edx
	mov	-68(%rbp), %eax
	movl	%edx, %nacl:84(%r15,%rax)
	.loc 2 1329 0
	mov	-44(%rbp), %eax
	movl	$arc_eviction_hdr, %nacl:(%r15,%rax)
	.loc 2 1330 0
	mov	arc_eviction_list(%rip), %edx
	mov	-44(%rbp), %eax
	movl	%edx, %nacl:4(%r15,%rax)
	.loc 2 1331 0
	movl	-44(%rbp), %eax
	movl	%eax, arc_eviction_list(%rip)
	.loc 2 1332 0
	movl	$arc_eviction_mtx, %edi
	call	mutex_exit
	jmp	.L219
	.align 32
.L220:
	.loc 2 1334 0
	mov	-68(%rbp), %eax
	mov	%nacl:84(%r15,%rax), %eax
	movl	$1, %edx
	movl	$0, %esi
	movl	%eax, %edi
	call	arc_buf_destroy
	jmp	.L219
	.align 32
.L228:
.LBE29:
	.loc 2 1321 0
	nop
	.align 32
.L219:
	mov	-68(%rbp), %eax
	mov	%nacl:84(%r15,%rax), %eax
	testq	%rax, %rax
	jne	.L222
	.loc 2 1337 0
	mov	-68(%rbp), %eax
	mov	%nacl:76(%r15,%rax), %eax
	testq	%rax, %rax
	je	.L223
	.loc 2 1338 0
	mov	-68(%rbp), %eax
	mov	%nacl:76(%r15,%rax), %eax
	movl	$32, %esi
	movl	%eax, %edi
	call	umem_free
	.loc 2 1339 0
	mov	-68(%rbp), %eax
	movl	$0, %nacl:76(%r15,%rax)
	.align 32
.L223:
	.loc 2 1342 0
	movl	-68(%rbp), %eax
	addl	$176, %eax
	mov	%eax, %eax
	movl	%eax, %edi
	call	list_link_active
	testl	%eax, %eax
	je	.L224
	movl	$__PRETTY_FUNCTION__.10621, %ecx
	movl	$1342, %edx
	movl	$.LC3, %esi
	movl	$.LC66, %edi
	call	__assert_fail
	.align 32
.L224:
.LBB30:
	.loc 2 1343 0
	mov	-68(%rbp), %eax
	mov	%nacl:80(%r15,%rax), %eax
	movl	%eax, -40(%rbp)
	movl	$0, -36(%rbp)
	movl	-40(%rbp), %eax
	cmpl	-36(%rbp), %eax
	je	.L225
.LBB31:
	naclsspq	$272, %r15
	leal	24(%rsp), %eax
	addq	$15, %rax
	shrq	$4, %rax
	salq	$4, %rax
	mov	%eax, %eax
	movl	%eax, -32(%rbp)
	mov	-36(%rbp), %ecx
	mov	-40(%rbp), %edx
	movl	$.LC20, %eax
	mov	%eax, %ebx
	movl	-32(%rbp), %eax
	movq	%rcx, 16(%rsp)
	movl	$.LC22, 8(%rsp)
	movq	%rdx, (%rsp)
	movl	$.LC25, %r9d
	movl	$.LC22, %r8d
	movl	$.LC67, %ecx
	movl	%ebx, %edx
	movl	$256, %esi
	movl	%eax, %edi
	movl	$0, %eax
	call	snprintf
	movl	$.LC24, %eax
	mov	%eax, %ebx
	mov	stderr(%rip), %eax
	movl	-32(%rbp), %edx
	movl	%edx, %r9d
	movl	$__PRETTY_FUNCTION__.10621, %r8d
	movl	$1343, %ecx
	movl	$.LC3, %edx
	movl	%ebx, %esi
	movl	%eax, %edi
	movl	$0, %eax
	call	fprintf
	call	abort
	.align 32
.L225:
.LBE31:
.LBE30:
.LBB32:
	.loc 2 1344 0
	mov	-68(%rbp), %eax
	mov	%nacl:96(%r15,%rax), %eax
	movl	%eax, -28(%rbp)
	movl	$0, -24(%rbp)
	movl	-28(%rbp), %eax
	cmpl	-24(%rbp), %eax
	je	.L226
.LBB33:
	naclsspq	$272, %r15
	leal	24(%rsp), %eax
	addq	$15, %rax
	shrq	$4, %rax
	salq	$4, %rax
	mov	%eax, %eax
	movl	%eax, -20(%rbp)
	mov	-24(%rbp), %ecx
	mov	-28(%rbp), %edx
	movl	$.LC20, %eax
	mov	%eax, %ebx
	movl	-20(%rbp), %eax
	movq	%rcx, 16(%rsp)
	movl	$.LC22, 8(%rsp)
	movq	%rdx, (%rsp)
	movl	$.LC25, %r9d
	movl	$.LC22, %r8d
	movl	$.LC68, %ecx
	movl	%ebx, %edx
	movl	$256, %esi
	movl	%eax, %edi
	movl	$0, %eax
	call	snprintf
	movl	$.LC24, %eax
	mov	%eax, %ebx
	mov	stderr(%rip), %eax
	movl	-20(%rbp), %edx
	movl	%edx, %r9d
	movl	$__PRETTY_FUNCTION__.10621, %r8d
	movl	$1344, %ecx
	movl	$.LC3, %edx
	movl	%ebx, %esi
	movl	%eax, %edi
	movl	$0, %eax
	call	fprintf
	call	abort
	.align 32
.L226:
.LBE33:
.LBE32:
	.loc 2 1345 0
	mov	hdr_cache(%rip), %edx
	movl	-68(%rbp), %eax
	movl	%eax, %esi
	movl	%edx, %edi
	call	umem_cache_free
	movq	8(%rbp), %rsi
	movl	$arc_hdr_destroy, %edi
	call	__cyg_profile_func_exit
	.loc 2 1346 0
	movq	-8(%rbp), %rbx
	movq	%rbp, %rsp
	popq	%r11
	naclrestbp	%r11d, %r15
	popq	%r11
	nacljmp	%r11d,%r15
	.cfi_endproc
.LFE30:
	.size	arc_hdr_destroy, .-arc_hdr_destroy
	.section	.rodata
.LC69:
	.string	"buf->b_data != ((void *)0)"
.LC70:
	.string	"((hdr)->b_flags & (1 << 11))"
	.text
	.align 32
.globl arc_buf_free
	.type	arc_buf_free, @function
arc_buf_free:
.LFB31:
	.loc 2 1350 0
	.cfi_startproc
	pushq	%rbp
.LCFI56:
	.cfi_def_cfa_offset 16
	movq	%rsp, %rbp
	.cfi_offset 6, -16
.LCFI57:
	.cfi_def_cfa_register 6
	pushq	%rbx
	naclsspq	$40, %r15
	movl	%edi, -36(%rbp)
	movl	%esi, -40(%rbp)
	.loc 2 1350 0
	movq	8(%rbp), %rsi
	movl	$arc_buf_free, %edi
	.cfi_offset 3, -24
	call	__cyg_profile_func_enter
	.loc 2 1351 0
	mov	-36(%rbp), %eax
	movl	%nacl:(%r15,%rax), %eax
	movl	%eax, -32(%rbp)
	.loc 2 1352 0
	mov	-32(%rbp), %eax
	mov	%nacl:172(%r15,%rax), %edx
	mov	arc_anon(%rip), %eax
	cmpl	%eax, %edx
	setne	%al
	movzbl	%al, %eax
	movl	%eax, -28(%rbp)
	.loc 2 1354 0
	mov	-36(%rbp), %eax
	mov	%nacl:12(%r15,%rax), %eax
	testq	%rax, %rax
	je	.L230
	movl	$__PRETTY_FUNCTION__.10744, %ecx
	movl	$1354, %edx
	movl	$.LC3, %esi
	movl	$.LC59, %edi
	call	__assert_fail
	.align 32
.L230:
	.loc 2 1355 0
	mov	-36(%rbp), %eax
	mov	%nacl:8(%r15,%rax), %eax
	testq	%rax, %rax
	jne	.L231
	movl	$__PRETTY_FUNCTION__.10744, %ecx
	movl	$1355, %edx
	movl	$.LC3, %esi
	movl	$.LC69, %edi
	call	__assert_fail
	.align 32
.L231:
	.loc 2 1357 0
	cmpl	$0, -28(%rbp)
	je	.L232
.LBB34:
	.loc 2 1358 0
	mov	-32(%rbp), %eax
	movq	%nacl:16(%r15,%rax), %rax
	mov	-32(%rbp), %ebx
	mov	-32(%rbp), %edx
	mov	%nacl:168(%r15,%rdx), %ecx
	movq	%rax, %rdx
	movl	%ebx, %esi
	movl	%ecx, %edi
	call	buf_hash
	movq	buf_hash_table(%rip), %rdx
	andq	%rdx, %rax
	andl	$255, %eax
	sall	$6, %eax
	addl	$buf_hash_table, %eax
	addl	$12, %eax
	movl	%eax, -24(%rbp)
	.loc 2 1360 0
	movl	-24(%rbp), %eax
	movl	%eax, %edi
	call	mutex_enter
	.loc 2 1361 0
	movl	-40(%rbp), %edx
	movl	-24(%rbp), %ecx
	movl	-32(%rbp), %eax
	movl	%ecx, %esi
	movl	%eax, %edi
	call	remove_reference
	.loc 2 1362 0
	mov	-32(%rbp), %eax
	movl	%nacl:92(%r15,%rax), %eax
	cmpl	$1, %eax
	jbe	.L233
	.loc 2 1363 0
	movl	-36(%rbp), %eax
	movl	$1, %edx
	movl	$0, %esi
	movl	%eax, %edi
	call	arc_buf_destroy
	jmp	.L234
	.align 32
.L233:
	.loc 2 1365 0
	mov	-32(%rbp), %eax
	movl	%nacl:88(%r15,%rax), %eax
	movl	%eax, %edx
	orb	$32, %dh
	mov	-32(%rbp), %eax
	movl	%edx, %nacl:88(%r15,%rax)
	.align 32
.L234:
	.loc 2 1366 0
	movl	-24(%rbp), %eax
	movl	%eax, %edi
	call	mutex_exit
	jmp	.L235
	.align 32
.L232:
.LBE34:
	.loc 2 1367 0
	mov	-32(%rbp), %eax
	movl	%nacl:88(%r15,%rax), %eax
	andl	$1024, %eax
	testl	%eax, %eax
	je	.L236
.LBB35:
	.loc 2 1374 0
	movl	$arc_eviction_mtx, %edi
	call	mutex_enter
	.loc 2 1375 0
	movl	-40(%rbp), %edx
	movl	-32(%rbp), %eax
	movl	$0, %esi
	movl	%eax, %edi
	call	remove_reference
	.loc 2 1376 0
	movl	-32(%rbp), %eax
	addl	$192, %eax
	mov	%eax, %eax
	movl	%eax, %edi
	call	refcount_is_zero
	testl	%eax, %eax
	jne	.L237
	movl	$__PRETTY_FUNCTION__.10744, %ecx
	movl	$1376, %edx
	movl	$.LC3, %esi
	movl	$.LC50, %edi
	call	__assert_fail
	.align 32
.L237:
	.loc 2 1377 0
	mov	-32(%rbp), %eax
	movl	%nacl:88(%r15,%rax), %eax
	andl	$1024, %eax
	testl	%eax, %eax
	sete	%al
	movzbl	%al, %eax
	movl	%eax, -20(%rbp)
	.loc 2 1378 0
	movl	$arc_eviction_mtx, %edi
	call	mutex_exit
	.loc 2 1379 0
	cmpl	$0, -20(%rbp)
	je	.L242
	.loc 2 1380 0
	movl	-32(%rbp), %eax
	movl	%eax, %edi
	call	arc_hdr_destroy
	jmp	.L235
	.align 32
.L236:
.LBE35:
	.loc 2 1382 0
	movl	-40(%rbp), %edx
	movl	-32(%rbp), %eax
	movl	$0, %esi
	movl	%eax, %edi
	call	remove_reference
	testl	%eax, %eax
	jle	.L239
	.loc 2 1383 0
	mov	-32(%rbp), %eax
	movl	%nacl:88(%r15,%rax), %eax
	andl	$2048, %eax
	testl	%eax, %eax
	jne	.L240
	movl	$__PRETTY_FUNCTION__.10744, %ecx
	movl	$1383, %edx
	movl	$.LC3, %esi
	movl	$.LC70, %edi
	call	__assert_fail
	.align 32
.L240:
	.loc 2 1384 0
	movl	-36(%rbp), %eax
	movl	$1, %edx
	movl	$0, %esi
	movl	%eax, %edi
	call	arc_buf_destroy
	jmp	.L235
	.align 32
.L239:
	.loc 2 1386 0
	movl	-32(%rbp), %eax
	movl	%eax, %edi
	call	arc_hdr_destroy
	jmp	.L235
	.align 32
.L242:
.LBB36:
	.loc 2 1380 0
	nop
	.align 32
.L235:
.LBE36:
	.loc 2 1386 0
	movq	8(%rbp), %rsi
	movl	$arc_buf_free, %edi
	call	__cyg_profile_func_exit
	.loc 2 1389 0
	naclaspq	$40, %r15
	popq	%rbx
	popq	%r11
	naclrestbp	%r11d, %r15
	popq	%r11
	nacljmp	%r11d,%r15
	.cfi_endproc
.LFE31:
	.size	arc_buf_free, .-arc_buf_free
	.section	.rodata
.LC71:
	.string	"hdr->b_state != arc_anon"
	.align 8
.LC72:
	.string	"hdr->b_buf == buf && buf->b_next == ((void *)0)"
	.align 8
.LC73:
	.string	"no_callback || hdr->b_datacnt > 1 || refcount_is_zero(&hdr->b_refcnt)"
	.text
	.align 32
.globl arc_buf_remove_ref
	.type	arc_buf_remove_ref, @function
arc_buf_remove_ref:
.LFB32:
	.loc 2 1393 0
	.cfi_startproc
	pushq	%rbp
.LCFI58:
	.cfi_def_cfa_offset 16
	movq	%rsp, %rbp
	.cfi_offset 6, -16
.LCFI59:
	.cfi_def_cfa_register 6
	pushq	%rbx
	naclsspq	$40, %r15
	movl	%edi, -36(%rbp)
	movl	%esi, -40(%rbp)
	.loc 2 1393 0
	movq	8(%rbp), %rsi
	movl	$arc_buf_remove_ref, %edi
	.cfi_offset 3, -24
	call	__cyg_profile_func_enter
	.loc 2 1394 0
	mov	-36(%rbp), %eax
	movl	%nacl:(%r15,%rax), %eax
	movl	%eax, -28(%rbp)
	.loc 2 1395 0
	mov	-28(%rbp), %eax
	movq	%nacl:16(%r15,%rax), %rax
	mov	-28(%rbp), %ebx
	mov	-28(%rbp), %edx
	mov	%nacl:168(%r15,%rdx), %ecx
	movq	%rax, %rdx
	movl	%ebx, %esi
	movl	%ecx, %edi
	call	buf_hash
	movq	buf_hash_table(%rip), %rdx
	andq	%rdx, %rax
	andl	$255, %eax
	sall	$6, %eax
	addl	$buf_hash_table, %eax
	addl	$12, %eax
	movl	%eax, -24(%rbp)
	.loc 2 1396 0
	mov	-36(%rbp), %eax
	mov	%nacl:12(%r15,%rax), %eax
	testl	%eax, %eax
	sete	%al
	movzbl	%al, %eax
	movl	%eax, -20(%rbp)
	.loc 2 1398 0
	mov	-28(%rbp), %eax
	mov	%nacl:172(%r15,%rax), %edx
	mov	arc_anon(%rip), %eax
	cmpl	%eax, %edx
	jne	.L244
	.loc 2 1399 0
	movl	-40(%rbp), %edx
	movl	-36(%rbp), %eax
	movl	%edx, %esi
	movl	%eax, %edi
	call	arc_buf_free
	.loc 2 1400 0
	movl	-20(%rbp), %ebx
	jmp	.L245
	.align 32
.L244:
	.loc 2 1403 0
	movl	-24(%rbp), %eax
	movl	%eax, %edi
	call	mutex_enter
	.loc 2 1404 0
	mov	-28(%rbp), %eax
	mov	%nacl:172(%r15,%rax), %edx
	mov	arc_anon(%rip), %eax
	cmpl	%eax, %edx
	jne	.L246
	movl	$__PRETTY_FUNCTION__.10799, %ecx
	movl	$1404, %edx
	movl	$.LC3, %esi
	movl	$.LC71, %edi
	call	__assert_fail
	.align 32
.L246:
	.loc 2 1405 0
	mov	-36(%rbp), %eax
	mov	%nacl:8(%r15,%rax), %eax
	testq	%rax, %rax
	jne	.L247
	movl	$__PRETTY_FUNCTION__.10799, %ecx
	movl	$1405, %edx
	movl	$.LC3, %esi
	movl	$.LC69, %edi
	call	__assert_fail
	.align 32
.L247:
	.loc 2 1407 0
	movl	-40(%rbp), %edx
	movl	-24(%rbp), %ecx
	movl	-28(%rbp), %eax
	movl	%ecx, %esi
	movl	%eax, %edi
	call	remove_reference
	.loc 2 1408 0
	mov	-28(%rbp), %eax
	movl	%nacl:92(%r15,%rax), %eax
	cmpl	$1, %eax
	jbe	.L248
	.loc 2 1409 0
	cmpl	$0, -20(%rbp)
	je	.L255
	.loc 2 1410 0
	movl	-36(%rbp), %eax
	movl	$1, %edx
	movl	$0, %esi
	movl	%eax, %edi
	call	arc_buf_destroy
	jmp	.L250
	.align 32
.L248:
	.loc 2 1411 0
	cmpl	$0, -20(%rbp)
	je	.L250
	.loc 2 1412 0
	mov	-28(%rbp), %eax
	mov	%nacl:84(%r15,%rax), %eax
	cmpl	%eax, -36(%rbp)
	jne	.L251
	mov	-36(%rbp), %eax
	mov	%nacl:4(%r15,%rax), %eax
	testq	%rax, %rax
	je	.L252
	.align 32
.L251:
	movl	$__PRETTY_FUNCTION__.10799, %ecx
	movl	$1412, %edx
	movl	$.LC3, %esi
	movl	$.LC72, %edi
	call	__assert_fail
	.align 32
.L252:
	.loc 2 1413 0
	mov	-28(%rbp), %eax
	movl	%nacl:88(%r15,%rax), %eax
	movl	%eax, %edx
	orb	$32, %dh
	mov	-28(%rbp), %eax
	movl	%edx, %nacl:88(%r15,%rax)
	jmp	.L250
	.align 32
.L255:
	.loc 2 1410 0
	nop
	.align 32
.L250:
	.loc 2 1415 0
	cmpl	$0, -20(%rbp)
	jne	.L253
	mov	-28(%rbp), %eax
	movl	%nacl:92(%r15,%rax), %eax
	cmpl	$1, %eax
	ja	.L253
	movl	-28(%rbp), %eax
	addl	$192, %eax
	mov	%eax, %eax
	movl	%eax, %edi
	call	refcount_is_zero
	testl	%eax, %eax
	jne	.L253
	movl	$__PRETTY_FUNCTION__.10799, %ecx
	movl	$1416, %edx
	movl	$.LC3, %esi
	movl	$.LC73, %edi
	call	__assert_fail
	.align 32
.L253:
	.loc 2 1417 0
	movl	-24(%rbp), %eax
	movl	%eax, %edi
	call	mutex_exit
	.loc 2 1418 0
	movl	-20(%rbp), %ebx
	.align 32
.L245:
	movq	8(%rbp), %rsi
	movl	$arc_buf_remove_ref, %edi
	call	__cyg_profile_func_exit
	movl	%ebx, %eax
	.loc 2 1419 0
	naclaspq	$40, %r15
	popq	%rbx
	popq	%r11
	naclrestbp	%r11d, %r15
	popq	%r11
	nacljmp	%r11d,%r15
	.cfi_endproc
.LFE32:
	.size	arc_buf_remove_ref, .-arc_buf_remove_ref
	.align 32
.globl arc_buf_size
	.type	arc_buf_size, @function
arc_buf_size:
.LFB33:
	.loc 2 1423 0
	.cfi_startproc
	pushq	%rbp
.LCFI60:
	.cfi_def_cfa_offset 16
	movq	%rsp, %rbp
	.cfi_offset 6, -16
.LCFI61:
	.cfi_def_cfa_register 6
	pushq	%rbx
	naclsspq	$24, %r15
	movl	%edi, -20(%rbp)
	.loc 2 1423 0
	movq	8(%rbp), %rsi
	movl	$arc_buf_size, %edi
	.cfi_offset 3, -24
	call	__cyg_profile_func_enter
	.loc 2 1424 0
	mov	-20(%rbp), %eax
	mov	%nacl:(%r15,%rax), %eax
	movq	%nacl:160(%r15,%rax), %rax
	movl	%eax, %ebx
	movq	8(%rbp), %rsi
	movl	$arc_buf_size, %edi
	call	__cyg_profile_func_exit
	movl	%ebx, %eax
	.loc 2 1425 0
	naclaspq	$24, %r15
	popq	%rbx
	popq	%r11
	naclrestbp	%r11d, %r15
	popq	%r11
	nacljmp	%r11d,%r15
	.cfi_endproc
.LFE33:
	.size	arc_buf_size, .-arc_buf_size
	.section	.rodata
	.align 8
.LC74:
	.string	"state == arc_mru || state == arc_mfu"
.LC75:
	.string	"refcount_count(&ab->b_refcnt)"
.LC76:
	.string	"((ab)->b_flags & (1 << 9))"
	.align 8
.LC77:
	.string	"only evicted %lld bytes from %x"
	.text
	.align 32
	.type	arc_evict, @function
arc_evict:
.LFB34:
	.loc 2 1443 0
	.cfi_startproc
	pushq	%rbp
.LCFI62:
	.cfi_def_cfa_offset 16
	movq	%rsp, %rbp
	.cfi_offset 6, -16
.LCFI63:
	.cfi_def_cfa_register 6
	pushq	%rbx
	naclsspq	$184, %r15
	movl	%edi, -132(%rbp)
	movl	%esi, -136(%rbp)
	movq	%rdx, -144(%rbp)
	movl	%ecx, -148(%rbp)
	movl	%r8d, -152(%rbp)
	.loc 2 1443 0
	movq	8(%rbp), %rsi
	movl	$arc_evict, %edi
	.cfi_offset 3, -24
	call	__cyg_profile_func_enter
	.loc 2 1445 0
	movq	$0, -112(%rbp)
	movq	$0, -104(%rbp)
	movq	$0, -96(%rbp)
	.loc 2 1446 0
	movl	$0, -84(%rbp)
	.loc 2 1447 0
	mov	-132(%rbp), %eax
	movl	-152(%rbp), %edx
	sall	$4, %edx
	leal	(%rdx,%rax), %eax
	movl	%eax, -80(%rbp)
	.loc 2 1450 0
	movl	$0, -68(%rbp)
	.loc 2 1452 0
	mov	arc_mru(%rip), %eax
	cmpl	%eax, -132(%rbp)
	je	.L259
	mov	arc_mfu(%rip), %eax
	cmpl	%eax, -132(%rbp)
	je	.L259
	movl	$__PRETTY_FUNCTION__.10867, %ecx
	movl	$1452, %edx
	movl	$.LC3, %esi
	movl	$.LC74, %edi
	call	__assert_fail
	.align 32
.L259:
	.loc 2 1454 0
	mov	arc_mru(%rip), %eax
	cmpl	%eax, -132(%rbp)
	jne	.L260
	mov	arc_mru_ghost(%rip), %eax
	jmp	.L261
	.align 32
.L260:
	mov	arc_mfu_ghost(%rip), %eax
	.align 32
.L261:
	movl	%eax, -116(%rbp)
	.loc 2 1456 0
	movl	-132(%rbp), %eax
	addl	$56, %eax
	mov	%eax, %eax
	movl	%eax, %edi
	call	mutex_enter
	.loc 2 1457 0
	movl	-116(%rbp), %eax
	addl	$56, %eax
	mov	%eax, %eax
	movl	%eax, %edi
	call	mutex_enter
	.loc 2 1459 0
	movl	-80(%rbp), %eax
	movl	%eax, %edi
	call	list_tail
	mov	%eax, %eax
	movl	%eax, -88(%rbp)
	jmp	.L262
	.align 32
.L281:
	.loc 2 1460 0
	movl	-88(%rbp), %edx
	movl	-80(%rbp), %eax
	movl	%edx, %esi
	movl	%eax, %edi
	call	list_prev
	mov	%eax, %eax
	movl	%eax, -84(%rbp)
	.loc 2 1462 0
	mov	-88(%rbp), %eax
	movl	%nacl:88(%r15,%rax), %eax
	andl	$1024, %eax
	testl	%eax, %eax
	jne	.L263
	cmpl	$0, -136(%rbp)
	je	.L264
	.loc 2 1463 0
	mov	-88(%rbp), %eax
	mov	%nacl:168(%r15,%rax), %eax
	.loc 2 1462 0
	cmpl	%eax, -136(%rbp)
	jne	.L263
	.align 32
.L264:
	.loc 2 1464 0
	mov	-88(%rbp), %eax
	movl	%nacl:88(%r15,%rax), %eax
	andl	$16392, %eax
	.loc 2 1462 0
	testl	%eax, %eax
	je	.L265
	.loc 2 1465 0
	call	gethrtime
	movq	%rax, %rdx
	sarq	$23, %rdx
	mov	-88(%rbp), %eax
	movl	%nacl:184(%r15,%rax), %eax
	cltq
	subq	%rax, %rdx
	movl	arc_min_prefetch_lifespan(%rip), %eax
	cltq
	.loc 2 1462 0
	cmpq	%rax, %rdx
	jge	.L265
	.align 32
.L263:
	.loc 2 1466 0
	addq	$1, -104(%rbp)
	.loc 2 1467 0
	jmp	.L266
	.align 32
.L265:
	.loc 2 1470 0
	cmpl	$0, -148(%rbp)
	je	.L267
	mov	-88(%rbp), %eax
	movq	%nacl:160(%r15,%rax), %rdx
	movq	-144(%rbp), %rax
	cmpq	%rax, %rdx
	je	.L267
	cmpl	$0, -84(%rbp)
	je	.L267
	.loc 2 1471 0
	mov	-84(%rbp), %eax
	movq	%nacl:160(%r15,%rax), %rdx
	movq	-144(%rbp), %rax
	.loc 2 1470 0
	cmpq	%rax, %rdx
	je	.L288
	.align 32
.L267:
	.loc 2 1473 0
	mov	-88(%rbp), %eax
	movq	%nacl:16(%r15,%rax), %rax
	mov	-88(%rbp), %ebx
	mov	-88(%rbp), %edx
	mov	%nacl:168(%r15,%rdx), %ecx
	movq	%rax, %rdx
	movl	%ebx, %esi
	movl	%ecx, %edi
	call	buf_hash
	movq	buf_hash_table(%rip), %rdx
	andq	%rdx, %rax
	andl	$255, %eax
	sall	$6, %eax
	addl	$buf_hash_table, %eax
	addl	$12, %eax
	movl	%eax, -76(%rbp)
	.loc 2 1474 0
	mov	-76(%rbp), %eax
	mov	%nacl:(%r15,%rax), %ebx
	call	pthread_self
	mov	%eax, %eax
	cmpl	%eax, %ebx
	sete	%al
	movzbl	%al, %eax
	movl	%eax, -72(%rbp)
	.loc 2 1475 0
	cmpl	$0, -72(%rbp)
	jne	.L268
	movl	-76(%rbp), %eax
	movl	%eax, %edi
	call	mutex_tryenter
	testl	%eax, %eax
	je	.L269
	.align 32
.L268:
.LBB37:
	.loc 2 1476 0
	movl	-88(%rbp), %eax
	addl	$192, %eax
	mov	%eax, %eax
	movl	%eax, %edi
	call	refcount_count
	movq	%rax, -64(%rbp)
	movq	$0, -56(%rbp)
	movq	-64(%rbp), %rax
	cmpq	-56(%rbp), %rax
	je	.L270
.LBB38:
	naclsspq	$272, %r15
	leal	24(%rsp), %eax
	addq	$15, %rax
	shrq	$4, %rax
	salq	$4, %rax
	mov	%eax, %eax
	movl	%eax, -48(%rbp)
	movl	$.LC20, %eax
	mov	%eax, %ebx
	movl	-48(%rbp), %eax
	movq	-56(%rbp), %rdx
	movq	%rdx, 16(%rsp)
	movl	$.LC22, 8(%rsp)
	movq	-64(%rbp), %rdx
	movq	%rdx, (%rsp)
	movl	$.LC21, %r9d
	movl	$.LC22, %r8d
	movl	$.LC75, %ecx
	movl	%ebx, %edx
	movl	$256, %esi
	movl	%eax, %edi
	movl	$0, %eax
	call	snprintf
	movl	$.LC24, %eax
	mov	%eax, %ebx
	mov	stderr(%rip), %eax
	movl	-48(%rbp), %edx
	movl	%edx, %r9d
	movl	$__PRETTY_FUNCTION__.10867, %r8d
	movl	$1476, %ecx
	movl	$.LC3, %edx
	movl	%ebx, %esi
	movl	%eax, %edi
	movl	$0, %eax
	call	fprintf
	call	abort
	.align 32
.L270:
.LBE38:
.LBE37:
	.loc 2 1477 0
	mov	-88(%rbp), %eax
	movl	%nacl:92(%r15,%rax), %eax
	testl	%eax, %eax
	jne	.L289
	movl	$__PRETTY_FUNCTION__.10867, %ecx
	movl	$1477, %edx
	movl	$.LC3, %esi
	movl	$.LC35, %edi
	call	__assert_fail
	.align 32
.L275:
.LBB39:
	.loc 2 1479 0
	mov	-88(%rbp), %eax
	movl	%nacl:84(%r15,%rax), %eax
	movl	%eax, -44(%rbp)
	.loc 2 1480 0
	mov	-44(%rbp), %eax
	mov	%nacl:8(%r15,%rax), %eax
	testq	%rax, %rax
	je	.L273
	.loc 2 1481 0
	mov	-88(%rbp), %eax
	movq	%nacl:160(%r15,%rax), %rax
	addq	%rax, -112(%rbp)
	.loc 2 1482 0
	cmpl	$0, -148(%rbp)
	je	.L273
	mov	-88(%rbp), %eax
	movl	%nacl:152(%r15,%rax), %eax
	cmpl	-152(%rbp), %eax
	jne	.L273
	.loc 2 1483 0
	mov	-88(%rbp), %eax
	movq	%nacl:160(%r15,%rax), %rdx
	movq	-144(%rbp), %rax
	.loc 2 1482 0
	cmpq	%rax, %rdx
	jne	.L273
	.loc 2 1484 0
	mov	-88(%rbp), %eax
	movl	%nacl:88(%r15,%rax), %eax
	andl	$65536, %eax
	.loc 2 1482 0
	testl	%eax, %eax
	jne	.L273
	.loc 2 1485 0
	mov	-44(%rbp), %eax
	movl	%nacl:8(%r15,%rax), %eax
	movl	%eax, -68(%rbp)
	.loc 2 1486 0
	movl	$0, -148(%rbp)
	.align 32
.L273:
	.loc 2 1489 0
	mov	-44(%rbp), %eax
	mov	%nacl:12(%r15,%rax), %eax
	testq	%rax, %rax
	je	.L274
	.loc 2 1490 0
	movl	$arc_eviction_mtx, %edi
	call	mutex_enter
	.loc 2 1491 0
	mov	-44(%rbp), %eax
	mov	%nacl:8(%r15,%rax), %eax
	cmpl	%eax, -68(%rbp)
	sete	%al
	movzbl	%al, %ecx
	movl	-44(%rbp), %eax
	movl	$0, %edx
	movl	%ecx, %esi
	movl	%eax, %edi
	call	arc_buf_destroy
	.loc 2 1493 0
	mov	-44(%rbp), %eax
	mov	%nacl:4(%r15,%rax), %edx
	mov	-88(%rbp), %eax
	movl	%edx, %nacl:84(%r15,%rax)
	.loc 2 1494 0
	mov	-44(%rbp), %eax
	movl	$arc_eviction_hdr, %nacl:(%r15,%rax)
	.loc 2 1495 0
	mov	arc_eviction_list(%rip), %edx
	mov	-44(%rbp), %eax
	movl	%edx, %nacl:4(%r15,%rax)
	.loc 2 1496 0
	movl	-44(%rbp), %eax
	movl	%eax, arc_eviction_list(%rip)
	.loc 2 1497 0
	movl	$arc_eviction_mtx, %edi
	call	mutex_exit
	jmp	.L272
	.align 32
.L274:
	.loc 2 1499 0
	mov	-44(%rbp), %eax
	mov	%nacl:8(%r15,%rax), %eax
	cmpl	%eax, -68(%rbp)
	sete	%al
	movzbl	%al, %ecx
	movl	-44(%rbp), %eax
	movl	$1, %edx
	movl	%ecx, %esi
	movl	%eax, %edi
	call	arc_buf_destroy
	jmp	.L272
	.align 32
.L289:
.LBE39:
	.loc 2 1478 0
	nop
	.align 32
.L272:
	mov	-88(%rbp), %eax
	mov	%nacl:84(%r15,%rax), %eax
	testq	%rax, %rax
	jne	.L275
	.loc 2 1503 0
	mov	-88(%rbp), %eax
	movl	%nacl:92(%r15,%rax), %eax
	testl	%eax, %eax
	je	.L276
	movl	$__PRETTY_FUNCTION__.10867, %ecx
	movl	$1503, %edx
	movl	$.LC3, %esi
	movl	$.LC41, %edi
	call	__assert_fail
	.align 32
.L276:
	.loc 2 1504 0
	movl	-76(%rbp), %edx
	movl	-88(%rbp), %ecx
	movl	-116(%rbp), %eax
	movl	%ecx, %esi
	movl	%eax, %edi
	call	arc_change_state
	.loc 2 1505 0
	mov	-88(%rbp), %eax
	movl	%nacl:88(%r15,%rax), %eax
	andl	$512, %eax
	testl	%eax, %eax
	jne	.L277
	movl	$__PRETTY_FUNCTION__.10867, %ecx
	movl	$1505, %edx
	movl	$.LC3, %esi
	movl	$.LC76, %edi
	call	__assert_fail
	.align 32
.L277:
	.loc 2 1506 0
	mov	-88(%rbp), %eax
	movl	%nacl:88(%r15,%rax), %eax
	movl	%eax, %edx
	orb	$2, %dh
	mov	-88(%rbp), %eax
	movl	%edx, %nacl:88(%r15,%rax)
	.loc 2 1507 0
	mov	-88(%rbp), %eax
	movl	%nacl:88(%r15,%rax), %eax
	movl	%eax, %edx
	andb	$223, %dh
	mov	-88(%rbp), %eax
	movl	%edx, %nacl:88(%r15,%rax)
	.loc 2 1509 0
	cmpl	$0, -72(%rbp)
	jne	.L278
	.loc 2 1510 0
	movl	-76(%rbp), %eax
	movl	%eax, %edi
	call	mutex_exit
	.align 32
.L278:
	.loc 2 1511 0
	cmpq	$0, -144(%rbp)
	js	.L290
	movq	-144(%rbp), %rax
	cmpq	-112(%rbp), %rax
	ja	.L291
	.loc 2 1512 0
	jmp	.L280
	.align 32
.L269:
	.loc 2 1514 0
	addq	$1, -96(%rbp)
	jmp	.L266
	.align 32
.L288:
	.loc 2 1472 0
	nop
	jmp	.L266
	.align 32
.L290:
	.loc 2 1475 0
	nop
	jmp	.L266
	.align 32
.L291:
	nop
	.align 32
.L266:
	.loc 2 1459 0
	movl	-84(%rbp), %eax
	movl	%eax, -88(%rbp)
	.align 32
.L262:
	cmpl	$0, -88(%rbp)
	jne	.L281
	.align 32
.L280:
	.loc 2 1518 0
	movl	-116(%rbp), %eax
	addl	$56, %eax
	mov	%eax, %eax
	movl	%eax, %edi
	call	mutex_exit
	.loc 2 1519 0
	movl	-132(%rbp), %eax
	addl	$56, %eax
	mov	%eax, %eax
	movl	%eax, %edi
	call	mutex_exit
	.loc 2 1521 0
	movq	-144(%rbp), %rax
	cmpq	-112(%rbp), %rax
	jbe	.L282
	.loc 2 1522 0
	movl	zfs_flags(%rip), %eax
	andl	$1, %eax
	testb	%al, %al
	je	.L282
	movq	-112(%rbp), %rax
	movl	-132(%rbp), %edx
	movl	%edx, %r9d
	movq	%rax, %r8
	movl	$.LC77, %ecx
	movl	$1523, %edx
	movl	$__func__.10879, %esi
	movl	$.LC3, %edi
	movl	$0, %eax
	call	__dprintf
	.align 32
.L282:
	.loc 2 1525 0
	cmpq	$0, -104(%rbp)
	je	.L283
	.loc 2 1526 0
	movq	-104(%rbp), %rax
	movl	$arc_stats+848, %edx
	mov	%edx, %edx
	movq	%rax, %rsi
	movl	%edx, %edi
	call	atomic_add_64
	.align 32
.L283:
	.loc 2 1528 0
	cmpq	$0, -96(%rbp)
	je	.L284
	.loc 2 1529 0
	movq	-96(%rbp), %rax
	movl	$arc_stats+800, %edx
	mov	%edx, %edx
	movq	%rax, %rsi
	movl	%edx, %edi
	call	atomic_add_64
	.align 32
.L284:
	.loc 2 1535 0
	movl	arc_no_grow(%rip), %eax
	testl	%eax, %eax
	je	.L285
	.loc 2 1536 0
	mov	arc_mru_ghost(%rip), %eax
	movq	%nacl:48(%r15,%rax), %rdx
	mov	arc_mfu_ghost(%rip), %eax
	movq	%nacl:48(%r15,%rax), %rax
	addq	%rax, %rdx
	movq	arc_stats+1184(%rip), %rax
	.loc 2 1535 0
	cmpq	%rax, %rdx
	jbe	.L285
.LBB40:
	.loc 2 1537 0
	mov	arc_anon(%rip), %eax
	movq	%nacl:48(%r15,%rax), %rdx
	mov	arc_mru(%rip), %eax
	movq	%nacl:48(%r15,%rax), %rax
	addq	%rax, %rdx
	.loc 2 1538 0
	mov	arc_mru_ghost(%rip), %eax
	movq	%nacl:48(%r15,%rax), %rax
	addq	%rax, %rdx
	movq	arc_stats+1184(%rip), %rax
	.loc 2 1537 0
	movq	%rdx, %rcx
	subq	%rax, %rcx
	movq	%rcx, %rax
	.loc 2 1538 0
	movq	%rax, -40(%rbp)
	.loc 2 1540 0
	cmpq	$0, -40(%rbp)
	jle	.L286
	mov	arc_mru_ghost(%rip), %edx
	movl	-152(%rbp), %eax
	addl	$4, %eax
	sall	$3, %eax
	cltq
	leaq	(%rdx,%rax), %rax
	movq	%nacl:(%r15,%rax), %rax
	testq	%rax, %rax
	je	.L286
.LBB41:
	.loc 2 1542 0
	movq	-40(%rbp), %rdx
	mov	arc_mru_ghost(%rip), %ecx
	movl	-152(%rbp), %eax
	addl	$4, %eax
	sall	$3, %eax
	cltq
	leaq	(%rcx,%rax), %rax
	movq	%nacl:(%r15,%rax), %rax
	cmpq	%rax, %rdx
	cmovbe	%rdx, %rax
	movq	%rax, -32(%rbp)
	.loc 2 1543 0
	mov	arc_mru_ghost(%rip), %ecx
	movq	-32(%rbp), %rax
	movq	%rax, %rdx
	movl	$0, %esi
	movl	%ecx, %edi
	call	arc_evict_ghost
.LBE41:
	.loc 2 1540 0
	jmp	.L285
	.align 32
.L286:
	.loc 2 1544 0
	mov	arc_mfu_ghost(%rip), %edx
	movl	-152(%rbp), %eax
	addl	$4, %eax
	sall	$3, %eax
	cltq
	leaq	(%rdx,%rax), %rax
	movq	%nacl:(%r15,%rax), %rax
	testq	%rax, %rax
	je	.L285
.LBB42:
	.loc 2 1545 0
	mov	arc_mru_ghost(%rip), %eax
	movq	%nacl:48(%r15,%rax), %rdx
	mov	arc_mfu_ghost(%rip), %eax
	movq	%nacl:48(%r15,%rax), %rax
	addq	%rax, %rdx
	movq	arc_stats+1184(%rip), %rax
	subq	%rax, %rdx
	mov	arc_mfu_ghost(%rip), %ecx
	movl	-152(%rbp), %eax
	addl	$4, %eax
	sall	$3, %eax
	cltq
	leaq	(%rcx,%rax), %rax
	movq	%nacl:(%r15,%rax), %rax
	cmpq	%rax, %rdx
	cmovbe	%rdx, %rax
	movq	%rax, -24(%rbp)
	.loc 2 1548 0
	mov	arc_mfu_ghost(%rip), %ecx
	movq	-24(%rbp), %rax
	movq	%rax, %rdx
	movl	$0, %esi
	movl	%ecx, %edi
	call	arc_evict_ghost
	.align 32
.L285:
.LBE42:
.LBE40:
	.loc 2 1552 0
	mov	-68(%rbp), %ebx
	movq	8(%rbp), %rsi
	movl	$arc_evict, %edi
	call	__cyg_profile_func_exit
	movl	%ebx, %eax
	.loc 2 1553 0
	movq	-8(%rbp), %rbx
	movq	%rbp, %rsp
	popq	%r11
	naclrestbp	%r11d, %r15
	popq	%r11
	nacljmp	%r11d,%r15
	.cfi_endproc
.LFE34:
	.size	arc_evict, .-arc_evict
	.section	.rodata
	.align 8
.LC78:
	.string	"((state) == arc_mru_ghost || (state) == arc_mfu_ghost || (state) == arc_l2c_only)"
.LC79:
	.string	"!((ab)->b_flags & (1 << 10))"
.LC80:
	.string	"bytes >= 0"
	.align 8
.LC81:
	.string	"only deleted %lld bytes from %p"
	.text
	.align 32
	.type	arc_evict_ghost, @function
arc_evict_ghost:
.LFB35:
	.loc 2 1561 0
	.cfi_startproc
	pushq	%rbp
.LCFI64:
	.cfi_def_cfa_offset 16
	movq	%rsp, %rbp
	.cfi_offset 6, -16
.LCFI65:
	.cfi_def_cfa_register 6
	pushq	%rbx
	naclsspq	$56, %r15
	movl	%edi, -52(%rbp)
	movl	%esi, -56(%rbp)
	movq	%rdx, -64(%rbp)
	.loc 2 1561 0
	movq	8(%rbp), %rsi
	movl	$arc_evict_ghost, %edi
	.cfi_offset 3, -24
	call	__cyg_profile_func_enter
	.loc 2 1563 0
	movl	-52(%rbp), %eax
	movl	%eax, -40(%rbp)
	.loc 2 1565 0
	movq	$0, -32(%rbp)
	.loc 2 1566 0
	movq	$0, -24(%rbp)
	.loc 2 1568 0
	mov	arc_mru_ghost(%rip), %eax
	cmpl	%eax, -52(%rbp)
	je	.L293
	mov	arc_mfu_ghost(%rip), %eax
	cmpl	%eax, -52(%rbp)
	je	.L293
	mov	arc_l2c_only(%rip), %eax
	cmpl	%eax, -52(%rbp)
	je	.L293
	movl	$__PRETTY_FUNCTION__.11085, %ecx
	movl	$1568, %edx
	movl	$.LC3, %esi
	movl	$.LC78, %edi
	call	__assert_fail
	.align 32
.L293:
	.loc 2 1570 0
	movl	-52(%rbp), %eax
	addl	$56, %eax
	mov	%eax, %eax
	movl	%eax, %edi
	call	mutex_enter
	.loc 2 1571 0
	movl	-40(%rbp), %eax
	movl	%eax, %edi
	call	list_tail
	mov	%eax, %eax
	movl	%eax, -48(%rbp)
	jmp	.L294
	.align 32
.L305:
	.loc 2 1572 0
	movl	-48(%rbp), %edx
	movl	-40(%rbp), %eax
	movl	%edx, %esi
	movl	%eax, %edi
	call	list_prev
	mov	%eax, %eax
	movl	%eax, -44(%rbp)
	.loc 2 1573 0
	cmpl	$0, -56(%rbp)
	je	.L295
	mov	-48(%rbp), %eax
	mov	%nacl:168(%r15,%rax), %eax
	cmpl	%eax, -56(%rbp)
	jne	.L311
	.align 32
.L295:
	.loc 2 1575 0
	mov	-48(%rbp), %eax
	movq	%nacl:16(%r15,%rax), %rax
	mov	-48(%rbp), %ebx
	mov	-48(%rbp), %edx
	mov	%nacl:168(%r15,%rdx), %ecx
	movq	%rax, %rdx
	movl	%ebx, %esi
	movl	%ecx, %edi
	call	buf_hash
	movq	buf_hash_table(%rip), %rdx
	andq	%rdx, %rax
	andl	$255, %eax
	sall	$6, %eax
	addl	$buf_hash_table, %eax
	addl	$12, %eax
	movl	%eax, -36(%rbp)
	.loc 2 1576 0
	movl	-36(%rbp), %eax
	movl	%eax, %edi
	call	mutex_tryenter
	testl	%eax, %eax
	je	.L297
	.loc 2 1577 0
	mov	-48(%rbp), %eax
	movl	%nacl:88(%r15,%rax), %eax
	andl	$1024, %eax
	testl	%eax, %eax
	je	.L298
	movl	$__PRETTY_FUNCTION__.11085, %ecx
	movl	$1577, %edx
	movl	$.LC3, %esi
	movl	$.LC79, %edi
	call	__assert_fail
	.align 32
.L298:
	.loc 2 1578 0
	mov	-48(%rbp), %eax
	mov	%nacl:84(%r15,%rax), %eax
	testq	%rax, %rax
	je	.L299
	movl	$__PRETTY_FUNCTION__.11085, %ecx
	movl	$1578, %edx
	movl	$.LC3, %esi
	movl	$.LC39, %edi
	call	__assert_fail
	.align 32
.L299:
	.loc 2 1579 0
	movl	$arc_stats+704, %eax
	mov	%eax, %eax
	movl	$1, %esi
	movl	%eax, %edi
	call	atomic_add_64
	.loc 2 1580 0
	mov	-48(%rbp), %eax
	movq	%nacl:160(%r15,%rax), %rax
	addq	%rax, -32(%rbp)
	.loc 2 1582 0
	mov	-48(%rbp), %eax
	mov	%nacl:288(%r15,%rax), %eax
	testq	%rax, %rax
	je	.L300
	.loc 2 1587 0
	mov	arc_l2c_only(%rip), %ecx
	movl	-36(%rbp), %edx
	movl	-48(%rbp), %eax
	movl	%eax, %esi
	movl	%ecx, %edi
	call	arc_change_state
	.loc 2 1588 0
	movl	-36(%rbp), %eax
	movl	%eax, %edi
	call	mutex_exit
	jmp	.L301
	.align 32
.L300:
	.loc 2 1590 0
	mov	arc_anon(%rip), %ecx
	movl	-36(%rbp), %edx
	movl	-48(%rbp), %eax
	movl	%eax, %esi
	movl	%ecx, %edi
	call	arc_change_state
	.loc 2 1591 0
	movl	-36(%rbp), %eax
	movl	%eax, %edi
	call	mutex_exit
	.loc 2 1592 0
	movl	-48(%rbp), %eax
	movl	%eax, %edi
	call	arc_hdr_destroy
	.align 32
.L301:
	.loc 2 1596 0
	cmpq	$0, -64(%rbp)
	js	.L312
	movq	-64(%rbp), %rax
	cmpq	-32(%rbp), %rax
	ja	.L313
	.loc 2 1597 0
	jmp	.L303
	.align 32
.L297:
	.loc 2 1599 0
	cmpq	$0, -64(%rbp)
	jns	.L304
	.loc 2 1600 0
	movl	-52(%rbp), %eax
	addl	$56, %eax
	mov	%eax, %eax
	movl	%eax, %edi
	call	mutex_exit
	.loc 2 1601 0
	movl	-36(%rbp), %eax
	movl	%eax, %edi
	call	mutex_enter
	.loc 2 1602 0
	movl	-36(%rbp), %eax
	movl	%eax, %edi
	call	mutex_exit
	.loc 2 1603 0
	jmp	.L293
	.align 32
.L304:
	.loc 2 1605 0
	addq	$1, -24(%rbp)
	jmp	.L296
	.align 32
.L311:
	.loc 2 1574 0
	nop
	jmp	.L296
	.align 32
.L312:
	.loc 2 1597 0
	nop
	jmp	.L296
	.align 32
.L313:
	nop
	.align 32
.L296:
	.loc 2 1571 0
	movl	-44(%rbp), %eax
	movl	%eax, -48(%rbp)
	.align 32
.L294:
	cmpl	$0, -48(%rbp)
	jne	.L305
	.align 32
.L303:
	.loc 2 1608 0
	movl	-52(%rbp), %eax
	addl	$56, %eax
	mov	%eax, %eax
	movl	%eax, %edi
	call	mutex_exit
	.loc 2 1610 0
	mov	-52(%rbp), %eax
	cmpl	%eax, -40(%rbp)
	jne	.L306
	cmpq	$0, -64(%rbp)
	js	.L307
	.loc 2 1611 0
	movq	-64(%rbp), %rax
	.loc 2 1610 0
	cmpq	-32(%rbp), %rax
	jbe	.L306
	.align 32
.L307:
	.loc 2 1612 0
	movl	-52(%rbp), %eax
	addl	$16, %eax
	movl	%eax, -40(%rbp)
	.loc 2 1613 0
	jmp	.L293
	.align 32
.L306:
	.loc 2 1616 0
	cmpq	$0, -24(%rbp)
	je	.L308
	.loc 2 1617 0
	movq	-24(%rbp), %rax
	movl	$arc_stats+800, %edx
	mov	%edx, %edx
	movq	%rax, %rsi
	movl	%edx, %edi
	call	atomic_add_64
	.loc 2 1618 0
	cmpq	$0, -64(%rbp)
	jns	.L308
	movl	$__PRETTY_FUNCTION__.11085, %ecx
	movl	$1618, %edx
	movl	$.LC3, %esi
	movl	$.LC80, %edi
	call	__assert_fail
	.align 32
.L308:
	.loc 2 1621 0
	movq	-64(%rbp), %rax
	cmpq	-32(%rbp), %rax
	jbe	.L309
	.loc 2 1622 0
	movl	zfs_flags(%rip), %eax
	andl	$1, %eax
	testb	%al, %al
	je	.L309
	movq	-32(%rbp), %rax
	movl	-52(%rbp), %edx
	movl	%edx, %r9d
	movq	%rax, %r8
	movl	$.LC81, %ecx
	movl	$1623, %edx
	movl	$__func__.11091, %esi
	movl	$.LC3, %edi
	movl	$0, %eax
	call	__dprintf
	.align 32
.L309:
	movq	8(%rbp), %rsi
	movl	$arc_evict_ghost, %edi
	call	__cyg_profile_func_exit
	.loc 2 1624 0
	naclaspq	$56, %r15
	popq	%rbx
	popq	%r11
	naclrestbp	%r11d, %r15
	popq	%r11
	nacljmp	%r11d,%r15
	.cfi_endproc
.LFE35:
	.size	arc_evict_ghost, .-arc_evict_ghost
	.align 32
	.type	arc_adjust, @function
arc_adjust:
.LFB36:
	.loc 2 1628 0
	.cfi_startproc
	pushq	%rbp
.LCFI66:
	.cfi_def_cfa_offset 16
	movq	%rsp, %rbp
	.cfi_offset 6, -16
.LCFI67:
	.cfi_def_cfa_register 6
	pushq	%rbx
	naclsspq	$88, %r15
	.loc 2 1628 0
	movq	8(%rbp), %rsi
	movl	$arc_adjust, %edi
	.cfi_offset 3, -24
	call	__cyg_profile_func_enter
	.loc 2 1631 0
	mov	arc_anon(%rip), %eax
	movq	%nacl:48(%r15,%rax), %rdx
	mov	arc_mru(%rip), %eax
	movq	%nacl:48(%r15,%rax), %rax
	addq	%rax, %rdx
	movq	arc_meta_used(%rip), %rax
	leaq	(%rdx,%rax), %rax
	movq	%rax, -88(%rbp)
	.loc 2 1633 0
	movq	-88(%rbp), %rdx
	movq	arc_stats+1136(%rip), %rax
	cmpq	%rax, %rdx
	jbe	.L315
	mov	arc_mru(%rip), %eax
	movq	%nacl:32(%r15,%rax), %rax
	testq	%rax, %rax
	je	.L315
.LBB43:
	.loc 2 1635 0
	movq	-88(%rbp), %rdx
	movq	arc_stats+1136(%rip), %rax
	subq	%rax, %rdx
	mov	arc_mru(%rip), %eax
	movq	%nacl:32(%r15,%rax), %rax
	cmpq	%rax, %rdx
	cmovbe	%rdx, %rax
	movq	%rax, -56(%rbp)
	.loc 2 1636 0
	mov	arc_mru(%rip), %ebx
	movq	-56(%rbp), %rax
	movl	$0, %r8d
	movl	$0, %ecx
	movq	%rax, %rdx
	movl	$0, %esi
	movl	%ebx, %edi
	call	arc_evict
	.loc 2 1637 0
	mov	arc_anon(%rip), %eax
	movq	%nacl:48(%r15,%rax), %rdx
	mov	arc_mru(%rip), %eax
	movq	%nacl:48(%r15,%rax), %rax
	leaq	(%rdx,%rax), %rax
	movq	%rax, -88(%rbp)
	.align 32
.L315:
.LBE43:
	.loc 2 1640 0
	movq	-88(%rbp), %rdx
	movq	arc_stats+1136(%rip), %rax
	cmpq	%rax, %rdx
	jbe	.L316
	mov	arc_mru(%rip), %eax
	movq	%nacl:40(%r15,%rax), %rax
	testq	%rax, %rax
	je	.L316
.LBB44:
	.loc 2 1642 0
	movq	-88(%rbp), %rdx
	movq	arc_stats+1136(%rip), %rax
	subq	%rax, %rdx
	mov	arc_mru(%rip), %eax
	movq	%nacl:40(%r15,%rax), %rax
	cmpq	%rax, %rdx
	cmovbe	%rdx, %rax
	movq	%rax, -48(%rbp)
	.loc 2 1643 0
	mov	arc_mru(%rip), %ebx
	movq	-48(%rbp), %rax
	movl	$1, %r8d
	movl	$0, %ecx
	movq	%rax, %rdx
	movl	$0, %esi
	movl	%ebx, %edi
	call	arc_evict
	.loc 2 1645 0
	mov	arc_anon(%rip), %eax
	movq	%nacl:48(%r15,%rax), %rdx
	mov	arc_mru(%rip), %eax
	movq	%nacl:48(%r15,%rax), %rax
	leaq	(%rdx,%rax), %rax
	movq	%rax, -88(%rbp)
	.align 32
.L316:
.LBE44:
	.loc 2 1648 0
	mov	arc_mru_ghost(%rip), %eax
	movq	%nacl:48(%r15,%rax), %rdx
	movq	-88(%rbp), %rax
	addq	%rax, %rdx
	movq	arc_stats+1184(%rip), %rax
	movq	%rdx, %rcx
	subq	%rax, %rcx
	movq	%rcx, %rax
	movq	%rax, -80(%rbp)
	.loc 2 1650 0
	cmpq	$0, -80(%rbp)
	jle	.L317
	.loc 2 1651 0
	mov	arc_mru_ghost(%rip), %eax
	movq	%nacl:48(%r15,%rax), %rax
	testq	%rax, %rax
	je	.L317
	.loc 2 1652 0
	movq	-80(%rbp), %rdx
	mov	arc_mru_ghost(%rip), %eax
	movq	%nacl:48(%r15,%rax), %rax
	cmpq	%rax, %rdx
	cmovbe	%rdx, %rax
	movq	%rax, -64(%rbp)
	.loc 2 1653 0
	mov	arc_mru_ghost(%rip), %ecx
	movq	-64(%rbp), %rax
	movq	%rax, %rdx
	movl	$0, %esi
	movl	%ecx, %edi
	call	arc_evict_ghost
	.align 32
.L317:
	.loc 2 1657 0
	movq	arc_stats+1328(%rip), %rdx
	movq	arc_stats+1184(%rip), %rax
	movq	%rdx, %rcx
	subq	%rax, %rcx
	movq	%rcx, %rax
	movq	%rax, -72(%rbp)
	cmpq	$0, -72(%rbp)
	jle	.L318
.LBB45:
	.loc 2 1660 0
	mov	arc_mfu(%rip), %eax
	movq	%nacl:32(%r15,%rax), %rax
	testq	%rax, %rax
	je	.L319
.LBB46:
	.loc 2 1662 0
	movq	-72(%rbp), %rdx
	mov	arc_mfu(%rip), %eax
	movq	%nacl:32(%r15,%rax), %rax
	cmpq	%rax, %rdx
	cmovbe	%rdx, %rax
	movq	%rax, -32(%rbp)
	.loc 2 1663 0
	mov	arc_mfu(%rip), %ebx
	movq	-32(%rbp), %rax
	movl	$0, %r8d
	movl	$0, %ecx
	movq	%rax, %rdx
	movl	$0, %esi
	movl	%ebx, %edi
	call	arc_evict
	.loc 2 1665 0
	movq	arc_stats+1328(%rip), %rdx
	movq	arc_stats+1184(%rip), %rax
	movq	%rdx, %rcx
	subq	%rax, %rcx
	movq	%rcx, %rax
	movq	%rax, -72(%rbp)
	.align 32
.L319:
.LBE46:
	.loc 2 1668 0
	cmpq	$0, -72(%rbp)
	jle	.L320
	.loc 2 1669 0
	mov	arc_mfu(%rip), %eax
	movq	%nacl:40(%r15,%rax), %rax
	.loc 2 1668 0
	testq	%rax, %rax
	je	.L320
.LBB47:
	.loc 2 1671 0
	movq	-72(%rbp), %rdx
	mov	arc_mfu(%rip), %eax
	movq	%nacl:40(%r15,%rax), %rax
	cmpq	%rax, %rdx
	cmovbe	%rdx, %rax
	movq	%rax, -24(%rbp)
	.loc 2 1673 0
	mov	arc_mfu(%rip), %ebx
	movq	-24(%rbp), %rax
	movl	$1, %r8d
	movl	$0, %ecx
	movq	%rax, %rdx
	movl	$0, %esi
	movl	%ebx, %edi
	call	arc_evict
	.align 32
.L320:
.LBE47:
	.loc 2 1677 0
	movq	arc_stats+1328(%rip), %rdx
	mov	arc_mru_ghost(%rip), %eax
	movq	%nacl:48(%r15,%rax), %rax
	addq	%rax, %rdx
	.loc 2 1678 0
	mov	arc_mfu_ghost(%rip), %eax
	movq	%nacl:48(%r15,%rax), %rax
	addq	%rax, %rdx
	movq	arc_stats+1184(%rip), %rax
	addq	%rax, %rax
	.loc 2 1677 0
	movq	%rdx, %rcx
	subq	%rax, %rcx
	movq	%rcx, %rax
	movq	%rax, -40(%rbp)
	.loc 2 1680 0
	cmpq	$0, -40(%rbp)
	jle	.L318
	mov	arc_mfu_ghost(%rip), %eax
	movq	%nacl:48(%r15,%rax), %rax
	testq	%rax, %rax
	je	.L318
	.loc 2 1681 0
	movq	-40(%rbp), %rdx
	mov	arc_mfu_ghost(%rip), %eax
	movq	%nacl:48(%r15,%rax), %rax
	cmpq	%rax, %rdx
	cmovbe	%rdx, %rax
	movq	%rax, -64(%rbp)
	.loc 2 1682 0
	mov	arc_mfu_ghost(%rip), %ecx
	movq	-64(%rbp), %rax
	movq	%rax, %rdx
	movl	$0, %esi
	movl	%ecx, %edi
	call	arc_evict_ghost
	.align 32
.L318:
	movq	8(%rbp), %rsi
	movl	$arc_adjust, %edi
	call	__cyg_profile_func_exit
.LBE45:
	.loc 2 1685 0
	naclaspq	$88, %r15
	popq	%rbx
	popq	%r11
	naclrestbp	%r11d, %r15
	popq	%r11
	nacljmp	%r11d,%r15
	.cfi_endproc
.LFE36:
	.size	arc_adjust, .-arc_adjust
	.section	.rodata
.LC82:
	.string	"buf->b_efunc(buf) == 0"
	.text
	.align 32
	.type	arc_do_user_evicts, @function
arc_do_user_evicts:
.LFB37:
	.loc 2 1689 0
	.cfi_startproc
	pushq	%rbp
.LCFI68:
	.cfi_def_cfa_offset 16
	movq	%rsp, %rbp
	.cfi_offset 6, -16
.LCFI69:
	.cfi_def_cfa_register 6
	pushq	%rbx
	naclsspq	$24, %r15
	.loc 2 1689 0
	movq	8(%rbp), %rsi
	movl	$arc_do_user_evicts, %edi
	.cfi_offset 3, -24
	call	__cyg_profile_func_enter
	.loc 2 1690 0
	movl	$arc_eviction_mtx, %edi
	call	mutex_enter
	.loc 2 1691 0
	jmp	.L323
	.align 32
.L325:
.LBB48:
	.loc 2 1692 0
	movl	arc_eviction_list(%rip), %eax
	movl	%eax, -20(%rbp)
	.loc 2 1693 0
	mov	-20(%rbp), %eax
	mov	%nacl:4(%r15,%rax), %eax
	movl	%eax, arc_eviction_list(%rip)
	.loc 2 1694 0
	mov	-20(%rbp), %eax
	movl	$0, %nacl:(%r15,%rax)
	.loc 2 1695 0
	movl	$arc_eviction_mtx, %edi
	call	mutex_exit
	.loc 2 1697 0
	mov	-20(%rbp), %eax
	mov	%nacl:12(%r15,%rax), %eax
	testq	%rax, %rax
	je	.L324
	.loc 2 1698 0
	mov	-20(%rbp), %eax
	mov	%nacl:12(%r15,%rax), %eax
	movl	-20(%rbp), %edx
	movl	%edx, %edi
	naclcall	%eax,%r15
	testl	%eax, %eax
	je	.L324
	movl	$.LC24, %eax
	mov	%eax, %ebx
	mov	stderr(%rip), %eax
	movl	$.LC82, %r9d
	movl	$__PRETTY_FUNCTION__.11295, %r8d
	movl	$1698, %ecx
	movl	$.LC3, %edx
	movl	%ebx, %esi
	movl	%eax, %edi
	movl	$0, %eax
	call	fprintf
	call	abort
	.align 32
.L324:
	.loc 2 1700 0
	mov	-20(%rbp), %eax
	movl	$0, %nacl:12(%r15,%rax)
	.loc 2 1701 0
	mov	-20(%rbp), %eax
	movl	$0, %nacl:16(%r15,%rax)
	.loc 2 1702 0
	mov	buf_cache(%rip), %edx
	movl	-20(%rbp), %eax
	movl	%eax, %esi
	movl	%edx, %edi
	call	umem_cache_free
	.loc 2 1703 0
	movl	$arc_eviction_mtx, %edi
	call	mutex_enter
	.align 32
.L323:
.LBE48:
	.loc 2 1691 0
	mov	arc_eviction_list(%rip), %eax
	testq	%rax, %rax
	jne	.L325
	.loc 2 1705 0
	movl	$arc_eviction_mtx, %edi
	call	mutex_exit
	movq	8(%rbp), %rsi
	movl	$arc_do_user_evicts, %edi
	call	__cyg_profile_func_exit
	.loc 2 1706 0
	naclaspq	$24, %r15
	popq	%rbx
	popq	%r11
	naclrestbp	%r11d, %r15
	popq	%r11
	nacljmp	%r11d,%r15
	.cfi_endproc
.LFE37:
	.size	arc_do_user_evicts, .-arc_do_user_evicts
	.section	.rodata
	.align 8
.LC83:
	.string	"spa || arc_eviction_list == ((void *)0)"
	.text
	.align 32
.globl arc_flush
	.type	arc_flush, @function
arc_flush:
.LFB38:
	.loc 2 1714 0
	.cfi_startproc
	pushq	%rbp
.LCFI70:
	.cfi_def_cfa_offset 16
	movq	%rsp, %rbp
	.cfi_offset 6, -16
.LCFI71:
	.cfi_def_cfa_register 6
	pushq	%rbx
	naclsspq	$24, %r15
	movl	%edi, -20(%rbp)
	.loc 2 1714 0
	movq	8(%rbp), %rsi
	movl	$arc_flush, %edi
	.cfi_offset 3, -24
	call	__cyg_profile_func_enter
	.loc 2 1715 0
	jmp	.L328
	.align 32
.L330:
	.loc 2 1716 0
	mov	arc_mru(%rip), %ebx
	movl	-20(%rbp), %eax
	movl	$0, %r8d
	movl	$0, %ecx
	movq	$-1, %rdx
	movl	%eax, %esi
	movl	%ebx, %edi
	call	arc_evict
	.loc 2 1717 0
	cmpl	$0, -20(%rbp)
	je	.L328
	.loc 2 1718 0
	nop
	.loc 2 1720 0
	jmp	.L331
	.align 32
.L328:
	.loc 2 1715 0
	mov	arc_mru(%rip), %eax
	movl	%eax, %edi
	call	list_head
	mov	%eax, %eax
	testq	%rax, %rax
	jne	.L330
	.loc 2 1720 0
	jmp	.L331
	.align 32
.L333:
	.loc 2 1721 0
	mov	arc_mru(%rip), %ebx
	movl	-20(%rbp), %eax
	movl	$1, %r8d
	movl	$0, %ecx
	movq	$-1, %rdx
	movl	%eax, %esi
	movl	%ebx, %edi
	call	arc_evict
	.loc 2 1722 0
	cmpl	$0, -20(%rbp)
	je	.L331
	.loc 2 1723 0
	nop
	.loc 2 1725 0
	jmp	.L334
	.align 32
.L331:
	.loc 2 1720 0
	mov	arc_mru(%rip), %eax
	addl	$16, %eax
	mov	%eax, %eax
	movl	%eax, %edi
	call	list_head
	mov	%eax, %eax
	testq	%rax, %rax
	jne	.L333
	.loc 2 1725 0
	jmp	.L334
	.align 32
.L336:
	.loc 2 1726 0
	mov	arc_mfu(%rip), %ebx
	movl	-20(%rbp), %eax
	movl	$0, %r8d
	movl	$0, %ecx
	movq	$-1, %rdx
	movl	%eax, %esi
	movl	%ebx, %edi
	call	arc_evict
	.loc 2 1727 0
	cmpl	$0, -20(%rbp)
	je	.L334
	.loc 2 1728 0
	nop
	.loc 2 1730 0
	jmp	.L337
	.align 32
.L334:
	.loc 2 1725 0
	mov	arc_mfu(%rip), %eax
	movl	%eax, %edi
	call	list_head
	mov	%eax, %eax
	testq	%rax, %rax
	jne	.L336
	.loc 2 1730 0
	jmp	.L337
	.align 32
.L339:
	.loc 2 1731 0
	mov	arc_mfu(%rip), %ebx
	movl	-20(%rbp), %eax
	movl	$1, %r8d
	movl	$0, %ecx
	movq	$-1, %rdx
	movl	%eax, %esi
	movl	%ebx, %edi
	call	arc_evict
	.loc 2 1732 0
	cmpl	$0, -20(%rbp)
	jne	.L342
	.align 32
.L337:
	.loc 2 1730 0
	mov	arc_mfu(%rip), %eax
	addl	$16, %eax
	mov	%eax, %eax
	movl	%eax, %edi
	call	list_head
	mov	%eax, %eax
	testq	%rax, %rax
	jne	.L339
	jmp	.L338
	.align 32
.L342:
	.loc 2 1733 0
	nop
	.align 32
.L338:
	.loc 2 1736 0
	mov	arc_mru_ghost(%rip), %ecx
	movl	-20(%rbp), %eax
	movq	$-1, %rdx
	movl	%eax, %esi
	movl	%ecx, %edi
	call	arc_evict_ghost
	.loc 2 1737 0
	mov	arc_mfu_ghost(%rip), %ecx
	movl	-20(%rbp), %eax
	movq	$-1, %rdx
	movl	%eax, %esi
	movl	%ecx, %edi
	call	arc_evict_ghost
	.loc 2 1739 0
	movl	$arc_reclaim_thr_lock, %edi
	call	mutex_enter
	.loc 2 1740 0
	call	arc_do_user_evicts
	.loc 2 1741 0
	movl	$arc_reclaim_thr_lock, %edi
	call	mutex_exit
	.loc 2 1742 0
	cmpl	$0, -20(%rbp)
	jne	.L340
	mov	arc_eviction_list(%rip), %eax
	testq	%rax, %rax
	je	.L340
	movl	$__PRETTY_FUNCTION__.11327, %ecx
	movl	$1742, %edx
	movl	$.LC3, %esi
	movl	$.LC83, %edi
	call	__assert_fail
	.align 32
.L340:
	movq	8(%rbp), %rsi
	movl	$arc_flush, %edi
	call	__cyg_profile_func_exit
	.loc 2 1743 0
	naclaspq	$24, %r15
	popq	%rbx
	popq	%r11
	naclrestbp	%r11d, %r15
	popq	%r11
	nacljmp	%r11d,%r15
	.cfi_endproc
.LFE38:
	.size	arc_flush, .-arc_flush
.globl arc_shrink_shift
	.data
	.align 4
	.type	arc_shrink_shift, @object
	.size	arc_shrink_shift, 4
arc_shrink_shift:
	.long	5
	.section	.rodata
	.align 8
.LC84:
	.string	"(arc_stats.arcstat_c.value.ui64) >= (arc_stats.arcstat_c_min.value.ui64)"
	.align 8
.LC85:
	.string	"(int64_t)(arc_stats.arcstat_p.value.ui64) >= 0"
	.text
	.align 32
.globl arc_shrink
	.type	arc_shrink, @function
arc_shrink:
.LFB39:
	.loc 2 1749 0
	.cfi_startproc
	pushq	%rbp
.LCFI72:
	.cfi_def_cfa_offset 16
	movq	%rsp, %rbp
	.cfi_offset 6, -16
.LCFI73:
	.cfi_def_cfa_register 6
	pushq	%rbx
	naclsspq	$24, %r15
	.loc 2 1749 0
	movq	8(%rbp), %rsi
	movl	$arc_shrink, %edi
	.cfi_offset 3, -24
	call	__cyg_profile_func_enter
	.loc 2 1750 0
	movq	arc_stats+1184(%rip), %rdx
	movq	arc_stats+1232(%rip), %rax
	cmpq	%rax, %rdx
	jbe	.L344
.LBB49:
	.loc 2 1756 0
	movq	arc_stats+1184(%rip), %rdx
	movl	arc_shrink_shift(%rip), %eax
	movq	%rdx, %rbx
	movl	%eax, %ecx
	shrq	%cl, %rbx
	movq	%rbx, %rax
	movq	%rax, -24(%rbp)
	.loc 2 1758 0
	movq	arc_stats+1184(%rip), %rdx
	movq	arc_stats+1232(%rip), %rax
	addq	-24(%rbp), %rax
	cmpq	%rax, %rdx
	jbe	.L345
	.loc 2 1759 0
	movq	-24(%rbp), %rax
	negq	%rax
	movl	$arc_stats+1184, %edx
	mov	%edx, %edx
	movq	%rax, %rsi
	movl	%edx, %edi
	call	atomic_add_64
	jmp	.L346
	.align 32
.L345:
	.loc 2 1761 0
	movq	arc_stats+1232(%rip), %rax
	movq	%rax, arc_stats+1184(%rip)
	.align 32
.L346:
	.loc 2 1763 0
	movq	arc_stats+1136(%rip), %rdx
	movl	arc_shrink_shift(%rip), %eax
	movq	%rdx, %rbx
	movl	%eax, %ecx
	shrq	%cl, %rbx
	movq	%rbx, %rax
	negq	%rax
	movl	$arc_stats+1136, %edx
	mov	%edx, %edx
	movq	%rax, %rsi
	movl	%edx, %edi
	call	atomic_add_64
	.loc 2 1764 0
	movq	arc_stats+1184(%rip), %rdx
	movq	arc_stats+1328(%rip), %rax
	cmpq	%rax, %rdx
	jbe	.L347
	.loc 2 1765 0
	movq	arc_stats+1232(%rip), %rdx
	movq	arc_stats+1328(%rip), %rax
	cmpq	%rax, %rdx
	cmovae	%rdx, %rax
	movq	%rax, arc_stats+1184(%rip)
	.align 32
.L347:
	.loc 2 1766 0
	movq	arc_stats+1136(%rip), %rdx
	movq	arc_stats+1184(%rip), %rax
	cmpq	%rax, %rdx
	jbe	.L348
	.loc 2 1767 0
	movq	arc_stats+1184(%rip), %rax
	shrq	%rax
	movq	%rax, arc_stats+1136(%rip)
	.align 32
.L348:
	.loc 2 1768 0
	movq	arc_stats+1184(%rip), %rdx
	movq	arc_stats+1232(%rip), %rax
	cmpq	%rax, %rdx
	jae	.L349
	movl	$__PRETTY_FUNCTION__.11364, %ecx
	movl	$1768, %edx
	movl	$.LC3, %esi
	movl	$.LC84, %edi
	call	__assert_fail
	.align 32
.L349:
	.loc 2 1769 0
	movq	arc_stats+1136(%rip), %rax
	testq	%rax, %rax
	jns	.L344
	movl	$__PRETTY_FUNCTION__.11364, %ecx
	movl	$1769, %edx
	movl	$.LC3, %esi
	movl	$.LC85, %edi
	call	__assert_fail
	.align 32
.L344:
.LBE49:
	.loc 2 1772 0
	movq	arc_stats+1328(%rip), %rdx
	movq	arc_stats+1184(%rip), %rax
	cmpq	%rax, %rdx
	jbe	.L350
	.loc 2 1773 0
	call	arc_adjust
	.align 32
.L350:
	movq	8(%rbp), %rsi
	movl	$arc_shrink, %edi
	call	__cyg_profile_func_exit
	.loc 2 1774 0
	naclaspq	$24, %r15
	popq	%rbx
	popq	%r11
	naclrestbp	%r11d, %r15
	popq	%r11
	nacljmp	%r11d,%r15
	.cfi_endproc
.LFE39:
	.size	arc_shrink, .-arc_shrink
	.align 32
	.type	arc_reclaim_needed, @function
arc_reclaim_needed:
.LFB40:
	.loc 2 1778 0
	.cfi_startproc
	pushq	%rbp
.LCFI74:
	.cfi_def_cfa_offset 16
	movq	%rsp, %rbp
	.cfi_offset 6, -16
.LCFI75:
	.cfi_def_cfa_register 6
	pushq	%rbx
	naclsspq	$8, %r15
	.loc 2 1778 0
	movq	8(%rbp), %rsi
	movl	$arc_reclaim_needed, %edi
	.cfi_offset 3, -24
	call	__cyg_profile_func_enter
	.loc 2 1834 0
	movl	$0, %ebx
	movq	8(%rbp), %rsi
	movl	$arc_reclaim_needed, %edi
	call	__cyg_profile_func_exit
	movl	%ebx, %eax
	.loc 2 1835 0
	naclaspq	$8, %r15
	popq	%rbx
	popq	%r11
	naclrestbp	%r11d, %r15
	popq	%r11
	nacljmp	%r11d,%r15
	.cfi_endproc
.LFE40:
	.size	arc_reclaim_needed, .-arc_reclaim_needed
	.align 32
	.type	arc_kmem_reap_now, @function
arc_kmem_reap_now:
.LFB41:
	.loc 2 1839 0
	.cfi_startproc
	pushq	%rbp
.LCFI76:
	.cfi_def_cfa_offset 16
	movq	%rsp, %rbp
	.cfi_offset 6, -16
.LCFI77:
	.cfi_def_cfa_register 6
	naclsspq	$32, %r15
	movl	%edi, -20(%rbp)
	.loc 2 1839 0
	movq	8(%rbp), %rsi
	movl	$arc_kmem_reap_now, %edi
	call	__cyg_profile_func_enter
	.loc 2 1841 0
	movl	$0, -8(%rbp)
	.loc 2 1842 0
	movl	$0, -4(%rbp)
	.loc 2 1866 0
	cmpl	$0, -20(%rbp)
	jne	.L355
	.loc 2 1867 0
	call	arc_shrink
	.align 32
.L355:
	.loc 2 1869 0
	movl	$0, -12(%rbp)
	jmp	.L356
	.align 32
.L359:
	.loc 2 1870 0
	movl	-12(%rbp), %eax
	sall	$2, %eax
	cltq
	mov	%nacl:zio_buf_cache(%r15,%rax), %eax
	cmpl	%eax, -8(%rbp)
	je	.L357
	.loc 2 1871 0
	movl	-12(%rbp), %eax
	sall	$2, %eax
	cltq
	movl	%nacl:zio_buf_cache(%r15,%rax), %eax
	movl	%eax, -8(%rbp)
	.align 32
.L357:
	.loc 2 1874 0
	movl	-12(%rbp), %eax
	sall	$2, %eax
	cltq
	mov	%nacl:zio_data_buf_cache(%r15,%rax), %eax
	cmpl	%eax, -4(%rbp)
	je	.L358
	.loc 2 1875 0
	movl	-12(%rbp), %eax
	sall	$2, %eax
	cltq
	movl	%nacl:zio_data_buf_cache(%r15,%rax), %eax
	movl	%eax, -4(%rbp)
	.align 32
.L358:
	.loc 2 1869 0
	addl	$1, -12(%rbp)
	.align 32
.L356:
	cmpl	$255, -12(%rbp)
	jbe	.L359
	movq	8(%rbp), %rsi
	movl	$arc_kmem_reap_now, %edi
	call	__cyg_profile_func_exit
	.loc 2 1881 0
	movq	%rbp, %rsp
	popq	%r11
	naclrestbp	%r11d, %r15
	popq	%r11
	nacljmp	%r11d,%r15
	.cfi_endproc
.LFE41:
	.size	arc_kmem_reap_now, .-arc_kmem_reap_now
	.section	.rodata
	.align 8
.LC86:
	.string	"(((&cpr)->cc_lockp)->m_owner == ((void *)(uintptr_t)pthread_self()))"
	.text
	.align 32
	.type	arc_reclaim_thread, @function
arc_reclaim_thread:
.LFB42:
	.loc 2 1885 0
	.cfi_startproc
	pushq	%rbp
.LCFI78:
	.cfi_def_cfa_offset 16
	movq	%rsp, %rbp
	.cfi_offset 6, -16
.LCFI79:
	.cfi_def_cfa_register 6
	pushq	%rbx
	naclsspq	$40, %r15
	.loc 2 1885 0
	movq	8(%rbp), %rsi
	movl	$arc_reclaim_thread, %edi
	.cfi_offset 3, -24
	call	__cyg_profile_func_enter
	.loc 2 1886 0
	movq	$0, -32(%rbp)
	.loc 2 1887 0
	movl	$1, -20(%rbp)
	.loc 2 1890 0
	movl	$arc_reclaim_thr_lock, -48(%rbp)
	.loc 2 1892 0
	movl	$arc_reclaim_thr_lock, %edi
	call	mutex_enter
	.loc 2 1893 0
	jmp	.L362
	.align 32
.L372:
	.loc 2 1894 0
	call	arc_reclaim_needed
	testl	%eax, %eax
	je	.L363
	.loc 2 1896 0
	movl	arc_no_grow(%rip), %eax
	testl	%eax, %eax
	je	.L364
	.loc 2 1897 0
	cmpl	$1, -20(%rbp)
	jne	.L365
	.loc 2 1898 0
	movl	$0, -20(%rbp)
	.loc 2 1900 0
	jmp	.L367
	.align 32
.L365:
	movl	$1, -20(%rbp)
	jmp	.L367
	.align 32
.L364:
	.loc 2 1903 0
	movl	$1, arc_no_grow(%rip)
	.loc 2 1904 0
	movl	$0, -20(%rbp)
	.loc 2 1905 0
	call	membar_producer
	.align 32
.L367:
	.loc 2 1909 0
	call	gethrtime
	movq	%rax, %rdx
	sarq	$23, %rdx
	movl	arc_grow_retry(%rip), %eax
	imull	$119, %eax, %eax
	cltq
	leaq	(%rdx,%rax), %rax
	movq	%rax, -32(%rbp)
	.loc 2 1911 0
	movl	-20(%rbp), %eax
	movl	%eax, %edi
	call	arc_kmem_reap_now
	.loc 2 1912 0
	movl	$1, arc_warm(%rip)
	jmp	.L368
	.align 32
.L363:
	.loc 2 1914 0
	movl	arc_no_grow(%rip), %eax
	testl	%eax, %eax
	je	.L368
	call	gethrtime
	sarq	$23, %rax
	cmpq	-32(%rbp), %rax
	jl	.L368
	.loc 2 1915 0
	movl	$0, arc_no_grow(%rip)
	.align 32
.L368:
	.loc 2 1918 0
	movq	arc_stats+1184(%rip), %rax
	leaq	(%rax,%rax), %rcx
	movq	arc_stats+1328(%rip), %rdx
	.loc 2 1919 0
	mov	arc_mru_ghost(%rip), %eax
	movq	%nacl:48(%r15,%rax), %rax
	addq	%rax, %rdx
	mov	arc_mfu_ghost(%rip), %eax
	movq	%nacl:48(%r15,%rax), %rax
	leaq	(%rdx,%rax), %rax
	.loc 2 1918 0
	cmpq	%rax, %rcx
	jae	.L369
	.loc 2 1920 0
	call	arc_adjust
	.align 32
.L369:
	.loc 2 1922 0
	mov	arc_eviction_list(%rip), %eax
	testq	%rax, %rax
	je	.L370
	.loc 2 1923 0
	call	arc_do_user_evicts
	.align 32
.L370:
	.loc 2 1926 0
	mov	-48(%rbp), %eax
	mov	%nacl:(%r15,%rax), %ebx
	call	pthread_self
	mov	%eax, %eax
	cmpl	%eax, %ebx
	je	.L371
	movl	$__PRETTY_FUNCTION__.11445, %ecx
	movl	$1926, %edx
	movl	$.LC3, %esi
	movl	$.LC86, %edi
	call	__assert_fail
	.align 32
.L371:
	.loc 2 1928 0
	call	gethrtime
	sarq	$23, %rax
	.loc 2 1927 0
	addl	$119, %eax
	movl	%eax, %edx
	movl	$arc_reclaim_thr_lock, %esi
	movl	$arc_reclaim_thr_cv, %edi
	call	cv_timedwait
	.loc 2 1929 0
	mov	-48(%rbp), %eax
	mov	%nacl:(%r15,%rax), %ebx
	call	pthread_self
	mov	%eax, %eax
	cmpl	%eax, %ebx
	je	.L362
	movl	$__PRETTY_FUNCTION__.11445, %ecx
	movl	$1929, %edx
	movl	$.LC3, %esi
	movl	$.LC86, %edi
	call	__assert_fail
	.align 32
.L362:
	.loc 2 1893 0
	movzbl	arc_thread_exit(%rip), %eax
	testb	%al, %al
	je	.L372
	.loc 2 1932 0
	movb	$0, arc_thread_exit(%rip)
	.loc 2 1933 0
	movl	$arc_reclaim_thr_cv, %edi
	call	cv_broadcast
	.loc 2 1934 0
	mov	-48(%rbp), %eax
	mov	%nacl:(%r15,%rax), %ebx
	call	pthread_self
	mov	%eax, %eax
	cmpl	%eax, %ebx
	je	.L373
	movl	$__PRETTY_FUNCTION__.11445, %ecx
	movl	$1934, %edx
	movl	$.LC3, %esi
	movl	$.LC86, %edi
	call	__assert_fail
	.align 32
.L373:
	mov	-48(%rbp), %eax
	movl	%eax, %edi
	call	mutex_exit
	movq	8(%rbp), %rsi
	movl	$arc_reclaim_thread, %edi
	call	__cyg_profile_func_exit
	.loc 2 1938 0
	naclaspq	$40, %r15
	popq	%rbx
	popq	%r11
	naclrestbp	%r11d, %r15
	popq	%r11
	nacljmp	%r11d,%r15
	.cfi_endproc
.LFE42:
	.size	arc_reclaim_thread, .-arc_reclaim_thread
	.section	.rodata
.LC87:
	.string	"bytes > 0"
	.text
	.align 32
	.type	arc_adapt, @function
arc_adapt:
.LFB43:
	.loc 2 1947 0
	.cfi_startproc
	pushq	%rbp
.LCFI80:
	.cfi_def_cfa_offset 16
	movq	%rsp, %rbp
	.cfi_offset 6, -16
.LCFI81:
	.cfi_def_cfa_register 6
	pushq	%rbx
	naclsspq	$56, %r15
	movl	%edi, -36(%rbp)
	movl	%esi, -40(%rbp)
	.loc 2 1947 0
	movq	8(%rbp), %rsi
	movl	$arc_adapt, %edi
	.cfi_offset 3, -24
	call	__cyg_profile_func_enter
	.loc 2 1950 0
	mov	arc_l2c_only(%rip), %eax
	cmpl	%eax, -40(%rbp)
	jne	.L376
	movl	$0, %ebx
	jmp	.L377
	.align 32
.L376:
	.loc 2 1953 0
	cmpl	$0, -36(%rbp)
	jg	.L378
	movl	$__PRETTY_FUNCTION__.11516, %ecx
	movl	$1953, %edx
	movl	$.LC3, %esi
	movl	$.LC87, %edi
	call	__assert_fail
	.align 32
.L378:
	.loc 2 1962 0
	mov	arc_mru_ghost(%rip), %eax
	cmpl	%eax, -40(%rbp)
	jne	.L379
	.loc 2 1963 0
	mov	arc_mru_ghost(%rip), %eax
	movq	%nacl:48(%r15,%rax), %rdx
	mov	arc_mfu_ghost(%rip), %eax
	movq	%nacl:48(%r15,%rax), %rax
	cmpq	%rax, %rdx
	jae	.L380
	.loc 2 1964 0
	mov	arc_mfu_ghost(%rip), %eax
	movq	%nacl:48(%r15,%rax), %rax
	mov	arc_mru_ghost(%rip), %edx
	movq	%nacl:48(%r15,%rdx), %rdx
	movq	%rdx, -56(%rbp)
	movl	$0, %edx
	divq	-56(%rbp)
	jmp	.L381
	.align 32
.L380:
	.loc 2 1963 0
	movl	$1, %eax
	.align 32
.L381:
	movl	%eax, -20(%rbp)
	.loc 2 1966 0
	movq	arc_stats+1136(%rip), %rdx
	movl	-36(%rbp), %eax
	imull	-20(%rbp), %eax
	cltq
	addq	%rax, %rdx
	movq	arc_stats+1184(%rip), %rax
	cmpq	%rax, %rdx
	cmovbe	%rdx, %rax
	movq	%rax, arc_stats+1136(%rip)
	jmp	.L382
	.align 32
.L379:
	.loc 2 1967 0
	mov	arc_mfu_ghost(%rip), %eax
	cmpl	%eax, -40(%rbp)
	jne	.L382
	.loc 2 1968 0
	mov	arc_mfu_ghost(%rip), %eax
	movq	%nacl:48(%r15,%rax), %rdx
	mov	arc_mru_ghost(%rip), %eax
	movq	%nacl:48(%r15,%rax), %rax
	cmpq	%rax, %rdx
	jae	.L383
	.loc 2 1969 0
	mov	arc_mru_ghost(%rip), %eax
	movq	%nacl:48(%r15,%rax), %rax
	mov	arc_mfu_ghost(%rip), %edx
	movq	%nacl:48(%r15,%rdx), %rdx
	movq	%rdx, -56(%rbp)
	movl	$0, %edx
	divq	-56(%rbp)
	jmp	.L384
	.align 32
.L383:
	.loc 2 1968 0
	movl	$1, %eax
	.align 32
.L384:
	movl	%eax, -20(%rbp)
	.loc 2 1971 0
	movq	arc_stats+1136(%rip), %rax
	movq	%rax, %rdx
	movl	-36(%rbp), %eax
	imull	-20(%rbp), %eax
	cltq
	movq	%rdx, %rcx
	subq	%rax, %rcx
	movq	%rcx, %rax
	movl	$0, %edx
	testq	%rax, %rax
	cmovs	%rdx, %rax
	movq	%rax, arc_stats+1136(%rip)
	.align 32
.L382:
	.loc 2 1973 0
	movq	arc_stats+1136(%rip), %rax
	testq	%rax, %rax
	jns	.L385
	movl	$__PRETTY_FUNCTION__.11516, %ecx
	movl	$1973, %edx
	movl	$.LC3, %esi
	movl	$.LC85, %edi
	call	__assert_fail
	.align 32
.L385:
	.loc 2 1975 0
	call	arc_reclaim_needed
	testl	%eax, %eax
	je	.L386
	.loc 2 1976 0
	movl	$arc_reclaim_thr_cv, %edi
	call	cv_signal
	movl	$0, %ebx
	jmp	.L377
	.align 32
.L386:
	.loc 2 1980 0
	movl	arc_no_grow(%rip), %eax
	testl	%eax, %eax
	je	.L387
	movl	$0, %ebx
	jmp	.L377
	.align 32
.L387:
	.loc 2 1983 0
	movq	arc_stats+1184(%rip), %rdx
	movq	arc_stats+1280(%rip), %rax
	cmpq	%rax, %rdx
	jb	.L388
	movl	$0, %ebx
	jmp	.L377
	.align 32
.L388:
	.loc 2 1990 0
	movq	arc_stats+1328(%rip), %rax
	movq	arc_stats+1184(%rip), %rdx
	subq	$262144, %rdx
	cmpq	%rdx, %rax
	jbe	.L389
	.loc 2 1991 0
	movl	-36(%rbp), %eax
	cltq
	movl	$arc_stats+1184, %edx
	mov	%edx, %edx
	movq	%rax, %rsi
	movl	%edx, %edi
	call	atomic_add_64
	.loc 2 1992 0
	movq	arc_stats+1184(%rip), %rdx
	movq	arc_stats+1280(%rip), %rax
	cmpq	%rax, %rdx
	jbe	.L390
	.loc 2 1993 0
	movq	arc_stats+1280(%rip), %rax
	movq	%rax, arc_stats+1184(%rip)
	jmp	.L391
	.align 32
.L390:
	.loc 2 1994 0
	mov	arc_anon(%rip), %eax
	cmpl	%eax, -40(%rbp)
	jne	.L391
	.loc 2 1995 0
	movl	-36(%rbp), %eax
	cltq
	movl	$arc_stats+1136, %edx
	mov	%edx, %edx
	movq	%rax, %rsi
	movl	%edx, %edi
	call	atomic_add_64
	.align 32
.L391:
	.loc 2 1996 0
	movq	arc_stats+1136(%rip), %rdx
	movq	arc_stats+1184(%rip), %rax
	cmpq	%rax, %rdx
	jbe	.L389
	.loc 2 1997 0
	movq	arc_stats+1184(%rip), %rax
	movq	%rax, arc_stats+1136(%rip)
	.align 32
.L389:
	.loc 2 1999 0
	movq	arc_stats+1136(%rip), %rax
	testq	%rax, %rax
	jns	.L392
	movl	$__PRETTY_FUNCTION__.11516, %ecx
	movl	$1999, %edx
	movl	$.LC3, %esi
	movl	$.LC85, %edi
	call	__assert_fail
	.align 32
.L392:
	movl	$1, %ebx
	.align 32
.L377:
	movq	8(%rbp), %rsi
	movl	$arc_adapt, %edi
	call	__cyg_profile_func_exit
	cmpl	$1, %ebx
	.loc 2 2000 0
	naclaspq	$56, %r15
	popq	%rbx
	popq	%r11
	naclrestbp	%r11d, %r15
	popq	%r11
	nacljmp	%r11d,%r15
	.cfi_endproc
.LFE43:
	.size	arc_adapt, .-arc_adapt
	.align 32
	.type	arc_evict_needed, @function
arc_evict_needed:
.LFB44:
	.loc 2 2008 0
	.cfi_startproc
	pushq	%rbp
.LCFI82:
	.cfi_def_cfa_offset 16
	movq	%rsp, %rbp
	.cfi_offset 6, -16
.LCFI83:
	.cfi_def_cfa_register 6
	pushq	%rbx
	naclsspq	$24, %r15
	movl	%edi, -20(%rbp)
	.loc 2 2008 0
	movq	8(%rbp), %rsi
	movl	$arc_evict_needed, %edi
	.cfi_offset 3, -24
	call	__cyg_profile_func_enter
	.loc 2 2009 0
	cmpl	$1, -20(%rbp)
	jne	.L398
	movq	arc_meta_used(%rip), %rdx
	movq	arc_meta_limit(%rip), %rax
	cmpq	%rax, %rdx
	jb	.L398
	.loc 2 2010 0
	movl	$1, %ebx
	jmp	.L399
	.align 32
.L398:
	.loc 2 2024 0
	call	arc_reclaim_needed
	testl	%eax, %eax
	je	.L400
	.loc 2 2025 0
	movl	$1, %ebx
	jmp	.L399
	.align 32
.L400:
	.loc 2 2027 0
	movq	arc_stats+1328(%rip), %rdx
	movq	arc_stats+1184(%rip), %rax
	cmpq	%rax, %rdx
	seta	%al
	movzbl	%al, %ebx
	.align 32
.L399:
	movq	8(%rbp), %rsi
	movl	$arc_evict_needed, %edi
	call	__cyg_profile_func_exit
	movl	%ebx, %eax
	.loc 2 2028 0
	naclaspq	$24, %r15
	popq	%rbx
	popq	%r11
	naclrestbp	%r11d, %r15
	popq	%r11
	nacljmp	%r11d,%r15
	.cfi_endproc
.LFE44:
	.size	arc_evict_needed, .-arc_evict_needed
	.align 32
	.type	arc_get_data_buf, @function
arc_get_data_buf:
.LFB45:
	.loc 2 2055 0
	.cfi_startproc
	pushq	%rbp
.LCFI84:
	.cfi_def_cfa_offset 16
	movq	%rsp, %rbp
	.cfi_offset 6, -16
.LCFI85:
	.cfi_def_cfa_register 6
	naclsspq	$64, %r15
	movl	%edi, -52(%rbp)
	.loc 2 2055 0
	movq	8(%rbp), %rsi
	movl	$arc_get_data_buf, %edi
	call	__cyg_profile_func_enter
	.loc 2 2056 0
	mov	-52(%rbp), %eax
	mov	%nacl:(%r15,%rax), %eax
	movl	%nacl:172(%r15,%rax), %eax
	movl	%eax, -44(%rbp)
	.loc 2 2057 0
	mov	-52(%rbp), %eax
	mov	%nacl:(%r15,%rax), %eax
	movq	%nacl:160(%r15,%rax), %rax
	movq	%rax, -40(%rbp)
	.loc 2 2058 0
	mov	-52(%rbp), %eax
	mov	%nacl:(%r15,%rax), %eax
	movl	%nacl:152(%r15,%rax), %eax
	movl	%eax, -28(%rbp)
	.loc 2 2060 0
	movq	-40(%rbp), %rax
	movl	-44(%rbp), %edx
	movl	%edx, %esi
	movl	%eax, %edi
	call	arc_adapt
	.loc 2 2066 0
	movl	-28(%rbp), %eax
	movl	%eax, %edi
	call	arc_evict_needed
	testl	%eax, %eax
	jne	.L403
	.loc 2 2067 0
	cmpl	$1, -28(%rbp)
	jne	.L404
	.loc 2 2068 0
	movq	-40(%rbp), %rax
	movl	%eax, %edi
	call	zio_buf_alloc
	mov	%eax, %edx
	mov	-52(%rbp), %eax
	movl	%edx, %nacl:8(%r15,%rax)
	.loc 2 2069 0
	movq	-40(%rbp), %rax
	movq	%rax, %rdi
	call	arc_space_consume
	.loc 2 2075 0
	jmp	.L407
	.align 32
.L404:
	.loc 2 2071 0
	cmpl	$0, -28(%rbp)
	je	.L406
	movl	$__PRETTY_FUNCTION__.11630, %ecx
	movl	$2071, %edx
	movl	$.LC3, %esi
	movl	$.LC53, %edi
	call	__assert_fail
	.align 32
.L406:
	.loc 2 2072 0
	movq	-40(%rbp), %rax
	movl	%eax, %edi
	call	zio_data_buf_alloc
	mov	%eax, %edx
	mov	-52(%rbp), %eax
	movl	%edx, %nacl:8(%r15,%rax)
	.loc 2 2073 0
	movq	-40(%rbp), %rax
	movl	$arc_stats+1328, %edx
	mov	%edx, %edx
	movq	%rax, %rsi
	movl	%edx, %edi
	call	atomic_add_64
	.loc 2 2075 0
	jmp	.L407
	.align 32
.L403:
	.loc 2 2082 0
	mov	arc_mfu_ghost(%rip), %eax
	cmpl	%eax, -44(%rbp)
	jne	.L408
	.loc 2 2083 0
	mov	-52(%rbp), %eax
	mov	%nacl:(%r15,%rax), %eax
	movl	%nacl:88(%r15,%rax), %eax
	andl	$8, %eax
	testl	%eax, %eax
	je	.L409
	mov	arc_mru(%rip), %eax
	jmp	.L410
	.align 32
.L409:
	mov	arc_mfu(%rip), %eax
	.align 32
.L410:
	movl	%eax, -44(%rbp)
	jmp	.L411
	.align 32
.L408:
	.loc 2 2084 0
	mov	arc_mru_ghost(%rip), %eax
	cmpl	%eax, -44(%rbp)
	jne	.L411
	.loc 2 2085 0
	movl	arc_mru(%rip), %eax
	movl	%eax, -44(%rbp)
	.align 32
.L411:
	.loc 2 2087 0
	mov	arc_mru(%rip), %eax
	cmpl	%eax, -44(%rbp)
	je	.L412
	mov	arc_anon(%rip), %eax
	cmpl	%eax, -44(%rbp)
	jne	.L413
	.align 32
.L412:
.LBB50:
	.loc 2 2088 0
	mov	arc_anon(%rip), %eax
	movq	%nacl:48(%r15,%rax), %rdx
	mov	arc_mru(%rip), %eax
	movq	%nacl:48(%r15,%rax), %rax
	leaq	(%rdx,%rax), %rax
	movq	%rax, -24(%rbp)
	.loc 2 2089 0
	mov	arc_mfu(%rip), %edx
	movl	-28(%rbp), %eax
	addl	$4, %eax
	sall	$3, %eax
	cltq
	leaq	(%rdx,%rax), %rax
	movq	%nacl:(%r15,%rax), %rax
	testq	%rax, %rax
	je	.L414
	.loc 2 2090 0
	movq	arc_stats+1136(%rip), %rax
	.loc 2 2089 0
	cmpq	-24(%rbp), %rax
	jbe	.L414
	mov	arc_mfu(%rip), %eax
	jmp	.L415
	.align 32
.L414:
	mov	arc_mru(%rip), %eax
	.align 32
.L415:
	movl	%eax, -44(%rbp)
.LBE50:
	.loc 2 2087 0
	jmp	.L416
	.align 32
.L413:
.LBB51:
	.loc 2 2093 0
	movq	arc_stats+1184(%rip), %rdx
	movq	arc_stats+1136(%rip), %rax
	movq	%rdx, %rcx
	subq	%rax, %rcx
	movq	%rcx, %rax
	movq	%rax, -16(%rbp)
	.loc 2 2094 0
	mov	arc_mru(%rip), %edx
	movl	-28(%rbp), %eax
	addl	$4, %eax
	sall	$3, %eax
	cltq
	leaq	(%rdx,%rax), %rax
	movq	%nacl:(%r15,%rax), %rax
	testq	%rax, %rax
	je	.L417
	.loc 2 2095 0
	mov	arc_mfu(%rip), %eax
	movq	%nacl:48(%r15,%rax), %rax
	.loc 2 2094 0
	cmpq	-16(%rbp), %rax
	jae	.L417
	mov	arc_mru(%rip), %eax
	jmp	.L418
	.align 32
.L417:
	mov	arc_mfu(%rip), %eax
	.align 32
.L418:
	movl	%eax, -44(%rbp)
	.align 32
.L416:
.LBE51:
	.loc 2 2097 0
	movq	-40(%rbp), %rdx
	movl	-28(%rbp), %ecx
	movl	-44(%rbp), %eax
	movl	%ecx, %r8d
	movl	$1, %ecx
	movl	$0, %esi
	movl	%eax, %edi
	call	arc_evict
	mov	%eax, %edx
	mov	-52(%rbp), %eax
	movl	%edx, %nacl:8(%r15,%rax)
	mov	-52(%rbp), %eax
	mov	%nacl:8(%r15,%rax), %eax
	testq	%rax, %rax
	jne	.L419
	.loc 2 2098 0
	cmpl	$1, -28(%rbp)
	jne	.L420
	.loc 2 2099 0
	movq	-40(%rbp), %rax
	movl	%eax, %edi
	call	zio_buf_alloc
	mov	%eax, %edx
	mov	-52(%rbp), %eax
	movl	%edx, %nacl:8(%r15,%rax)
	.loc 2 2100 0
	movq	-40(%rbp), %rax
	movq	%rax, %rdi
	call	arc_space_consume
	jmp	.L421
	.align 32
.L420:
	.loc 2 2102 0
	cmpl	$0, -28(%rbp)
	je	.L422
	movl	$__PRETTY_FUNCTION__.11630, %ecx
	movl	$2102, %edx
	movl	$.LC3, %esi
	movl	$.LC53, %edi
	call	__assert_fail
	.align 32
.L422:
	.loc 2 2103 0
	movq	-40(%rbp), %rax
	movl	%eax, %edi
	call	zio_data_buf_alloc
	mov	%eax, %edx
	mov	-52(%rbp), %eax
	movl	%edx, %nacl:8(%r15,%rax)
	.loc 2 2104 0
	movq	-40(%rbp), %rax
	movl	$arc_stats+1328, %edx
	mov	%edx, %edx
	movq	%rax, %rsi
	movl	%edx, %edi
	call	atomic_add_64
	.align 32
.L421:
	.loc 2 2106 0
	movl	$arc_stats+752, %eax
	mov	%eax, %eax
	movl	$1, %esi
	movl	%eax, %edi
	call	atomic_add_64
	.align 32
.L419:
	.loc 2 2108 0
	mov	-52(%rbp), %eax
	mov	%nacl:8(%r15,%rax), %eax
	testq	%rax, %rax
	jne	.L407
	movl	$__PRETTY_FUNCTION__.11630, %ecx
	movl	$2108, %edx
	movl	$.LC3, %esi
	movl	$.LC69, %edi
	call	__assert_fail
	.align 32
.L407:
	.loc 2 2114 0
	mov	-52(%rbp), %eax
	mov	%nacl:(%r15,%rax), %eax
	mov	%nacl:172(%r15,%rax), %edx
	mov	arc_mru_ghost(%rip), %eax
	cmpl	%eax, %edx
	je	.L423
	mov	-52(%rbp), %eax
	mov	%nacl:(%r15,%rax), %eax
	mov	%nacl:172(%r15,%rax), %edx
	mov	arc_mfu_ghost(%rip), %eax
	cmpl	%eax, %edx
	je	.L423
	mov	-52(%rbp), %eax
	mov	%nacl:(%r15,%rax), %eax
	mov	%nacl:172(%r15,%rax), %edx
	mov	arc_l2c_only(%rip), %eax
	cmpl	%eax, %edx
	je	.L423
.LBB52:
	.loc 2 2115 0
	mov	-52(%rbp), %eax
	movl	%nacl:(%r15,%rax), %eax
	movl	%eax, -4(%rbp)
	.loc 2 2117 0
	movq	-40(%rbp), %rax
	mov	-4(%rbp), %edx
	mov	%nacl:172(%r15,%rdx), %edx
	addl	$48, %edx
	mov	%edx, %edx
	movq	%rax, %rsi
	movl	%edx, %edi
	call	atomic_add_64
	.loc 2 2118 0
	movl	-4(%rbp), %eax
	addl	$176, %eax
	mov	%eax, %eax
	movl	%eax, %edi
	call	list_link_active
	testl	%eax, %eax
	je	.L424
	.loc 2 2119 0
	movl	-4(%rbp), %eax
	addl	$192, %eax
	mov	%eax, %eax
	movl	%eax, %edi
	call	refcount_is_zero
	testl	%eax, %eax
	jne	.L425
	movl	$__PRETTY_FUNCTION__.11630, %ecx
	movl	$2119, %edx
	movl	$.LC3, %esi
	movl	$.LC50, %edi
	call	__assert_fail
	.align 32
.L425:
	.loc 2 2120 0
	movq	-40(%rbp), %rax
	mov	-4(%rbp), %edx
	mov	%nacl:172(%r15,%rdx), %edx
	addl	$32, %edx
	mov	%edx, %edx
	movl	-28(%rbp), %ecx
	sall	$3, %ecx
	leal	(%rcx,%rdx), %edx
	mov	%edx, %edx
	movq	%rax, %rsi
	movl	%edx, %edi
	call	atomic_add_64
	.align 32
.L424:
	.loc 2 2126 0
	movq	arc_stats+1328(%rip), %rdx
	movq	arc_stats+1184(%rip), %rax
	cmpq	%rax, %rdx
	jae	.L423
	mov	-4(%rbp), %eax
	mov	%nacl:172(%r15,%rax), %edx
	mov	arc_anon(%rip), %eax
	cmpl	%eax, %edx
	jne	.L423
	.loc 2 2127 0
	mov	arc_anon(%rip), %eax
	movq	%nacl:48(%r15,%rax), %rdx
	mov	arc_mru(%rip), %eax
	movq	%nacl:48(%r15,%rax), %rax
	addq	%rax, %rdx
	movq	arc_stats+1136(%rip), %rax
	.loc 2 2126 0
	cmpq	%rax, %rdx
	jbe	.L423
	.loc 2 2128 0
	movq	arc_stats+1136(%rip), %rax
	movq	%rax, %rdx
	addq	-40(%rbp), %rdx
	movq	arc_stats+1184(%rip), %rax
	cmpq	%rax, %rdx
	cmovbe	%rdx, %rax
	movq	%rax, arc_stats+1136(%rip)
	.align 32
.L423:
	movq	8(%rbp), %rsi
	movl	$arc_get_data_buf, %edi
	call	__cyg_profile_func_exit
.LBE52:
	.loc 2 2130 0
	movq	%rbp, %rsp
	popq	%r11
	naclrestbp	%r11d, %r15
	popq	%r11
	nacljmp	%r11d,%r15
	.cfi_endproc
.LFE45:
	.size	arc_get_data_buf, .-arc_get_data_buf
	.section	.rodata
.LC88:
	.string	"buf->b_arc_access == 0"
	.align 8
.LC89:
	.string	"list_link_active(&buf->b_arc_node)"
	.align 8
.LC90:
	.string	"refcount_count(&buf->b_refcnt) == 0"
	.align 8
.LC91:
	.string	"refcount_count(&buf->b_refcnt)"
.LC92:
	.string	"!\"invalid arc state\""
	.text
	.align 32
	.type	arc_access, @function
arc_access:
.LFB46:
	.loc 2 2138 0
	.cfi_startproc
	pushq	%rbp
.LCFI86:
	.cfi_def_cfa_offset 16
	movq	%rsp, %rbp
	.cfi_offset 6, -16
.LCFI87:
	.cfi_def_cfa_register 6
	pushq	%rbx
	naclsspq	$88, %r15
	movl	%edi, -52(%rbp)
	movl	%esi, -56(%rbp)
	.loc 2 2138 0
	movq	8(%rbp), %rsi
	movl	$arc_access, %edi
	.cfi_offset 3, -24
	call	__cyg_profile_func_enter
	.loc 2 2139 0
	mov	-56(%rbp), %eax
	mov	%nacl:(%r15,%rax), %ebx
	call	pthread_self
	mov	%eax, %eax
	cmpl	%eax, %ebx
	je	.L428
	movl	$__PRETTY_FUNCTION__.11775, %ecx
	movl	$2139, %edx
	movl	$.LC3, %esi
	movl	$.LC17, %edi
	call	__assert_fail
	.align 32
.L428:
	.loc 2 2141 0
	mov	-52(%rbp), %eax
	mov	%nacl:172(%r15,%rax), %edx
	mov	arc_anon(%rip), %eax
	cmpl	%eax, %edx
	jne	.L429
	.loc 2 2148 0
	mov	-52(%rbp), %eax
	movl	%nacl:184(%r15,%rax), %eax
	testl	%eax, %eax
	je	.L430
	movl	$__PRETTY_FUNCTION__.11775, %ecx
	movl	$2148, %edx
	movl	$.LC3, %esi
	movl	$.LC88, %edi
	call	__assert_fail
	.align 32
.L430:
	.loc 2 2149 0
	call	gethrtime
	sarq	$23, %rax
	movl	%eax, %edx
	mov	-52(%rbp), %eax
	movl	%edx, %nacl:184(%r15,%rax)
	.loc 2 2151 0
	mov	arc_mru(%rip), %ecx
	movl	-56(%rbp), %edx
	movl	-52(%rbp), %eax
	movl	%eax, %esi
	movl	%ecx, %edi
	call	arc_change_state
	jmp	.L431
	.align 32
.L429:
	.loc 2 2153 0
	mov	-52(%rbp), %eax
	mov	%nacl:172(%r15,%rax), %edx
	mov	arc_mru(%rip), %eax
	cmpl	%eax, %edx
	jne	.L432
	.loc 2 2162 0
	mov	-52(%rbp), %eax
	movl	%nacl:88(%r15,%rax), %eax
	andl	$8, %eax
	testl	%eax, %eax
	je	.L433
	.loc 2 2163 0
	movl	-52(%rbp), %eax
	addl	$192, %eax
	mov	%eax, %eax
	movl	%eax, %edi
	call	refcount_count
	testq	%rax, %rax
	jne	.L434
	.loc 2 2164 0
	movl	-52(%rbp), %eax
	addl	$176, %eax
	mov	%eax, %eax
	movl	%eax, %edi
	call	list_link_active
	testl	%eax, %eax
	jne	.L454
	movl	$__PRETTY_FUNCTION__.11775, %ecx
	movl	$2164, %edx
	movl	$.LC3, %esi
	movl	$.LC89, %edi
	call	__assert_fail
	.align 32
.L434:
	.loc 2 2166 0
	mov	-52(%rbp), %eax
	movl	%nacl:88(%r15,%rax), %eax
	movl	%eax, %edx
	andl	$-9, %edx
	mov	-52(%rbp), %eax
	movl	%edx, %nacl:88(%r15,%rax)
	.loc 2 2167 0
	movl	$arc_stats+512, %eax
	mov	%eax, %eax
	movl	$1, %esi
	movl	%eax, %edi
	call	atomic_add_64
	jmp	.L436
	.align 32
.L454:
	.loc 2 2164 0
	nop
	.align 32
.L436:
	.loc 2 2169 0
	call	gethrtime
	sarq	$23, %rax
	movl	%eax, %edx
	mov	-52(%rbp), %eax
	movl	%edx, %nacl:184(%r15,%rax)
	movl	$0, %ebx
	jmp	.L437
	.align 32
.L433:
	.loc 2 2178 0
	call	gethrtime
	movq	%rax, %rdx
	sarq	$23, %rdx
	mov	-52(%rbp), %eax
	movl	%nacl:184(%r15,%rax), %eax
	addl	$7, %eax
	cltq
	cmpq	%rax, %rdx
	jle	.L438
	.loc 2 2184 0
	call	gethrtime
	sarq	$23, %rax
	movl	%eax, %edx
	mov	-52(%rbp), %eax
	movl	%edx, %nacl:184(%r15,%rax)
	.loc 2 2186 0
	mov	arc_mfu(%rip), %ecx
	movl	-56(%rbp), %edx
	movl	-52(%rbp), %eax
	movl	%eax, %esi
	movl	%ecx, %edi
	call	arc_change_state
	.align 32
.L438:
	.loc 2 2188 0
	movl	$arc_stats+512, %eax
	mov	%eax, %eax
	movl	$1, %esi
	movl	%eax, %edi
	call	atomic_add_64
	jmp	.L431
	.align 32
.L432:
	.loc 2 2189 0
	mov	-52(%rbp), %eax
	mov	%nacl:172(%r15,%rax), %edx
	mov	arc_mru_ghost(%rip), %eax
	cmpl	%eax, %edx
	jne	.L439
.LBB53:
	.loc 2 2197 0
	mov	-52(%rbp), %eax
	movl	%nacl:88(%r15,%rax), %eax
	andl	$8, %eax
	testl	%eax, %eax
	je	.L440
	.loc 2 2198 0
	movl	arc_mru(%rip), %eax
	movl	%eax, -48(%rbp)
	.loc 2 2199 0
	movl	-52(%rbp), %eax
	addl	$192, %eax
	mov	%eax, %eax
	movl	%eax, %edi
	call	refcount_count
	testq	%rax, %rax
	jle	.L455
	.loc 2 2200 0
	mov	-52(%rbp), %eax
	movl	%nacl:88(%r15,%rax), %eax
	movl	%eax, %edx
	andl	$-9, %edx
	mov	-52(%rbp), %eax
	movl	%edx, %nacl:88(%r15,%rax)
	jmp	.L442
	.align 32
.L440:
	.loc 2 2203 0
	movl	arc_mfu(%rip), %eax
	movl	%eax, -48(%rbp)
	jmp	.L442
	.align 32
.L455:
	.loc 2 2200 0
	nop
	.align 32
.L442:
	.loc 2 2207 0
	call	gethrtime
	sarq	$23, %rax
	movl	%eax, %edx
	mov	-52(%rbp), %eax
	movl	%edx, %nacl:184(%r15,%rax)
	.loc 2 2208 0
	movl	-56(%rbp), %edx
	movl	-52(%rbp), %ecx
	movl	-48(%rbp), %eax
	movl	%ecx, %esi
	movl	%eax, %edi
	call	arc_change_state
	.loc 2 2210 0
	movl	$arc_stats+560, %eax
	mov	%eax, %eax
	movl	$1, %esi
	movl	%eax, %edi
	call	atomic_add_64
	jmp	.L431
	.align 32
.L439:
.LBE53:
	.loc 2 2211 0
	mov	-52(%rbp), %eax
	mov	%nacl:172(%r15,%rax), %edx
	mov	arc_mfu(%rip), %eax
	cmpl	%eax, %edx
	jne	.L443
	.loc 2 2221 0
	mov	-52(%rbp), %eax
	movl	%nacl:88(%r15,%rax), %eax
	andl	$8, %eax
	testl	%eax, %eax
	je	.L444
	.loc 2 2222 0
	movl	-52(%rbp), %eax
	addl	$192, %eax
	mov	%eax, %eax
	movl	%eax, %edi
	call	refcount_count
	testq	%rax, %rax
	je	.L445
	movl	$__PRETTY_FUNCTION__.11775, %ecx
	movl	$2222, %edx
	movl	$.LC3, %esi
	movl	$.LC90, %edi
	call	__assert_fail
	.align 32
.L445:
	.loc 2 2223 0
	movl	-52(%rbp), %eax
	addl	$176, %eax
	mov	%eax, %eax
	movl	%eax, %edi
	call	list_link_active
	testl	%eax, %eax
	jne	.L444
	movl	$__PRETTY_FUNCTION__.11775, %ecx
	movl	$2223, %edx
	movl	$.LC3, %esi
	movl	$.LC89, %edi
	call	__assert_fail
	.align 32
.L444:
	.loc 2 2225 0
	movl	$arc_stats+608, %eax
	mov	%eax, %eax
	movl	$1, %esi
	movl	%eax, %edi
	call	atomic_add_64
	.loc 2 2226 0
	call	gethrtime
	sarq	$23, %rax
	movl	%eax, %edx
	mov	-52(%rbp), %eax
	movl	%edx, %nacl:184(%r15,%rax)
	jmp	.L431
	.align 32
.L443:
	.loc 2 2227 0
	mov	-52(%rbp), %eax
	mov	%nacl:172(%r15,%rax), %edx
	mov	arc_mfu_ghost(%rip), %eax
	cmpl	%eax, %edx
	jne	.L446
.LBB54:
	.loc 2 2228 0
	movl	arc_mfu(%rip), %eax
	movl	%eax, -44(%rbp)
	.loc 2 2235 0
	mov	-52(%rbp), %eax
	movl	%nacl:88(%r15,%rax), %eax
	andl	$8, %eax
	testl	%eax, %eax
	je	.L447
.LBB55:
	.loc 2 2240 0
	movl	-52(%rbp), %eax
	addl	$192, %eax
	mov	%eax, %eax
	movl	%eax, %edi
	call	refcount_count
	movq	%rax, -40(%rbp)
	movq	$0, -32(%rbp)
	movq	-40(%rbp), %rax
	cmpq	-32(%rbp), %rax
	je	.L448
.LBB56:
	naclsspq	$272, %r15
	leal	24(%rsp), %eax
	addq	$15, %rax
	shrq	$4, %rax
	salq	$4, %rax
	mov	%eax, %eax
	movl	%eax, -20(%rbp)
	movl	$.LC20, %eax
	mov	%eax, %ebx
	movl	-20(%rbp), %eax
	movq	-32(%rbp), %rdx
	movq	%rdx, 16(%rsp)
	movl	$.LC22, 8(%rsp)
	movq	-40(%rbp), %rdx
	movq	%rdx, (%rsp)
	movl	$.LC21, %r9d
	movl	$.LC22, %r8d
	movl	$.LC91, %ecx
	movl	%ebx, %edx
	movl	$256, %esi
	movl	%eax, %edi
	movl	$0, %eax
	call	snprintf
	movl	$.LC24, %eax
	mov	%eax, %ebx
	mov	stderr(%rip), %eax
	movl	-20(%rbp), %edx
	movl	%edx, %r9d
	movl	$__PRETTY_FUNCTION__.11775, %r8d
	movl	$2240, %ecx
	movl	$.LC3, %edx
	movl	%ebx, %esi
	movl	%eax, %edi
	movl	$0, %eax
	call	fprintf
	call	abort
	.align 32
.L448:
.LBE56:
.LBE55:
	.loc 2 2241 0
	movl	arc_mru(%rip), %eax
	movl	%eax, -44(%rbp)
	.align 32
.L447:
	.loc 2 2244 0
	call	gethrtime
	sarq	$23, %rax
	movl	%eax, %edx
	mov	-52(%rbp), %eax
	movl	%edx, %nacl:184(%r15,%rax)
	.loc 2 2246 0
	movl	-56(%rbp), %edx
	movl	-52(%rbp), %ecx
	movl	-44(%rbp), %eax
	movl	%ecx, %esi
	movl	%eax, %edi
	call	arc_change_state
	.loc 2 2248 0
	movl	$arc_stats+656, %eax
	mov	%eax, %eax
	movl	$1, %esi
	movl	%eax, %edi
	call	atomic_add_64
	jmp	.L431
	.align 32
.L446:
.LBE54:
	.loc 2 2249 0
	mov	-52(%rbp), %eax
	mov	%nacl:172(%r15,%rax), %edx
	mov	arc_l2c_only(%rip), %eax
	cmpl	%eax, %edx
	jne	.L449
	.loc 2 2254 0
	call	gethrtime
	sarq	$23, %rax
	movl	%eax, %edx
	mov	-52(%rbp), %eax
	movl	%edx, %nacl:184(%r15,%rax)
	.loc 2 2256 0
	mov	arc_mfu(%rip), %ecx
	movl	-56(%rbp), %edx
	movl	-52(%rbp), %eax
	movl	%eax, %esi
	movl	%ecx, %edi
	call	arc_change_state
	jmp	.L431
	.align 32
.L449:
	.loc 2 2258 0
	movl	$__PRETTY_FUNCTION__.11775, %ecx
	movl	$2258, %edx
	movl	$.LC3, %esi
	movl	$.LC92, %edi
	call	__assert_fail
	.align 32
.L431:
	movl	$1, %ebx
	.align 32
.L437:
	movq	8(%rbp), %rsi
	movl	$arc_access, %edi
	call	__cyg_profile_func_exit
	cmpl	$1, %ebx
	.loc 2 2260 0
	movq	-8(%rbp), %rbx
	movq	%rbp, %rsp
	popq	%r11
	naclrestbp	%r11d, %r15
	popq	%r11
	nacljmp	%r11d,%r15
	.cfi_endproc
.LFE46:
	.size	arc_access, .-arc_access
	.section	.rodata
	.align 8
.LC93:
	.string	"arc_buf_remove_ref(buf, arg) == 1"
	.text
	.align 32
.globl arc_bcopy_func
	.type	arc_bcopy_func, @function
arc_bcopy_func:
.LFB47:
	.loc 2 2266 0
	.cfi_startproc
	pushq	%rbp
.LCFI88:
	.cfi_def_cfa_offset 16
	movq	%rsp, %rbp
	.cfi_offset 6, -16
.LCFI89:
	.cfi_def_cfa_register 6
	pushq	%rbx
	naclsspq	$24, %r15
	movl	%edi, -20(%rbp)
	movl	%esi, -24(%rbp)
	movl	%edx, -28(%rbp)
	.loc 2 2266 0
	movq	8(%rbp), %rsi
	movl	$arc_bcopy_func, %edi
	.cfi_offset 3, -24
	call	__cyg_profile_func_enter
	.loc 2 2267 0
	mov	-24(%rbp), %eax
	mov	%nacl:(%r15,%rax), %eax
	movq	%nacl:160(%r15,%rax), %rax
	movl	%eax, %edx
	mov	-24(%rbp), %eax
	mov	%nacl:8(%r15,%rax), %ecx
	movl	-28(%rbp), %eax
	movl	%eax, %esi
	movl	%ecx, %edi
	call	bcopy
	.loc 2 2268 0
	movl	-28(%rbp), %edx
	movl	-24(%rbp), %eax
	movl	%edx, %esi
	movl	%eax, %edi
	call	arc_buf_remove_ref
	cmpl	$1, %eax
	je	.L457
	movl	$.LC24, %eax
	mov	%eax, %ebx
	mov	stderr(%rip), %eax
	movl	$.LC93, %r9d
	movl	$__PRETTY_FUNCTION__.11911, %r8d
	movl	$2268, %ecx
	movl	$.LC3, %edx
	movl	%ebx, %esi
	movl	%eax, %edi
	movl	$0, %eax
	call	fprintf
	call	abort
	.align 32
.L457:
	movq	8(%rbp), %rsi
	movl	$arc_bcopy_func, %edi
	call	__cyg_profile_func_exit
	.loc 2 2269 0
	naclaspq	$24, %r15
	popq	%rbx
	popq	%r11
	naclrestbp	%r11d, %r15
	popq	%r11
	nacljmp	%r11d,%r15
	.cfi_endproc
.LFE47:
	.size	arc_bcopy_func, .-arc_bcopy_func
	.align 32
.globl arc_getbuf_func
	.type	arc_getbuf_func, @function
arc_getbuf_func:
.LFB48:
	.loc 2 2274 0
	.cfi_startproc
	pushq	%rbp
.LCFI90:
	.cfi_def_cfa_offset 16
	movq	%rsp, %rbp
	.cfi_offset 6, -16
.LCFI91:
	.cfi_def_cfa_register 6
	pushq	%rbx
	naclsspq	$40, %r15
	movl	%edi, -36(%rbp)
	movl	%esi, -40(%rbp)
	movl	%edx, -44(%rbp)
	.loc 2 2274 0
	movq	8(%rbp), %rsi
	movl	$arc_getbuf_func, %edi
	.cfi_offset 3, -24
	call	__cyg_profile_func_enter
	.loc 2 2275 0
	movl	-44(%rbp), %eax
	movl	%eax, -20(%rbp)
	.loc 2 2276 0
	cmpl	$0, -36(%rbp)
	je	.L460
	mov	-36(%rbp), %eax
	movl	%nacl:528(%r15,%rax), %eax
	testl	%eax, %eax
	je	.L460
	.loc 2 2277 0
	movl	-44(%rbp), %edx
	movl	-40(%rbp), %eax
	movl	%edx, %esi
	movl	%eax, %edi
	call	arc_buf_remove_ref
	cmpl	$1, %eax
	je	.L461
	movl	$.LC24, %eax
	mov	%eax, %ebx
	mov	stderr(%rip), %eax
	movl	$.LC93, %r9d
	movl	$__PRETTY_FUNCTION__.11928, %r8d
	movl	$2277, %ecx
	movl	$.LC3, %edx
	movl	%ebx, %esi
	movl	%eax, %edi
	movl	$0, %eax
	call	fprintf
	call	abort
	.align 32
.L461:
	.loc 2 2278 0
	mov	-20(%rbp), %eax
	movl	$0, %nacl:(%r15,%rax)
	.loc 2 2276 0
	jmp	.L462
	.align 32
.L460:
	.loc 2 2280 0
	mov	-20(%rbp), %eax
	movl	-40(%rbp), %edx
	movl	%edx, %nacl:(%r15,%rax)
	.align 32
.L462:
	movq	8(%rbp), %rsi
	movl	$arc_getbuf_func, %edi
	call	__cyg_profile_func_exit
	.loc 2 2282 0
	naclaspq	$40, %r15
	popq	%rbx
	popq	%r11
	naclrestbp	%r11d, %r15
	popq	%r11
	nacljmp	%r11d,%r15
	.cfi_endproc
.LFE48:
	.size	arc_getbuf_func, .-arc_getbuf_func
	.section	.rodata
	.align 8
.LC94:
	.ascii	"(found == ((void *)0) && ((hdr)->b_flags & (1 << 12)) && has"
	.ascii	"h_lock == ((void *)0)"
	.string	") || (found == hdr && ((&hdr->b_dva)->dva_word[1] == ((&(zio->io_bp)->blk_dva[0]))->dva_word[1] && (&hdr->b_dva)->dva_word[0] == ((&(zio->io_bp)->blk_dva[0]))->dva_word[0])) || (found == hdr && ((hdr)->b_flags & (1 << 10) && (hdr)->b_l2hdr != ((void *)0)))"
.LC95:
	.string	"callback_list != ((void *)0)"
.LC96:
	.string	"!((hdr)->b_flags & (1 << 13))"
	.align 8
.LC97:
	.string	"refcount_is_zero(&hdr->b_refcnt) || callback_list != ((void *)0)"
	.text
	.align 32
	.type	arc_read_done, @function
arc_read_done:
.LFB49:
	.loc 2 2286 0
	.cfi_startproc
	pushq	%rbp
.LCFI92:
	.cfi_def_cfa_offset 16
	movq	%rsp, %rbp
	.cfi_offset 6, -16
.LCFI93:
	.cfi_def_cfa_register 6
	pushq	%rbx
	naclsspq	$104, %r15
	movl	%edi, -68(%rbp)
	.loc 2 2286 0
	movq	8(%rbp), %rsi
	movl	$arc_read_done, %edi
	.cfi_offset 3, -24
	call	__cyg_profile_func_enter
	.loc 2 2292 0
	movl	$0, -36(%rbp)
	.loc 2 2294 0
	mov	-68(%rbp), %eax
	mov	%nacl:244(%r15,%rax), %eax
	movl	%eax, -52(%rbp)
	.loc 2 2295 0
	mov	-52(%rbp), %eax
	movl	%nacl:(%r15,%rax), %eax
	movl	%eax, -60(%rbp)
	.loc 2 2305 0
	mov	-60(%rbp), %eax
	movq	%nacl:16(%r15,%rax), %rax
	mov	-60(%rbp), %esi
	mov	-68(%rbp), %edx
	mov	%nacl:8(%r15,%rdx), %ebx
	leal	-64(%rbp), %edx
	movl	%edx, %ecx
	movq	%rax, %rdx
	movl	%ebx, %edi
	call	buf_hash_find
	mov	%eax, %eax
	movl	%eax, -56(%rbp)
	.loc 2 2308 0
	cmpl	$0, -56(%rbp)
	jne	.L465
	mov	-60(%rbp), %eax
	movl	%nacl:88(%r15,%rax), %eax
	andl	$4096, %eax
	testl	%eax, %eax
	je	.L465
	mov	-64(%rbp), %eax
	testq	%rax, %rax
	je	.L466
	.align 32
.L465:
	movl	-56(%rbp), %eax
	cmpl	-60(%rbp), %eax
	jne	.L467
	mov	-60(%rbp), %eax
	movq	%nacl:8(%r15,%rax), %rdx
	mov	-68(%rbp), %eax
	mov	%nacl:72(%r15,%rax), %eax
	movq	%nacl:8(%r15,%rax), %rax
	cmpq	%rax, %rdx
	jne	.L467
	mov	-60(%rbp), %eax
	movq	%nacl:(%r15,%rax), %rdx
	mov	-68(%rbp), %eax
	mov	%nacl:72(%r15,%rax), %eax
	movq	%nacl:(%r15,%rax), %rax
	cmpq	%rax, %rdx
	je	.L466
	.align 32
.L467:
	movl	-56(%rbp), %eax
	cmpl	-60(%rbp), %eax
	jne	.L468
	mov	-60(%rbp), %eax
	movl	%nacl:88(%r15,%rax), %eax
	andl	$1024, %eax
	testl	%eax, %eax
	je	.L468
	mov	-60(%rbp), %eax
	mov	%nacl:288(%r15,%rax), %eax
	testq	%rax, %rax
	jne	.L466
	.align 32
.L468:
	movl	$__PRETTY_FUNCTION__.11951, %ecx
	movl	$2310, %edx
	movl	$.LC3, %esi
	movl	$.LC94, %edi
	call	__assert_fail
	.align 32
.L466:
	.loc 2 2312 0
	mov	-60(%rbp), %eax
	movl	%nacl:88(%r15,%rax), %eax
	movl	%eax, %edx
	andl	$-131073, %edx
	mov	-60(%rbp), %eax
	movl	%edx, %nacl:88(%r15,%rax)
	.loc 2 2313 0
	movl	l2arc_noprefetch(%rip), %eax
	testl	%eax, %eax
	je	.L469
	mov	-60(%rbp), %eax
	movl	%nacl:88(%r15,%rax), %eax
	andl	$8, %eax
	testl	%eax, %eax
	je	.L469
	.loc 2 2314 0
	mov	-60(%rbp), %eax
	movl	%nacl:88(%r15,%rax), %eax
	movl	%eax, %edx
	andl	$-33, %edx
	mov	-60(%rbp), %eax
	movl	%edx, %nacl:88(%r15,%rax)
	.align 32
.L469:
	.loc 2 2317 0
	mov	-60(%rbp), %eax
	movl	%nacl:96(%r15,%rax), %eax
	movl	%eax, -44(%rbp)
	.loc 2 2318 0
	cmpl	$0, -44(%rbp)
	jne	.L470
	movl	$__PRETTY_FUNCTION__.11951, %ecx
	movl	$2318, %edx
	movl	$.LC3, %esi
	movl	$.LC95, %edi
	call	__assert_fail
	.align 32
.L470:
	.loc 2 2319 0
	mov	-68(%rbp), %eax
	mov	%nacl:72(%r15,%rax), %eax
	movq	%nacl:48(%r15,%rax), %rax
	sarq	$63, %rax
	cmpq	$-1, %rax
	je	.L471
.LBB57:
	.loc 2 2320 0
	mov	-68(%rbp), %eax
	mov	%nacl:72(%r15,%rax), %eax
	movq	%nacl:48(%r15,%rax), %rax
	shrq	$56, %rax
	andl	$31, %eax
	.loc 2 2322 0
	testq	%rax, %rax
	jne	.L472
	mov	-68(%rbp), %eax
	mov	%nacl:72(%r15,%rax), %eax
	movq	%nacl:48(%r15,%rax), %rax
	shrq	$48, %rax
	andl	$255, %eax
	movl	%eax, %edx
	movl	%edx, %eax
	addl	%eax, %eax
	addl	%edx, %eax
	sall	$2, %eax
	cltq
	mov	%nacl:dmu_ot(%r15,%rax), %eax
	jmp	.L473
	.align 32
.L472:
	movl	$byteswap_uint64_array, %eax
	mov	%eax, %eax
	.align 32
.L473:
	movl	%eax, -32(%rbp)
	.loc 2 2323 0
	mov	-60(%rbp), %eax
	movq	%nacl:160(%r15,%rax), %rax
	movl	%eax, %edx
	mov	-52(%rbp), %eax
	mov	%nacl:8(%r15,%rax), %ecx
	mov	-32(%rbp), %eax
	movl	%edx, %esi
	movl	%ecx, %edi
	naclcall	%eax,%r15
	.align 32
.L471:
.LBE57:
	.loc 2 2326 0
	movl	-52(%rbp), %eax
	movl	$0, %esi
	movl	%eax, %edi
	call	arc_cksum_compute
	.loc 2 2329 0
	movl	-52(%rbp), %eax
	movl	%eax, -48(%rbp)
	.loc 2 2330 0
	movl	-44(%rbp), %eax
	movl	%eax, -40(%rbp)
	jmp	.L474
	.align 32
.L477:
	.loc 2 2331 0
	mov	-40(%rbp), %eax
	mov	%nacl:4(%r15,%rax), %eax
	testq	%rax, %rax
	je	.L475
	.loc 2 2332 0
	cmpl	$0, -48(%rbp)
	jne	.L476
	.loc 2 2333 0
	movl	-52(%rbp), %eax
	movl	%eax, %edi
	call	arc_buf_clone
	mov	%eax, %eax
	movl	%eax, -48(%rbp)
	.align 32
.L476:
	.loc 2 2334 0
	mov	-40(%rbp), %eax
	movl	-48(%rbp), %edx
	movl	%edx, %nacl:8(%r15,%rax)
	.loc 2 2335 0
	movl	$0, -48(%rbp)
	.align 32
.L475:
	.loc 2 2330 0
	mov	-40(%rbp), %eax
	movl	%nacl:16(%r15,%rax), %eax
	movl	%eax, -40(%rbp)
	.align 32
.L474:
	cmpl	$0, -40(%rbp)
	jne	.L477
	.loc 2 2338 0
	mov	-60(%rbp), %eax
	movl	$0, %nacl:96(%r15,%rax)
	.loc 2 2339 0
	mov	-60(%rbp), %eax
	movl	%nacl:88(%r15,%rax), %eax
	movl	%eax, %edx
	andb	$251, %dh
	mov	-60(%rbp), %eax
	movl	%edx, %nacl:88(%r15,%rax)
	.loc 2 2340 0
	mov	-60(%rbp), %eax
	movl	%nacl:88(%r15,%rax), %eax
	andl	$8192, %eax
	testl	%eax, %eax
	je	.L478
	movl	$__PRETTY_FUNCTION__.11951, %ecx
	movl	$2340, %edx
	movl	$.LC3, %esi
	movl	$.LC96, %edi
	call	__assert_fail
	.align 32
.L478:
	.loc 2 2341 0
	movl	-48(%rbp), %eax
	cmpl	-52(%rbp), %eax
	jne	.L479
	.loc 2 2342 0
	mov	-60(%rbp), %eax
	movl	%nacl:88(%r15,%rax), %eax
	movl	%eax, %edx
	orb	$32, %dh
	mov	-60(%rbp), %eax
	movl	%edx, %nacl:88(%r15,%rax)
	.align 32
.L479:
	.loc 2 2344 0
	movl	-60(%rbp), %eax
	addl	$192, %eax
	mov	%eax, %eax
	movl	%eax, %edi
	call	refcount_is_zero
	testl	%eax, %eax
	jne	.L480
	cmpl	$0, -44(%rbp)
	jne	.L480
	movl	$__PRETTY_FUNCTION__.11951, %ecx
	movl	$2344, %edx
	movl	$.LC3, %esi
	movl	$.LC97, %edi
	call	__assert_fail
	.align 32
.L480:
	.loc 2 2346 0
	mov	-68(%rbp), %eax
	movl	%nacl:528(%r15,%rax), %eax
	testl	%eax, %eax
	je	.L481
	.loc 2 2347 0
	mov	-60(%rbp), %eax
	movl	%nacl:88(%r15,%rax), %eax
	movl	%eax, %edx
	orb	$8, %dh
	mov	-60(%rbp), %eax
	movl	%edx, %nacl:88(%r15,%rax)
	.loc 2 2348 0
	mov	-60(%rbp), %eax
	mov	%nacl:172(%r15,%rax), %edx
	mov	arc_anon(%rip), %eax
	cmpl	%eax, %edx
	je	.L482
	.loc 2 2349 0
	mov	-64(%rbp), %edx
	mov	arc_anon(%rip), %ecx
	movl	-60(%rbp), %eax
	movl	%eax, %esi
	movl	%ecx, %edi
	call	arc_change_state
	.align 32
.L482:
	.loc 2 2350 0
	mov	-60(%rbp), %eax
	movl	%nacl:88(%r15,%rax), %eax
	andl	$512, %eax
	testl	%eax, %eax
	je	.L483
	.loc 2 2351 0
	movl	-60(%rbp), %eax
	movl	%eax, %edi
	call	buf_hash_remove
	.align 32
.L483:
	.loc 2 2352 0
	movl	-60(%rbp), %eax
	addl	$192, %eax
	mov	%eax, %eax
	movl	%eax, %edi
	call	refcount_is_zero
	movl	%eax, -36(%rbp)
	.align 32
.L481:
	.loc 2 2360 0
	movl	-60(%rbp), %eax
	addl	$104, %eax
	mov	%eax, %eax
	movl	%eax, %edi
	call	cv_broadcast
	.loc 2 2362 0
	mov	-64(%rbp), %eax
	testq	%rax, %rax
	je	.L484
	.loc 2 2369 0
	mov	-68(%rbp), %eax
	movl	%nacl:528(%r15,%rax), %eax
	testl	%eax, %eax
	jne	.L485
	mov	-60(%rbp), %eax
	mov	%nacl:172(%r15,%rax), %edx
	mov	arc_anon(%rip), %eax
	cmpl	%eax, %edx
	jne	.L485
	.loc 2 2370 0
	mov	-64(%rbp), %edx
	movl	-60(%rbp), %eax
	movl	%edx, %esi
	movl	%eax, %edi
	call	arc_access
	.align 32
.L485:
	.loc 2 2371 0
	mov	-64(%rbp), %eax
	movl	%eax, %edi
	call	mutex_exit
	.loc 2 2384 0
	jmp	.L488
	.align 32
.L484:
.LBB58:
	.loc 2 2379 0
	mov	-60(%rbp), %eax
	mov	%nacl:172(%r15,%rax), %eax
	movl	%eax, -28(%rbp)
	mov	arc_anon(%rip), %eax
	movl	%eax, -24(%rbp)
	movl	-28(%rbp), %eax
	cmpl	-24(%rbp), %eax
	je	.L487
.LBB59:
	naclsspq	$272, %r15
	leal	24(%rsp), %eax
	addq	$15, %rax
	shrq	$4, %rax
	salq	$4, %rax
	mov	%eax, %eax
	movl	%eax, -20(%rbp)
	mov	-24(%rbp), %ecx
	mov	-28(%rbp), %edx
	movl	$.LC20, %eax
	mov	%eax, %ebx
	movl	-20(%rbp), %eax
	movq	%rcx, 16(%rsp)
	movl	$.LC22, 8(%rsp)
	movq	%rdx, (%rsp)
	movl	$.LC60, %r9d
	movl	$.LC22, %r8d
	movl	$.LC61, %ecx
	movl	%ebx, %edx
	movl	$256, %esi
	movl	%eax, %edi
	movl	$0, %eax
	call	snprintf
	movl	$.LC24, %eax
	mov	%eax, %ebx
	mov	stderr(%rip), %eax
	movl	-20(%rbp), %edx
	movl	%edx, %r9d
	movl	$__PRETTY_FUNCTION__.11951, %r8d
	movl	$2379, %ecx
	movl	$.LC3, %edx
	movl	%ebx, %esi
	movl	%eax, %edi
	movl	$0, %eax
	call	fprintf
	call	abort
	.align 32
.L487:
.LBE59:
.LBE58:
	.loc 2 2380 0
	movl	-60(%rbp), %eax
	addl	$192, %eax
	mov	%eax, %eax
	movl	%eax, %edi
	call	refcount_is_zero
	movl	%eax, -36(%rbp)
	.loc 2 2384 0
	jmp	.L488
	.align 32
.L491:
	.loc 2 2385 0
	mov	-40(%rbp), %eax
	mov	%nacl:4(%r15,%rax), %eax
	testq	%rax, %rax
	je	.L489
	.loc 2 2386 0
	mov	-40(%rbp), %eax
	mov	%nacl:4(%r15,%rax), %eax
	mov	-40(%rbp), %edx
	mov	%nacl:(%r15,%rdx), %esi
	mov	-40(%rbp), %edx
	mov	%nacl:8(%r15,%rdx), %ebx
	movl	-68(%rbp), %ecx
	movl	%esi, %edx
	movl	%ebx, %esi
	movl	%ecx, %edi
	naclcall	%eax,%r15
	.align 32
.L489:
	.loc 2 2388 0
	mov	-40(%rbp), %eax
	mov	%nacl:12(%r15,%rax), %eax
	testq	%rax, %rax
	je	.L490
	.loc 2 2389 0
	mov	-40(%rbp), %eax
	mov	%nacl:12(%r15,%rax), %eax
	mov	-68(%rbp), %edx
	movl	%nacl:528(%r15,%rdx), %edx
	movl	%edx, %nacl:528(%r15,%rax)
	.loc 2 2390 0
	mov	-40(%rbp), %eax
	mov	%nacl:12(%r15,%rax), %eax
	movl	%eax, %edi
	call	zio_nowait
	.align 32
.L490:
	.loc 2 2393 0
	mov	-40(%rbp), %eax
	movl	%nacl:16(%r15,%rax), %eax
	movl	%eax, -44(%rbp)
	.loc 2 2394 0
	movl	-40(%rbp), %eax
	movl	$20, %esi
	movl	%eax, %edi
	call	umem_free
	.align 32
.L488:
	.loc 2 2384 0
	movl	-44(%rbp), %eax
	movl	%eax, -40(%rbp)
	cmpl	$0, -40(%rbp)
	jne	.L491
	.loc 2 2397 0
	cmpl	$0, -36(%rbp)
	je	.L492
	.loc 2 2398 0
	movl	-60(%rbp), %eax
	movl	%eax, %edi
	call	arc_hdr_destroy
	.align 32
.L492:
	movq	8(%rbp), %rsi
	movl	$arc_read_done, %edi
	call	__cyg_profile_func_exit
	.loc 2 2399 0
	movq	-8(%rbp), %rbx
	movq	%rbp, %rsp
	popq	%r11
	naclrestbp	%r11d, %r15
	popq	%r11
	nacljmp	%r11d,%r15
	.cfi_endproc
.LFE49:
	.size	arc_read_done, .-arc_read_done
	.section	.rodata
	.align 8
.LC98:
	.string	"!refcount_is_zero(&pbuf->b_hdr->b_refcnt)"
.LC99:
	.string	"pbuf->b_hdr->b_size"
.LC100:
	.string	"<"
	.align 8
.LC101:
	.string	"(char *)bp - (char *)pbuf->b_data"
.LC102:
	.string	"pbuf->b_hdr"
.LC103:
	.string	"hdr"
	.text
	.align 32
.globl arc_read
	.type	arc_read, @function
arc_read:
.LFB50:
	.loc 2 2427 0
	.cfi_startproc
	pushq	%rbp
.LCFI94:
	.cfi_def_cfa_offset 16
	movq	%rsp, %rbp
	.cfi_offset 6, -16
.LCFI95:
	.cfi_def_cfa_register 6
	pushq	%rbx
	naclsspq	$120, %r15
	movl	%edi, -68(%rbp)
	movl	%esi, -72(%rbp)
	movl	%edx, -76(%rbp)
	movl	%ecx, -80(%rbp)
	movl	%r8d, -84(%rbp)
	movl	%r9d, -88(%rbp)
	.loc 2 2427 0
	movq	8(%rbp), %rsi
	movl	$arc_read, %edi
	.cfi_offset 3, -24
	call	__cyg_profile_func_enter
	.loc 2 2429 0
	mov	-80(%rbp), %eax
	movl	%nacl:(%r15,%rax), %eax
	movl	%eax, -52(%rbp)
	.loc 2 2431 0
	mov	-80(%rbp), %eax
	mov	%nacl:(%r15,%rax), %eax
	addl	$192, %eax
	mov	%eax, %eax
	movl	%eax, %edi
	call	refcount_is_zero
	testl	%eax, %eax
	je	.L495
	movl	$__PRETTY_FUNCTION__.12117, %ecx
	movl	$2431, %edx
	movl	$.LC3, %esi
	movl	$.LC98, %edi
	call	__assert_fail
	.align 32
.L495:
.LBB60:
	.loc 2 2432 0
	movl	-76(%rbp), %edx
	mov	-80(%rbp), %eax
	mov	%nacl:8(%r15,%rax), %eax
	movl	%edx, %ecx
	subl	%eax, %ecx
	movl	%ecx, %eax
	cltq
	movq	%rax, -48(%rbp)
	mov	-80(%rbp), %eax
	mov	%nacl:(%r15,%rax), %eax
	movq	%nacl:160(%r15,%rax), %rax
	movq	%rax, -40(%rbp)
	movq	-48(%rbp), %rax
	cmpq	-40(%rbp), %rax
	jb	.L496
.LBB61:
	naclsspq	$272, %r15
	leal	24(%rsp), %eax
	addq	$15, %rax
	shrq	$4, %rax
	salq	$4, %rax
	mov	%eax, %eax
	movl	%eax, -32(%rbp)
	movl	$.LC20, %eax
	mov	%eax, %ebx
	movl	-32(%rbp), %eax
	movq	-40(%rbp), %rdx
	movq	%rdx, 16(%rsp)
	movl	$.LC100, 8(%rsp)
	movq	-48(%rbp), %rdx
	movq	%rdx, (%rsp)
	movl	$.LC99, %r9d
	movl	$.LC100, %r8d
	movl	$.LC101, %ecx
	movl	%ebx, %edx
	movl	$256, %esi
	movl	%eax, %edi
	movl	$0, %eax
	call	snprintf
	movl	$.LC24, %eax
	mov	%eax, %ebx
	mov	stderr(%rip), %eax
	movl	-32(%rbp), %edx
	movl	%edx, %r9d
	movl	$__PRETTY_FUNCTION__.12117, %r8d
	movl	$2432, %ecx
	movl	$.LC3, %edx
	movl	%ebx, %esi
	movl	%eax, %edi
	movl	$0, %eax
	call	fprintf
	call	abort
	.align 32
.L496:
.LBE61:
.LBE60:
	.loc 2 2433 0
	mov	-80(%rbp), %eax
	mov	%nacl:(%r15,%rax), %eax
	addl	$300, %eax
	mov	%eax, %eax
	movl	$0, %esi
	movl	%eax, %edi
	call	rw_enter
	.loc 2 2435 0
	movl	-88(%rbp), %edi
	movl	-84(%rbp), %ecx
	movl	-76(%rbp), %edx
	movl	-72(%rbp), %ebx
	movl	-68(%rbp), %eax
	movl	40(%rbp), %esi
	movl	%esi, 16(%rsp)
	movl	32(%rbp), %esi
	movl	%esi, 8(%rsp)
	movl	24(%rbp), %esi
	movl	%esi, (%rsp)
	movl	16(%rbp), %r9d
	movl	%edi, %r8d
	movl	%ebx, %esi
	movl	%eax, %edi
	call	arc_read_nolock
	movl	%eax, -56(%rbp)
.LBB62:
	.loc 2 2438 0
	movl	-52(%rbp), %eax
	movl	%eax, -28(%rbp)
	mov	-80(%rbp), %eax
	mov	%nacl:(%r15,%rax), %eax
	movl	%eax, -24(%rbp)
	movl	-28(%rbp), %eax
	cmpl	-24(%rbp), %eax
	je	.L497
.LBB63:
	naclsspq	$272, %r15
	leal	24(%rsp), %eax
	addq	$15, %rax
	shrq	$4, %rax
	salq	$4, %rax
	mov	%eax, %eax
	movl	%eax, -20(%rbp)
	mov	-24(%rbp), %ecx
	mov	-28(%rbp), %edx
	movl	$.LC20, %eax
	mov	%eax, %ebx
	movl	-20(%rbp), %eax
	movq	%rcx, 16(%rsp)
	movl	$.LC22, 8(%rsp)
	movq	%rdx, (%rsp)
	movl	$.LC102, %r9d
	movl	$.LC22, %r8d
	movl	$.LC103, %ecx
	movl	%ebx, %edx
	movl	$256, %esi
	movl	%eax, %edi
	movl	$0, %eax
	call	snprintf
	movl	$.LC24, %eax
	mov	%eax, %ebx
	mov	stderr(%rip), %eax
	movl	-20(%rbp), %edx
	movl	%edx, %r9d
	movl	$__PRETTY_FUNCTION__.12117, %r8d
	movl	$2438, %ecx
	movl	$.LC3, %edx
	movl	%ebx, %esi
	movl	%eax, %edi
	movl	$0, %eax
	call	fprintf
	call	abort
	.align 32
.L497:
.LBE63:
.LBE62:
	.loc 2 2439 0
	mov	-80(%rbp), %eax
	mov	%nacl:(%r15,%rax), %eax
	addl	$300, %eax
	mov	%eax, %eax
	movl	%eax, %edi
	call	rw_exit
	.loc 2 2440 0
	movl	-56(%rbp), %ebx
	movq	8(%rbp), %rsi
	movl	$arc_read, %edi
	call	__cyg_profile_func_exit
	movl	%ebx, %eax
	.loc 2 2441 0
	movq	-8(%rbp), %rbx
	movq	%rbp, %rsp
	popq	%r11
	naclrestbp	%r11d, %r15
	popq	%r11
	nacljmp	%r11d,%r15
	.cfi_endproc
.LFE50:
	.size	arc_read, .-arc_read
	.section	.rodata
.LC104:
	.string	"*arc_flags & (1 << 2)"
.LC105:
	.string	"acb->acb_done != ((void *)0)"
.LC106:
	.string	"buf"
.LC107:
	.string	"buf->b_data"
	.align 8
.LC108:
	.string	"((hdr->b_state) == arc_mru_ghost || (hdr->b_state) == arc_mfu_ghost || (hdr->b_state) == arc_l2c_only)"
	.align 8
.LC109:
	.string	"refcount_count(&hdr->b_refcnt)"
.LC110:
	.string	"hdr->b_buf == ((void *)0)"
.LC111:
	.string	"hdr->b_datacnt == 0"
.LC112:
	.string	"hdr->b_acb == ((void *)0)"
.LC113:
	.string	"hdr->b_size"
.LC114:
	.string	"*arc_flags & (1 << 1)"
	.text
	.align 32
.globl arc_read_nolock
	.type	arc_read_nolock, @function
arc_read_nolock:
.LFB51:
	.loc 2 2447 0
	.cfi_startproc
	pushq	%rbp
.LCFI96:
	.cfi_def_cfa_offset 16
	movq	%rsp, %rbp
	.cfi_offset 6, -16
.LCFI97:
	.cfi_def_cfa_register 6
	pushq	%rbx
	naclsspq	$200, %r15
	movl	%edi, -132(%rbp)
	movl	%esi, -136(%rbp)
	movl	%edx, -140(%rbp)
	movl	%ecx, -144(%rbp)
	movl	%r8d, -148(%rbp)
	movl	%r9d, -152(%rbp)
	.loc 2 2447 0
	movq	8(%rbp), %rsi
	movl	$arc_read_nolock, %edi
	.cfi_offset 3, -24
	call	__cyg_profile_func_enter
	.align 32
.L500:
	.loc 2 2454 0
	mov	-140(%rbp), %eax
	movq	%nacl:80(%r15,%rax), %rdx
	mov	-140(%rbp), %ebx
	leal	-116(%rbp), %ecx
	movl	-136(%rbp), %eax
	movl	%ebx, %esi
	movl	%eax, %edi
	call	buf_hash_find
	mov	%eax, %eax
	movl	%eax, -112(%rbp)
	.loc 2 2455 0
	cmpl	$0, -112(%rbp)
	je	.L501
	mov	-112(%rbp), %eax
	movl	%nacl:92(%r15,%rax), %eax
	testl	%eax, %eax
	je	.L501
	.loc 2 2457 0
	mov	24(%rbp), %eax
	movl	%nacl:(%r15,%rax), %eax
	movl	%eax, %edx
	orl	$16, %edx
	mov	24(%rbp), %eax
	movl	%edx, %nacl:(%r15,%rax)
	.loc 2 2459 0
	mov	-112(%rbp), %eax
	movl	%nacl:88(%r15,%rax), %eax
	andl	$1024, %eax
	testl	%eax, %eax
	je	.L502
	.loc 2 2461 0
	mov	24(%rbp), %eax
	movl	%nacl:(%r15,%rax), %eax
	andl	$2, %eax
	testl	%eax, %eax
	je	.L503
	.loc 2 2462 0
	mov	-116(%rbp), %edx
	movl	-112(%rbp), %eax
	addl	$104, %eax
	mov	%eax, %eax
	movl	%edx, %esi
	movl	%eax, %edi
	call	cv_wait
	.loc 2 2463 0
	mov	-116(%rbp), %eax
	movl	%eax, %edi
	call	mutex_exit
	.loc 2 2464 0
	jmp	.L500
	.align 32
.L503:
	.loc 2 2466 0
	mov	24(%rbp), %eax
	movl	%nacl:(%r15,%rax), %eax
	andl	$4, %eax
	testl	%eax, %eax
	jne	.L504
	movl	$__PRETTY_FUNCTION__.12173, %ecx
	movl	$2466, %edx
	movl	$.LC3, %esi
	movl	$.LC104, %edi
	call	__assert_fail
	.align 32
.L504:
	.loc 2 2468 0
	cmpl	$0, -144(%rbp)
	je	.L505
.LBB64:
	.loc 2 2469 0
	movl	$0, -100(%rbp)
	.loc 2 2471 0
	movl	$256, %esi
	movl	$20, %edi
	call	umem_zalloc
	mov	%eax, %eax
	movl	%eax, -100(%rbp)
	.loc 2 2473 0
	mov	-100(%rbp), %eax
	movl	-144(%rbp), %edx
	movl	%edx, %nacl:4(%r15,%rax)
	.loc 2 2474 0
	mov	-100(%rbp), %eax
	movl	-148(%rbp), %edx
	movl	%edx, %nacl:(%r15,%rax)
	.loc 2 2475 0
	cmpl	$0, -132(%rbp)
	je	.L506
	.loc 2 2476 0
	movl	-136(%rbp), %ebx
	movl	-132(%rbp), %eax
	movl	16(%rbp), %r8d
	movl	$0, %ecx
	movl	$0, %edx
	movl	%ebx, %esi
	movl	%eax, %edi
	call	zio_null
	mov	%eax, %edx
	mov	-100(%rbp), %eax
	movl	%edx, %nacl:12(%r15,%rax)
	.align 32
.L506:
	.loc 2 2479 0
	mov	-100(%rbp), %eax
	mov	%nacl:4(%r15,%rax), %eax
	testq	%rax, %rax
	jne	.L507
	movl	$__PRETTY_FUNCTION__.12173, %ecx
	movl	$2479, %edx
	movl	$.LC3, %esi
	movl	$.LC105, %edi
	call	__assert_fail
	.align 32
.L507:
	.loc 2 2480 0
	mov	-112(%rbp), %eax
	mov	%nacl:96(%r15,%rax), %edx
	mov	-100(%rbp), %eax
	movl	%edx, %nacl:16(%r15,%rax)
	.loc 2 2481 0
	mov	-112(%rbp), %eax
	movl	-100(%rbp), %edx
	movl	%edx, %nacl:96(%r15,%rax)
	.loc 2 2482 0
	mov	-116(%rbp), %ecx
	movl	-148(%rbp), %edx
	movl	-112(%rbp), %eax
	movl	%ecx, %esi
	movl	%eax, %edi
	call	add_reference
	.loc 2 2483 0
	mov	-116(%rbp), %eax
	movl	%eax, %edi
	call	mutex_exit
	.loc 2 2484 0
	movl	$0, %ebx
	jmp	.L508
	.align 32
.L505:
.LBE64:
	.loc 2 2486 0
	mov	-116(%rbp), %eax
	movl	%eax, %edi
	call	mutex_exit
	.loc 2 2487 0
	movl	$0, %ebx
	jmp	.L508
	.align 32
.L502:
	.loc 2 2490 0
	mov	-112(%rbp), %eax
	mov	%nacl:172(%r15,%rax), %edx
	mov	arc_mru(%rip), %eax
	cmpl	%eax, %edx
	je	.L509
	mov	-112(%rbp), %eax
	mov	%nacl:172(%r15,%rax), %edx
	mov	arc_mfu(%rip), %eax
	cmpl	%eax, %edx
	je	.L509
	movl	$__PRETTY_FUNCTION__.12173, %ecx
	movl	$2490, %edx
	movl	$.LC3, %esi
	movl	$.LC52, %edi
	call	__assert_fail
	.align 32
.L509:
	.loc 2 2492 0
	cmpl	$0, -144(%rbp)
	je	.L510
	.loc 2 2493 0
	mov	-116(%rbp), %ecx
	movl	-148(%rbp), %edx
	movl	-112(%rbp), %eax
	movl	%ecx, %esi
	movl	%eax, %edi
	call	add_reference
	.loc 2 2499 0
	mov	-112(%rbp), %eax
	movl	%nacl:84(%r15,%rax), %eax
	movl	%eax, -108(%rbp)
	.loc 2 2500 0
	cmpl	$0, -108(%rbp)
	jne	.L511
	movl	$__PRETTY_FUNCTION__.12173, %ecx
	movl	$2500, %edx
	movl	$.LC3, %esi
	movl	$.LC106, %edi
	call	__assert_fail
	.align 32
.L511:
	.loc 2 2501 0
	mov	-108(%rbp), %eax
	mov	%nacl:8(%r15,%rax), %eax
	testq	%rax, %rax
	jne	.L512
	movl	$__PRETTY_FUNCTION__.12173, %ecx
	movl	$2501, %edx
	movl	$.LC3, %esi
	movl	$.LC107, %edi
	call	__assert_fail
	.align 32
.L512:
	.loc 2 2502 0
	mov	-112(%rbp), %eax
	movl	%nacl:88(%r15,%rax), %eax
	andl	$8192, %eax
	testl	%eax, %eax
	je	.L513
	.loc 2 2503 0
	mov	-108(%rbp), %eax
	mov	%nacl:12(%r15,%rax), %eax
	testq	%rax, %rax
	je	.L514
	movl	$__PRETTY_FUNCTION__.12173, %ecx
	movl	$2503, %edx
	movl	$.LC3, %esi
	movl	$.LC59, %edi
	call	__assert_fail
	.align 32
.L514:
	.loc 2 2504 0
	mov	-112(%rbp), %eax
	movl	%nacl:88(%r15,%rax), %eax
	movl	%eax, %edx
	andb	$223, %dh
	mov	-112(%rbp), %eax
	movl	%edx, %nacl:88(%r15,%rax)
	.loc 2 2506 0
	jmp	.L516
	.align 32
.L513:
	movl	-108(%rbp), %eax
	movl	%eax, %edi
	call	arc_buf_clone
	mov	%eax, %eax
	movl	%eax, -108(%rbp)
	jmp	.L516
	.align 32
.L510:
	.loc 2 2508 0
	mov	24(%rbp), %eax
	movl	%nacl:(%r15,%rax), %eax
	andl	$8, %eax
	testl	%eax, %eax
	je	.L516
	.loc 2 2509 0
	movl	-112(%rbp), %eax
	addl	$192, %eax
	mov	%eax, %eax
	movl	%eax, %edi
	call	refcount_count
	.loc 2 2508 0
	testq	%rax, %rax
	jne	.L516
	.loc 2 2510 0
	mov	-112(%rbp), %eax
	movl	%nacl:88(%r15,%rax), %eax
	movl	%eax, %edx
	orl	$8, %edx
	mov	-112(%rbp), %eax
	movl	%edx, %nacl:88(%r15,%rax)
	.align 32
.L516:
	.loc 2 2513 0
	mov	-116(%rbp), %edx
	movl	-112(%rbp), %eax
	movl	%edx, %esi
	movl	%eax, %edi
	call	arc_access
	.loc 2 2514 0
	mov	24(%rbp), %eax
	movl	%nacl:(%r15,%rax), %eax
	andl	$32, %eax
	testl	%eax, %eax
	je	.L517
	.loc 2 2515 0
	mov	-112(%rbp), %eax
	movl	%nacl:88(%r15,%rax), %eax
	movl	%eax, %edx
	orl	$32, %edx
	mov	-112(%rbp), %eax
	movl	%edx, %nacl:88(%r15,%rax)
	.align 32
.L517:
	.loc 2 2516 0
	mov	-116(%rbp), %eax
	movl	%eax, %edi
	call	mutex_exit
	.loc 2 2517 0
	movl	$arc_stats+32, %eax
	mov	%eax, %eax
	movl	$1, %esi
	movl	%eax, %edi
	call	atomic_add_64
	.loc 2 2518 0
	mov	-112(%rbp), %eax
	movl	%nacl:88(%r15,%rax), %eax
	andl	$8, %eax
	testl	%eax, %eax
	jne	.L518
	mov	-112(%rbp), %eax
	movl	%nacl:152(%r15,%rax), %eax
	cmpl	$1, %eax
	je	.L519
	movl	$arc_stats+128, %eax
	mov	%eax, %eax
	movl	$1, %esi
	movl	%eax, %edi
	call	atomic_add_64
	jmp	.L521
	.align 32
.L519:
	movl	$arc_stats+224, %eax
	mov	%eax, %eax
	movl	$1, %esi
	movl	%eax, %edi
	call	atomic_add_64
	jmp	.L521
	.align 32
.L518:
	mov	-112(%rbp), %eax
	movl	%nacl:152(%r15,%rax), %eax
	cmpl	$1, %eax
	je	.L522
	movl	$arc_stats+320, %eax
	mov	%eax, %eax
	movl	$1, %esi
	movl	%eax, %edi
	call	atomic_add_64
	jmp	.L521
	.align 32
.L522:
	movl	$arc_stats+416, %eax
	mov	%eax, %eax
	movl	$1, %esi
	movl	%eax, %edi
	call	atomic_add_64
	.align 32
.L521:
	.loc 2 2522 0
	cmpl	$0, -144(%rbp)
	je	.L564
	.loc 2 2523 0
	movl	-148(%rbp), %edx
	movl	-108(%rbp), %ecx
	mov	-144(%rbp), %eax
	movl	%ecx, %esi
	movl	$0, %edi
	naclcall	%eax,%r15
	.loc 2 2455 0
	jmp	.L524
	.align 32
.L501:
.LBB65:
	.loc 2 2525 0
	mov	-140(%rbp), %eax
	movq	%nacl:80(%r15,%rax), %rax
	testq	%rax, %rax
	je	.L525
	mov	-140(%rbp), %eax
	movq	%nacl:48(%r15,%rax), %rax
	andl	$65535, %eax
	addq	$1, %rax
	salq	$9, %rax
	jmp	.L526
	.align 32
.L525:
	movl	$0, %eax
	.align 32
.L526:
	movq	%rax, -96(%rbp)
	.loc 2 2527 0
	movl	$0, -80(%rbp)
	.loc 2 2530 0
	cmpl	$0, -112(%rbp)
	jne	.L527
.LBB66:
	.loc 2 2533 0
	mov	-140(%rbp), %eax
	movq	%nacl:48(%r15,%rax), %rax
	shrq	$56, %rax
	andl	$31, %eax
	testq	%rax, %rax
	jne	.L528
	mov	-140(%rbp), %eax
	movq	%nacl:48(%r15,%rax), %rax
	shrq	$48, %rax
	andl	$255, %eax
	movl	%eax, %edx
	movl	%edx, %eax
	addl	%eax, %eax
	addl	%edx, %eax
	sall	$2, %eax
	movslq	%eax,%rdx
	movl	$dmu_ot+4, %eax
	leaq	(%rdx,%rax), %rax
	movl	%nacl:(%r15,%rax), %eax
	testl	%eax, %eax
	je	.L529
	.align 32
.L528:
	movl	$1, %eax
	jmp	.L530
	.align 32
.L529:
	movl	$0, %eax
	.align 32
.L530:
	movl	%eax, -68(%rbp)
	.loc 2 2534 0
	movq	-96(%rbp), %rax
	movl	%eax, %ebx
	movl	-68(%rbp), %ecx
	movl	-148(%rbp), %edx
	movl	-136(%rbp), %eax
	movl	%ebx, %esi
	movl	%eax, %edi
	call	arc_buf_alloc
	mov	%eax, %eax
	movl	%eax, -108(%rbp)
	.loc 2 2535 0
	mov	-108(%rbp), %eax
	movl	%nacl:(%r15,%rax), %eax
	movl	%eax, -112(%rbp)
	.loc 2 2536 0
	mov	-112(%rbp), %eax
	mov	-140(%rbp), %edx
	movq	%nacl:(%r15,%rdx), %rcx
	movq	%rcx, %nacl:(%r15,%rax)
	movq	%nacl:8(%r15,%rdx), %rdx
	movq	%rdx, %nacl:8(%r15,%rax)
	.loc 2 2537 0
	mov	-140(%rbp), %eax
	movq	%nacl:80(%r15,%rax), %rdx
	mov	-112(%rbp), %eax
	movq	%rdx, %nacl:16(%r15,%rax)
	.loc 2 2538 0
	mov	-140(%rbp), %eax
	movq	%nacl:96(%r15,%rax), %rdx
	mov	-112(%rbp), %eax
	movq	%rdx, %nacl:24(%r15,%rax)
	.loc 2 2539 0
	leal	-116(%rbp), %edx
	movl	-112(%rbp), %eax
	movl	%edx, %esi
	movl	%eax, %edi
	call	buf_hash_insert
	mov	%eax, %eax
	movl	%eax, -72(%rbp)
	.loc 2 2540 0
	cmpl	$0, -72(%rbp)
	je	.L531
	.loc 2 2542 0
	mov	-116(%rbp), %eax
	movl	%eax, %edi
	call	mutex_exit
	.loc 2 2543 0
	mov	-112(%rbp), %eax
	movl	$16, %esi
	movl	%eax, %edi
	call	bzero
	.loc 2 2544 0
	mov	-112(%rbp), %eax
	movq	$0, %nacl:16(%r15,%rax)
	.loc 2 2545 0
	mov	-112(%rbp), %eax
	movq	$0, %nacl:24(%r15,%rax)
	.loc 2 2546 0
	movl	-148(%rbp), %edx
	movl	-108(%rbp), %eax
	movl	%edx, %esi
	movl	%eax, %edi
	call	arc_buf_remove_ref
	.loc 2 2547 0
	jmp	.L500
	.align 32
.L531:
	.loc 2 2550 0
	mov	24(%rbp), %eax
	movl	%nacl:(%r15,%rax), %eax
	andl	$8, %eax
	testl	%eax, %eax
	je	.L532
	.loc 2 2551 0
	mov	-116(%rbp), %ecx
	movl	-148(%rbp), %edx
	movl	-112(%rbp), %eax
	movl	%ecx, %esi
	movl	%eax, %edi
	call	remove_reference
	.loc 2 2553 0
	mov	-112(%rbp), %eax
	movl	%nacl:88(%r15,%rax), %eax
	movl	%eax, %edx
	orl	$8, %edx
	mov	-112(%rbp), %eax
	movl	%edx, %nacl:88(%r15,%rax)
	.align 32
.L532:
	.loc 2 2555 0
	mov	24(%rbp), %eax
	movl	%nacl:(%r15,%rax), %eax
	andl	$32, %eax
	testl	%eax, %eax
	je	.L533
	.loc 2 2556 0
	mov	-112(%rbp), %eax
	movl	%nacl:88(%r15,%rax), %eax
	movl	%eax, %edx
	orl	$32, %edx
	mov	-112(%rbp), %eax
	movl	%edx, %nacl:88(%r15,%rax)
	.align 32
.L533:
	.loc 2 2557 0
	mov	-140(%rbp), %eax
	movq	%nacl:48(%r15,%rax), %rax
	shrq	$56, %rax
	andl	$31, %eax
	testq	%rax, %rax
	je	.L565
	.loc 2 2558 0
	mov	-112(%rbp), %eax
	movl	%nacl:88(%r15,%rax), %eax
	movl	%eax, %edx
	orb	$64, %dh
	mov	-112(%rbp), %eax
	movl	%edx, %nacl:88(%r15,%rax)
	jmp	.L535
	.align 32
.L527:
.LBE66:
	.loc 2 2561 0
	mov	-112(%rbp), %eax
	mov	%nacl:172(%r15,%rax), %edx
	mov	arc_mru_ghost(%rip), %eax
	cmpl	%eax, %edx
	je	.L536
	mov	-112(%rbp), %eax
	mov	%nacl:172(%r15,%rax), %edx
	mov	arc_mfu_ghost(%rip), %eax
	cmpl	%eax, %edx
	je	.L536
	mov	-112(%rbp), %eax
	mov	%nacl:172(%r15,%rax), %edx
	mov	arc_l2c_only(%rip), %eax
	cmpl	%eax, %edx
	je	.L536
	movl	$__PRETTY_FUNCTION__.12173, %ecx
	movl	$2561, %edx
	movl	$.LC3, %esi
	movl	$.LC108, %edi
	call	__assert_fail
	.align 32
.L536:
	.loc 2 2562 0
	mov	-112(%rbp), %eax
	movl	%nacl:88(%r15,%rax), %eax
	andl	$1024, %eax
	testl	%eax, %eax
	je	.L537
	movl	$__PRETTY_FUNCTION__.12173, %ecx
	movl	$2562, %edx
	movl	$.LC3, %esi
	movl	$.LC62, %edi
	call	__assert_fail
	.align 32
.L537:
.LBB67:
	.loc 2 2563 0
	movl	-112(%rbp), %eax
	addl	$192, %eax
	mov	%eax, %eax
	movl	%eax, %edi
	call	refcount_count
	movq	%rax, -64(%rbp)
	movq	$0, -56(%rbp)
	movq	-64(%rbp), %rax
	cmpq	-56(%rbp), %rax
	je	.L538
.LBB68:
	naclsspq	$272, %r15
	leal	40(%rsp), %eax
	addq	$15, %rax
	shrq	$4, %rax
	salq	$4, %rax
	mov	%eax, %eax
	movl	%eax, -44(%rbp)
	movl	$.LC20, %eax
	mov	%eax, %ebx
	movl	-44(%rbp), %eax
	movq	-56(%rbp), %rdx
	movq	%rdx, 16(%rsp)
	movl	$.LC22, 8(%rsp)
	movq	-64(%rbp), %rdx
	movq	%rdx, (%rsp)
	movl	$.LC21, %r9d
	movl	$.LC22, %r8d
	movl	$.LC109, %ecx
	movl	%ebx, %edx
	movl	$256, %esi
	movl	%eax, %edi
	movl	$0, %eax
	call	snprintf
	movl	$.LC24, %eax
	mov	%eax, %ebx
	mov	stderr(%rip), %eax
	movl	-44(%rbp), %edx
	movl	%edx, %r9d
	movl	$__PRETTY_FUNCTION__.12173, %r8d
	movl	$2563, %ecx
	movl	$.LC3, %edx
	movl	%ebx, %esi
	movl	%eax, %edi
	movl	$0, %eax
	call	fprintf
	call	abort
	.align 32
.L538:
.LBE68:
.LBE67:
	.loc 2 2564 0
	mov	-112(%rbp), %eax
	mov	%nacl:84(%r15,%rax), %eax
	testq	%rax, %rax
	je	.L539
	movl	$__PRETTY_FUNCTION__.12173, %ecx
	movl	$2564, %edx
	movl	$.LC3, %esi
	movl	$.LC110, %edi
	call	__assert_fail
	.align 32
.L539:
	.loc 2 2567 0
	mov	24(%rbp), %eax
	movl	%nacl:(%r15,%rax), %eax
	andl	$8, %eax
	testl	%eax, %eax
	je	.L540
	.loc 2 2568 0
	mov	-112(%rbp), %eax
	movl	%nacl:88(%r15,%rax), %eax
	movl	%eax, %edx
	orl	$8, %edx
	mov	-112(%rbp), %eax
	movl	%edx, %nacl:88(%r15,%rax)
	jmp	.L541
	.align 32
.L540:
	.loc 2 2570 0
	mov	-116(%rbp), %ecx
	movl	-148(%rbp), %edx
	movl	-112(%rbp), %eax
	movl	%ecx, %esi
	movl	%eax, %edi
	call	add_reference
	.align 32
.L541:
	.loc 2 2571 0
	mov	24(%rbp), %eax
	movl	%nacl:(%r15,%rax), %eax
	andl	$32, %eax
	testl	%eax, %eax
	je	.L542
	.loc 2 2572 0
	mov	-112(%rbp), %eax
	movl	%nacl:88(%r15,%rax), %eax
	movl	%eax, %edx
	orl	$32, %edx
	mov	-112(%rbp), %eax
	movl	%edx, %nacl:88(%r15,%rax)
	.align 32
.L542:
	.loc 2 2573 0
	mov	buf_cache(%rip), %eax
	movl	$256, %esi
	movl	%eax, %edi
	call	umem_cache_alloc
	mov	%eax, %eax
	movl	%eax, -108(%rbp)
	.loc 2 2574 0
	mov	-108(%rbp), %eax
	movl	-112(%rbp), %edx
	movl	%edx, %nacl:(%r15,%rax)
	.loc 2 2575 0
	mov	-108(%rbp), %eax
	movl	$0, %nacl:8(%r15,%rax)
	.loc 2 2576 0
	mov	-108(%rbp), %eax
	movl	$0, %nacl:12(%r15,%rax)
	.loc 2 2577 0
	mov	-108(%rbp), %eax
	movl	$0, %nacl:16(%r15,%rax)
	.loc 2 2578 0
	mov	-108(%rbp), %eax
	movl	$0, %nacl:4(%r15,%rax)
	.loc 2 2579 0
	mov	-112(%rbp), %eax
	movl	-108(%rbp), %edx
	movl	%edx, %nacl:84(%r15,%rax)
	.loc 2 2580 0
	movl	-108(%rbp), %eax
	movl	%eax, %edi
	call	arc_get_data_buf
	.loc 2 2581 0
	mov	-112(%rbp), %eax
	movl	%nacl:92(%r15,%rax), %eax
	testl	%eax, %eax
	je	.L543
	movl	$__PRETTY_FUNCTION__.12173, %ecx
	movl	$2581, %edx
	movl	$.LC3, %esi
	movl	$.LC111, %edi
	call	__assert_fail
	.align 32
.L543:
	.loc 2 2582 0
	mov	-112(%rbp), %eax
	movl	$1, %nacl:92(%r15,%rax)
	jmp	.L535
	.align 32
.L565:
.LBB69:
	.loc 2 2558 0
	nop
	.align 32
.L535:
.LBE69:
	.loc 2 2586 0
	movl	$256, %esi
	movl	$20, %edi
	call	umem_zalloc
	mov	%eax, %eax
	movl	%eax, -84(%rbp)
	.loc 2 2587 0
	mov	-84(%rbp), %eax
	movl	-144(%rbp), %edx
	movl	%edx, %nacl:4(%r15,%rax)
	.loc 2 2588 0
	mov	-84(%rbp), %eax
	movl	-148(%rbp), %edx
	movl	%edx, %nacl:(%r15,%rax)
	.loc 2 2590 0
	mov	-112(%rbp), %eax
	mov	%nacl:96(%r15,%rax), %eax
	testq	%rax, %rax
	je	.L544
	movl	$__PRETTY_FUNCTION__.12173, %ecx
	movl	$2590, %edx
	movl	$.LC3, %esi
	movl	$.LC112, %edi
	call	__assert_fail
	.align 32
.L544:
	.loc 2 2591 0
	mov	-112(%rbp), %eax
	movl	-84(%rbp), %edx
	movl	%edx, %nacl:96(%r15,%rax)
	.loc 2 2592 0
	mov	-112(%rbp), %eax
	movl	%nacl:88(%r15,%rax), %eax
	movl	%eax, %edx
	orb	$4, %dh
	mov	-112(%rbp), %eax
	movl	%edx, %nacl:88(%r15,%rax)
	.loc 2 2602 0
	mov	-112(%rbp), %eax
	mov	%nacl:172(%r15,%rax), %edx
	mov	arc_mru_ghost(%rip), %eax
	cmpl	%eax, %edx
	je	.L545
	mov	-112(%rbp), %eax
	mov	%nacl:172(%r15,%rax), %edx
	mov	arc_mfu_ghost(%rip), %eax
	cmpl	%eax, %edx
	je	.L545
	mov	-112(%rbp), %eax
	mov	%nacl:172(%r15,%rax), %edx
	mov	arc_l2c_only(%rip), %eax
	cmpl	%eax, %edx
	jne	.L546
	.align 32
.L545:
	.loc 2 2603 0
	mov	-116(%rbp), %edx
	movl	-112(%rbp), %eax
	movl	%edx, %esi
	movl	%eax, %edi
	call	arc_access
	.align 32
.L546:
	.loc 2 2605 0
	mov	-112(%rbp), %eax
	mov	%nacl:288(%r15,%rax), %eax
	testq	%rax, %rax
	je	.L547
	.loc 2 2606 0
	mov	-112(%rbp), %eax
	mov	%nacl:288(%r15,%rax), %eax
	mov	%nacl:(%r15,%rax), %eax
	movl	%nacl:(%r15,%rax), %eax
	movl	%eax, -80(%rbp)
	.loc 2 2607 0
	mov	-112(%rbp), %eax
	mov	%nacl:288(%r15,%rax), %eax
	movl	%nacl:4(%r15,%rax), %eax
	movl	%eax, -76(%rbp)
	.align 32
.L547:
	.loc 2 2610 0
	mov	-116(%rbp), %eax
	movl	%eax, %edi
	call	mutex_exit
.LBB70:
	.loc 2 2612 0
	mov	-112(%rbp), %eax
	movq	%nacl:160(%r15,%rax), %rax
	movq	%rax, -40(%rbp)
	movq	-96(%rbp), %rax
	movq	%rax, -32(%rbp)
	movq	-40(%rbp), %rax
	cmpq	-32(%rbp), %rax
	je	.L548
.LBB71:
	naclsspq	$272, %r15
	leal	40(%rsp), %eax
	addq	$15, %rax
	shrq	$4, %rax
	salq	$4, %rax
	mov	%eax, %eax
	movl	%eax, -24(%rbp)
	movl	$.LC20, %eax
	mov	%eax, %ebx
	movl	-24(%rbp), %eax
	movq	-32(%rbp), %rdx
	movq	%rdx, 16(%rsp)
	movl	$.LC22, 8(%rsp)
	movq	-40(%rbp), %rdx
	movq	%rdx, (%rsp)
	movl	$.LC48, %r9d
	movl	$.LC22, %r8d
	movl	$.LC113, %ecx
	movl	%ebx, %edx
	movl	$256, %esi
	movl	%eax, %edi
	movl	$0, %eax
	call	snprintf
	movl	$.LC24, %eax
	mov	%eax, %ebx
	mov	stderr(%rip), %eax
	movl	-24(%rbp), %edx
	movl	%edx, %r9d
	movl	$__PRETTY_FUNCTION__.12173, %r8d
	movl	$2612, %ecx
	movl	$.LC3, %edx
	movl	%ebx, %esi
	movl	%eax, %edi
	movl	$0, %eax
	call	fprintf
	call	abort
	.align 32
.L548:
.LBE71:
.LBE70:
	.loc 2 2615 0
	movl	$arc_stats+80, %eax
	mov	%eax, %eax
	movl	$1, %esi
	movl	%eax, %edi
	call	atomic_add_64
	.loc 2 2616 0
	mov	-112(%rbp), %eax
	movl	%nacl:88(%r15,%rax), %eax
	andl	$8, %eax
	testl	%eax, %eax
	jne	.L549
	mov	-112(%rbp), %eax
	movl	%nacl:152(%r15,%rax), %eax
	cmpl	$1, %eax
	je	.L550
	movl	$arc_stats+176, %eax
	mov	%eax, %eax
	movl	$1, %esi
	movl	%eax, %edi
	call	atomic_add_64
	jmp	.L552
	.align 32
.L550:
	movl	$arc_stats+272, %eax
	mov	%eax, %eax
	movl	$1, %esi
	movl	%eax, %edi
	call	atomic_add_64
	jmp	.L552
	.align 32
.L549:
	mov	-112(%rbp), %eax
	movl	%nacl:152(%r15,%rax), %eax
	cmpl	$1, %eax
	je	.L553
	movl	$arc_stats+368, %eax
	mov	%eax, %eax
	movl	$1, %esi
	movl	%eax, %edi
	call	atomic_add_64
	jmp	.L552
	.align 32
.L553:
	movl	$arc_stats+464, %eax
	mov	%eax, %eax
	movl	$1, %esi
	movl	%eax, %edi
	call	atomic_add_64
	.align 32
.L552:
	.loc 2 2620 0
	movq	l2arc_ndev(%rip), %rax
	testq	%rax, %rax
	je	.L554
	mov	-112(%rbp), %eax
	movl	%nacl:88(%r15,%rax), %eax
	andl	$32, %eax
	testl	%eax, %eax
	je	.L554
	.loc 2 2624 0
	movl	-136(%rbp), %eax
	movl	$__func__.12187, %edx
	movl	$0, %esi
	movl	%eax, %edi
	call	spa_config_enter
	.loc 2 2634 0
	cmpl	$0, -80(%rbp)
	je	.L555
	mov	-112(%rbp), %eax
	mov	%nacl:288(%r15,%rax), %eax
	testq	%rax, %rax
	je	.L555
	.loc 2 2635 0
	mov	-112(%rbp), %eax
	movl	%nacl:88(%r15,%rax), %eax
	andl	$65536, %eax
	.loc 2 2634 0
	testl	%eax, %eax
	jne	.L555
	.loc 2 2635 0
	mov	-112(%rbp), %eax
	movl	%nacl:88(%r15,%rax), %eax
	andl	$131072, %eax
	.loc 2 2634 0
	testl	%eax, %eax
	jne	.L555
.LBB72:
	.loc 2 2638 0
	movl	-80(%rbp), %eax
	movl	%eax, %edi
	call	vdev_is_dead
	testl	%eax, %eax
	jne	.L566
	.align 32
.L556:
	.loc 2 2642 0
	movl	$arc_stats+1424, %eax
	mov	%eax, %eax
	movl	$1, %esi
	movl	%eax, %edi
	call	atomic_add_64
	.loc 2 2644 0
	movl	$256, %esi
	movl	$176, %edi
	call	umem_zalloc
	mov	%eax, %eax
	movl	%eax, -20(%rbp)
	.loc 2 2646 0
	mov	-20(%rbp), %eax
	movl	-108(%rbp), %edx
	movl	%edx, %nacl:(%r15,%rax)
	.loc 2 2647 0
	mov	-20(%rbp), %eax
	movl	-136(%rbp), %edx
	movl	%edx, %nacl:4(%r15,%rax)
	.loc 2 2648 0
	mov	-20(%rbp), %eax
	mov	-140(%rbp), %edx
	movq	%nacl:(%r15,%rdx), %rcx
	movq	%rcx, %nacl:8(%r15,%rax)
	movq	%nacl:8(%r15,%rdx), %rcx
	movq	%rcx, %nacl:16(%r15,%rax)
	movq	%nacl:16(%r15,%rdx), %rcx
	movq	%rcx, %nacl:24(%r15,%rax)
	movq	%nacl:24(%r15,%rdx), %rcx
	movq	%rcx, %nacl:32(%r15,%rax)
	movq	%nacl:32(%r15,%rdx), %rcx
	movq	%rcx, %nacl:40(%r15,%rax)
	movq	%nacl:40(%r15,%rdx), %rcx
	movq	%rcx, %nacl:48(%r15,%rax)
	movq	%nacl:48(%r15,%rdx), %rcx
	movq	%rcx, %nacl:56(%r15,%rax)
	movq	%nacl:56(%r15,%rdx), %rcx
	movq	%rcx, %nacl:64(%r15,%rax)
	movq	%nacl:64(%r15,%rdx), %rcx
	movq	%rcx, %nacl:72(%r15,%rax)
	movq	%nacl:72(%r15,%rdx), %rcx
	movq	%rcx, %nacl:80(%r15,%rax)
	movq	%nacl:80(%r15,%rdx), %rcx
	movq	%rcx, %nacl:88(%r15,%rax)
	movq	%nacl:88(%r15,%rdx), %rcx
	movq	%rcx, %nacl:96(%r15,%rax)
	movq	%nacl:96(%r15,%rdx), %rcx
	movq	%rcx, %nacl:104(%r15,%rax)
	movq	%nacl:104(%r15,%rdx), %rcx
	movq	%rcx, %nacl:112(%r15,%rax)
	movq	%nacl:112(%r15,%rdx), %rcx
	movq	%rcx, %nacl:120(%r15,%rax)
	movq	%nacl:120(%r15,%rdx), %rdx
	movq	%rdx, %nacl:128(%r15,%rax)
	.loc 2 2649 0
	mov	-20(%rbp), %eax
	mov	32(%rbp), %edx
	movq	%nacl:(%r15,%rdx), %rcx
	movq	%rcx, %nacl:136(%r15,%rax)
	movq	%nacl:8(%r15,%rdx), %rcx
	movq	%rcx, %nacl:144(%r15,%rax)
	movq	%nacl:16(%r15,%rdx), %rcx
	movq	%rcx, %nacl:152(%r15,%rax)
	movq	%nacl:24(%r15,%rdx), %rdx
	movq	%rdx, %nacl:160(%r15,%rax)
	.loc 2 2650 0
	mov	-20(%rbp), %eax
	movl	16(%rbp), %edx
	movl	%edx, %nacl:168(%r15,%rax)
	.loc 2 2655 0
	movl	16(%rbp), %eax
	movl	%eax, %esi
	orl	$81, %esi
	mov	-108(%rbp), %eax
	mov	%nacl:8(%r15,%rax), %edi
	movl	-76(%rbp), %eax
	movslq	%eax,%rdx
	movq	-96(%rbp), %rcx
	movl	-80(%rbp), %ebx
	movl	-132(%rbp), %eax
	movl	$0, 32(%rsp)
	movl	%esi, 24(%rsp)
	movl	-152(%rbp), %esi
	movl	%esi, 16(%rsp)
	movl	-20(%rbp), %esi
	movl	%esi, 8(%rsp)
	movl	$l2arc_read_done, (%rsp)
	movl	$2, %r9d
	movl	%edi, %r8d
	movl	%ebx, %esi
	movl	%eax, %edi
	call	zio_read_phys
	mov	%eax, %eax
	movl	%eax, -104(%rbp)
	.loc 2 2662 0
	movl	-136(%rbp), %eax
	movl	$__func__.12187, %esi
	movl	%eax, %edi
	call	spa_config_exit
	.loc 2 2664 0
	mov	24(%rbp), %eax
	movl	%nacl:(%r15,%rax), %eax
	andl	$4, %eax
	testl	%eax, %eax
	je	.L558
	.loc 2 2665 0
	movl	-104(%rbp), %eax
	movl	%eax, %edi
	call	zio_nowait
	.loc 2 2666 0
	movl	$0, %ebx
	jmp	.L508
	.align 32
.L558:
	.loc 2 2669 0
	mov	24(%rbp), %eax
	movl	%nacl:(%r15,%rax), %eax
	andl	$2, %eax
	testl	%eax, %eax
	jne	.L559
	movl	$__PRETTY_FUNCTION__.12173, %ecx
	movl	$2669, %edx
	movl	$.LC3, %esi
	movl	$.LC114, %edi
	call	__assert_fail
	.align 32
.L559:
	.loc 2 2670 0
	movl	-104(%rbp), %eax
	movl	%eax, %edi
	call	zio_wait
	testl	%eax, %eax
	jne	.L567
	.loc 2 2671 0
	movl	$0, %ebx
	jmp	.L508
	.align 32
.L555:
.LBE72:
	.loc 2 2677 0
	movl	$arc_stats+1472, %eax
	mov	%eax, %eax
	movl	$1, %esi
	movl	%eax, %edi
	call	atomic_add_64
	.loc 2 2678 0
	mov	-112(%rbp), %eax
	movl	%nacl:88(%r15,%rax), %eax
	andl	$65536, %eax
	testl	%eax, %eax
	je	.L557
	.loc 2 2679 0
	movl	$arc_stats+1568, %eax
	mov	%eax, %eax
	movl	$1, %esi
	movl	%eax, %edi
	call	atomic_add_64
	jmp	.L557
	.align 32
.L566:
.LBB73:
	.loc 2 2639 0
	nop
	.align 32
.L557:
.LBE73:
	.loc 2 2681 0
	movl	-136(%rbp), %eax
	movl	$__func__.12187, %esi
	movl	%eax, %edi
	call	spa_config_exit
	jmp	.L554
	.align 32
.L567:
	.loc 2 2634 0
	nop
	.align 32
.L554:
	.loc 2 2685 0
	mov	-108(%rbp), %eax
	mov	%nacl:8(%r15,%rax), %esi
	movq	-96(%rbp), %rdi
	movl	-140(%rbp), %edx
	movl	-136(%rbp), %ebx
	movl	-132(%rbp), %eax
	movl	32(%rbp), %ecx
	movl	%ecx, 24(%rsp)
	movl	16(%rbp), %ecx
	movl	%ecx, 16(%rsp)
	movl	-152(%rbp), %ecx
	movl	%ecx, 8(%rsp)
	movl	-108(%rbp), %ecx
	movl	%ecx, (%rsp)
	movl	$arc_read_done, %r9d
	movq	%rdi, %r8
	movl	%esi, %ecx
	movl	%ebx, %esi
	movl	%eax, %edi
	call	zio_read
	mov	%eax, %eax
	movl	%eax, -104(%rbp)
	.loc 2 2688 0
	mov	24(%rbp), %eax
	movl	%nacl:(%r15,%rax), %eax
	andl	$2, %eax
	testl	%eax, %eax
	je	.L561
	.loc 2 2689 0
	movl	-104(%rbp), %eax
	movl	%eax, %edi
	call	zio_wait
	movl	%eax, %ebx
	jmp	.L508
	.align 32
.L561:
	.loc 2 2691 0
	mov	24(%rbp), %eax
	movl	%nacl:(%r15,%rax), %eax
	andl	$4, %eax
	testl	%eax, %eax
	jne	.L562
	movl	$__PRETTY_FUNCTION__.12173, %ecx
	movl	$2691, %edx
	movl	$.LC3, %esi
	movl	$.LC104, %edi
	call	__assert_fail
	.align 32
.L562:
	.loc 2 2692 0
	movl	-104(%rbp), %eax
	movl	%eax, %edi
	call	zio_nowait
	jmp	.L524
	.align 32
.L564:
.LBE65:
	.loc 2 2455 0
	nop
	.align 32
.L524:
	.loc 2 2694 0
	movl	$0, %ebx
	.align 32
.L508:
	movq	8(%rbp), %rsi
	movl	$arc_read_nolock, %edi
	call	__cyg_profile_func_exit
	movl	%ebx, %eax
	.loc 2 2695 0
	movq	-8(%rbp), %rbx
	movq	%rbp, %rsp
	popq	%r11
	naclrestbp	%r11d, %r15
	popq	%r11
	nacljmp	%r11d,%r15
	.cfi_endproc
.LFE51:
	.size	arc_read_nolock, .-arc_read_nolock
	.align 32
.globl arc_tryread
	.type	arc_tryread, @function
arc_tryread:
.LFB52:
	.loc 2 2705 0
	.cfi_startproc
	pushq	%rbp
.LCFI98:
	.cfi_def_cfa_offset 16
	movq	%rsp, %rbp
	.cfi_offset 6, -16
.LCFI99:
	.cfi_def_cfa_register 6
	pushq	%rbx
	naclsspq	$40, %r15
	movl	%edi, -36(%rbp)
	movl	%esi, -40(%rbp)
	movl	%edx, -44(%rbp)
	.loc 2 2705 0
	movq	8(%rbp), %rsi
	movl	$arc_tryread, %edi
	.cfi_offset 3, -24
	call	__cyg_profile_func_enter
	.loc 2 2708 0
	movl	$0, -24(%rbp)
	.loc 2 2710 0
	mov	-40(%rbp), %eax
	movq	%nacl:80(%r15,%rax), %rdx
	mov	-40(%rbp), %ebx
	leal	-32(%rbp), %ecx
	movl	-36(%rbp), %eax
	movl	%ebx, %esi
	movl	%eax, %edi
	call	buf_hash_find
	mov	%eax, %eax
	movl	%eax, -28(%rbp)
	.loc 2 2712 0
	cmpl	$0, -28(%rbp)
	je	.L569
	mov	-28(%rbp), %eax
	movl	%nacl:92(%r15,%rax), %eax
	testl	%eax, %eax
	je	.L569
	mov	-28(%rbp), %eax
	movl	%nacl:88(%r15,%rax), %eax
	andl	$1024, %eax
	testl	%eax, %eax
	jne	.L569
.LBB74:
	.loc 2 2713 0
	mov	-28(%rbp), %eax
	movl	%nacl:84(%r15,%rax), %eax
	movl	%eax, -20(%rbp)
	.loc 2 2715 0
	cmpl	$0, -20(%rbp)
	jne	.L576
	movl	$__PRETTY_FUNCTION__.12507, %ecx
	movl	$2715, %edx
	movl	$.LC3, %esi
	movl	$.LC106, %edi
	call	__assert_fail
	.align 32
.L572:
	.loc 2 2717 0
	mov	-20(%rbp), %eax
	movl	%nacl:4(%r15,%rax), %eax
	movl	%eax, -20(%rbp)
	.loc 2 2718 0
	cmpl	$0, -20(%rbp)
	jne	.L571
	movl	$__PRETTY_FUNCTION__.12507, %ecx
	movl	$2718, %edx
	movl	$.LC3, %esi
	movl	$.LC106, %edi
	call	__assert_fail
	.align 32
.L576:
	.loc 2 2716 0
	nop
	.align 32
.L571:
	mov	-20(%rbp), %eax
	mov	%nacl:8(%r15,%rax), %eax
	testq	%rax, %rax
	je	.L572
	.loc 2 2720 0
	mov	-28(%rbp), %eax
	movq	%nacl:160(%r15,%rax), %rax
	movl	%eax, %edx
	mov	-20(%rbp), %eax
	mov	%nacl:8(%r15,%rax), %ecx
	movl	-44(%rbp), %eax
	movl	%eax, %esi
	movl	%ecx, %edi
	call	bcopy
.LBE74:
	.loc 2 2712 0
	jmp	.L573
	.align 32
.L569:
	.loc 2 2722 0
	movl	$2, -24(%rbp)
	.align 32
.L573:
	.loc 2 2725 0
	mov	-32(%rbp), %eax
	testq	%rax, %rax
	je	.L574
	.loc 2 2726 0
	mov	-32(%rbp), %eax
	movl	%eax, %edi
	call	mutex_exit
	.align 32
.L574:
	.loc 2 2728 0
	movl	-24(%rbp), %ebx
	movq	8(%rbp), %rsi
	movl	$arc_tryread, %edi
	call	__cyg_profile_func_exit
	movl	%ebx, %eax
	.loc 2 2729 0
	naclaspq	$40, %r15
	popq	%rbx
	popq	%r11
	naclrestbp	%r11d, %r15
	popq	%r11
	nacljmp	%r11d,%r15
	.cfi_endproc
.LFE52:
	.size	arc_tryread, .-arc_tryread
	.section	.rodata
	.align 8
.LC115:
	.string	"buf->b_hdr->b_state != arc_anon"
	.align 8
.LC116:
	.string	"!refcount_is_zero(&buf->b_hdr->b_refcnt) || func == ((void *)0)"
	.text
	.align 32
.globl arc_set_callback
	.type	arc_set_callback, @function
arc_set_callback:
.LFB53:
	.loc 2 2733 0
	.cfi_startproc
	pushq	%rbp
.LCFI100:
	.cfi_def_cfa_offset 16
	movq	%rsp, %rbp
	.cfi_offset 6, -16
.LCFI101:
	.cfi_def_cfa_register 6
	naclsspq	$16, %r15
	movl	%edi, -4(%rbp)
	movl	%esi, -8(%rbp)
	movl	%edx, -12(%rbp)
	.loc 2 2733 0
	movq	8(%rbp), %rsi
	movl	$arc_set_callback, %edi
	call	__cyg_profile_func_enter
	.loc 2 2734 0
	mov	-4(%rbp), %eax
	mov	%nacl:(%r15,%rax), %eax
	testq	%rax, %rax
	jne	.L578
	movl	$__PRETTY_FUNCTION__.12540, %ecx
	movl	$2734, %edx
	movl	$.LC3, %esi
	movl	$.LC65, %edi
	call	__assert_fail
	.align 32
.L578:
	.loc 2 2735 0
	mov	-4(%rbp), %eax
	mov	%nacl:(%r15,%rax), %eax
	mov	%nacl:172(%r15,%rax), %edx
	mov	arc_anon(%rip), %eax
	cmpl	%eax, %edx
	jne	.L579
	movl	$__PRETTY_FUNCTION__.12540, %ecx
	movl	$2735, %edx
	movl	$.LC3, %esi
	movl	$.LC115, %edi
	call	__assert_fail
	.align 32
.L579:
	.loc 2 2736 0
	mov	-4(%rbp), %eax
	mov	%nacl:(%r15,%rax), %eax
	addl	$192, %eax
	mov	%eax, %eax
	movl	%eax, %edi
	call	refcount_is_zero
	testl	%eax, %eax
	je	.L580
	cmpl	$0, -8(%rbp)
	je	.L580
	movl	$__PRETTY_FUNCTION__.12540, %ecx
	movl	$2736, %edx
	movl	$.LC3, %esi
	movl	$.LC116, %edi
	call	__assert_fail
	.align 32
.L580:
	.loc 2 2737 0
	mov	-4(%rbp), %eax
	movl	-8(%rbp), %edx
	movl	%edx, %nacl:12(%r15,%rax)
	.loc 2 2738 0
	mov	-4(%rbp), %eax
	movl	-12(%rbp), %edx
	movl	%edx, %nacl:16(%r15,%rax)
	movq	8(%rbp), %rsi
	movl	$arc_set_callback, %edi
	call	__cyg_profile_func_exit
	.loc 2 2739 0
	movq	%rbp, %rsp
	popq	%r11
	naclrestbp	%r11d, %r15
	popq	%r11
	nacljmp	%r11d,%r15
	.cfi_endproc
.LFE53:
	.size	arc_set_callback, .-arc_set_callback
	.section	.rodata
.LC117:
	.string	"buf->b_data == ((void *)0)"
.LC118:
	.string	"copy.b_efunc(&copy) == 0"
.LC119:
	.string	"hdr->b_datacnt"
.LC120:
	.string	"((hdr)->b_flags & (1 << 9))"
	.text
	.align 32
.globl arc_buf_evict
	.type	arc_buf_evict, @function
arc_buf_evict:
.LFB54:
	.loc 2 2748 0
	.cfi_startproc
	pushq	%rbp
.LCFI102:
	.cfi_def_cfa_offset 16
	movq	%rsp, %rbp
	.cfi_offset 6, -16
.LCFI103:
	.cfi_def_cfa_register 6
	pushq	%rbx
	naclsspq	$120, %r15
	movl	%edi, -84(%rbp)
	.loc 2 2748 0
	movq	8(%rbp), %rsi
	movl	$arc_buf_evict, %edi
	.cfi_offset 3, -24
	call	__cyg_profile_func_enter
	.loc 2 2753 0
	movl	$arc_eviction_mtx, %edi
	call	mutex_enter
	.loc 2 2754 0
	mov	-84(%rbp), %eax
	movl	%nacl:(%r15,%rax), %eax
	movl	%eax, -60(%rbp)
	.loc 2 2755 0
	cmpl	$0, -60(%rbp)
	jne	.L583
	.loc 2 2759 0
	mov	-84(%rbp), %eax
	mov	%nacl:8(%r15,%rax), %eax
	testq	%rax, %rax
	je	.L584
	movl	$__PRETTY_FUNCTION__.12562, %ecx
	movl	$2759, %edx
	movl	$.LC3, %esi
	movl	$.LC117, %edi
	call	__assert_fail
	.align 32
.L584:
	.loc 2 2760 0
	movl	$arc_eviction_mtx, %edi
	call	mutex_exit
	.loc 2 2761 0
	movl	$0, %ebx
	jmp	.L585
	.align 32
.L583:
	.loc 2 2763 0
	mov	-60(%rbp), %eax
	movq	%nacl:16(%r15,%rax), %rax
	mov	-60(%rbp), %ebx
	mov	-60(%rbp), %edx
	mov	%nacl:168(%r15,%rdx), %ecx
	movq	%rax, %rdx
	movl	%ebx, %esi
	movl	%ecx, %edi
	call	buf_hash
	movq	buf_hash_table(%rip), %rdx
	andq	%rdx, %rax
	andl	$255, %eax
	sall	$6, %eax
	addl	$buf_hash_table, %eax
	addl	$12, %eax
	movl	%eax, -56(%rbp)
	.loc 2 2764 0
	movl	$arc_eviction_mtx, %edi
	call	mutex_exit
	.loc 2 2766 0
	movl	-56(%rbp), %eax
	movl	%eax, %edi
	call	mutex_enter
	.loc 2 2768 0
	mov	-84(%rbp), %eax
	mov	%nacl:8(%r15,%rax), %eax
	testq	%rax, %rax
	jne	.L586
	.loc 2 2772 0
	movl	-56(%rbp), %eax
	movl	%eax, %edi
	call	mutex_exit
	.loc 2 2773 0
	movl	$arc_eviction_mtx, %edi
	call	mutex_enter
	.loc 2 2774 0
	mov	-84(%rbp), %eax
	mov	%nacl:(%r15,%rax), %eax
	testq	%rax, %rax
	jne	.L587
	.loc 2 2778 0
	movl	$arc_eviction_mtx, %edi
	call	mutex_exit
	.loc 2 2779 0
	movl	$0, %ebx
	jmp	.L585
	.align 32
.L587:
.LBB75:
	.loc 2 2781 0
	mov	-84(%rbp), %eax
	movq	%nacl:(%r15,%rax), %rdx
	movq	%rdx, -80(%rbp)
	movq	%nacl:8(%r15,%rax), %rdx
	movq	%rdx, -72(%rbp)
	movl	%nacl:16(%r15,%rax), %eax
	movl	%eax, -64(%rbp)
	.loc 2 2786 0
	mov	-84(%rbp), %eax
	movl	$0, %nacl:12(%r15,%rax)
	.loc 2 2787 0
	movl	$arc_eviction_mtx, %edi
	call	mutex_exit
	.loc 2 2788 0
	mov	-68(%rbp), %eax
	leal	-80(%rbp), %edx
	movl	%edx, %edi
	naclcall	%eax,%r15
	testl	%eax, %eax
	je	.L588
	movl	$.LC24, %eax
	mov	%eax, %ebx
	mov	stderr(%rip), %eax
	movl	$.LC118, %r9d
	movl	$__PRETTY_FUNCTION__.12562, %r8d
	movl	$2788, %ecx
	movl	$.LC3, %edx
	movl	%ebx, %esi
	movl	%eax, %edi
	movl	$0, %eax
	call	fprintf
	call	abort
	.align 32
.L588:
	.loc 2 2789 0
	movl	$1, %ebx
	jmp	.L585
	.align 32
.L586:
.LBE75:
	.loc 2 2793 0
	mov	-84(%rbp), %eax
	mov	%nacl:(%r15,%rax), %eax
	cmpl	%eax, -60(%rbp)
	je	.L589
	movl	$__PRETTY_FUNCTION__.12562, %ecx
	movl	$2793, %edx
	movl	$.LC3, %esi
	movl	$.LC51, %edi
	call	__assert_fail
	.align 32
.L589:
.LBB76:
	.loc 2 2794 0
	movl	-60(%rbp), %eax
	addl	$192, %eax
	mov	%eax, %eax
	movl	%eax, %edi
	call	refcount_count
	movq	%rax, -48(%rbp)
	mov	-60(%rbp), %eax
	movl	%nacl:92(%r15,%rax), %eax
	mov	%eax, %eax
	movq	%rax, -40(%rbp)
	movq	-48(%rbp), %rax
	cmpq	-40(%rbp), %rax
	jb	.L590
.LBB77:
	naclsspq	$272, %r15
	leal	24(%rsp), %eax
	addq	$15, %rax
	shrq	$4, %rax
	salq	$4, %rax
	mov	%eax, %eax
	movl	%eax, -28(%rbp)
	movl	$.LC20, %eax
	mov	%eax, %ebx
	movl	-28(%rbp), %eax
	movq	-40(%rbp), %rdx
	movq	%rdx, 16(%rsp)
	movl	$.LC100, 8(%rsp)
	movq	-48(%rbp), %rdx
	movq	%rdx, (%rsp)
	movl	$.LC119, %r9d
	movl	$.LC100, %r8d
	movl	$.LC109, %ecx
	movl	%ebx, %edx
	movl	$256, %esi
	movl	%eax, %edi
	movl	$0, %eax
	call	snprintf
	movl	$.LC24, %eax
	mov	%eax, %ebx
	mov	stderr(%rip), %eax
	movl	-28(%rbp), %edx
	movl	%edx, %r9d
	movl	$__PRETTY_FUNCTION__.12562, %r8d
	movl	$2794, %ecx
	movl	$.LC3, %edx
	movl	%ebx, %esi
	movl	%eax, %edi
	movl	$0, %eax
	call	fprintf
	call	abort
	.align 32
.L590:
.LBE77:
.LBE76:
	.loc 2 2795 0
	mov	-60(%rbp), %eax
	mov	%nacl:172(%r15,%rax), %edx
	mov	arc_mru(%rip), %eax
	cmpl	%eax, %edx
	je	.L591
	mov	-60(%rbp), %eax
	mov	%nacl:172(%r15,%rax), %edx
	mov	arc_mfu(%rip), %eax
	cmpl	%eax, %edx
	je	.L591
	movl	$__PRETTY_FUNCTION__.12562, %ecx
	movl	$2795, %edx
	movl	$.LC3, %esi
	movl	$.LC52, %edi
	call	__assert_fail
	.align 32
.L591:
	.loc 2 2800 0
	movl	-60(%rbp), %eax
	addl	$84, %eax
	movl	%eax, -52(%rbp)
	.loc 2 2801 0
	jmp	.L592
	.align 32
.L593:
	.loc 2 2802 0
	mov	-52(%rbp), %eax
	mov	%nacl:(%r15,%rax), %eax
	addl	$4, %eax
	movl	%eax, -52(%rbp)
	.align 32
.L592:
	.loc 2 2801 0
	mov	-52(%rbp), %eax
	mov	%nacl:(%r15,%rax), %eax
	cmpl	%eax, -84(%rbp)
	jne	.L593
	.loc 2 2803 0
	mov	-84(%rbp), %eax
	mov	%nacl:4(%r15,%rax), %edx
	mov	-52(%rbp), %eax
	movl	%edx, %nacl:(%r15,%rax)
	.loc 2 2805 0
	mov	-84(%rbp), %eax
	mov	%nacl:8(%r15,%rax), %eax
	testq	%rax, %rax
	jne	.L594
	movl	$__PRETTY_FUNCTION__.12562, %ecx
	movl	$2805, %edx
	movl	$.LC3, %esi
	movl	$.LC69, %edi
	call	__assert_fail
	.align 32
.L594:
	.loc 2 2806 0
	movl	-84(%rbp), %eax
	movl	$0, %edx
	movl	$0, %esi
	movl	%eax, %edi
	call	arc_buf_destroy
	.loc 2 2808 0
	mov	-60(%rbp), %eax
	movl	%nacl:92(%r15,%rax), %eax
	testl	%eax, %eax
	jne	.L595
.LBB78:
	.loc 2 2809 0
	mov	-60(%rbp), %eax
	movl	%nacl:172(%r15,%rax), %eax
	movl	%eax, -24(%rbp)
	.loc 2 2812 0
	movl	-60(%rbp), %eax
	addl	$192, %eax
	mov	%eax, %eax
	movl	%eax, %edi
	call	refcount_is_zero
	testl	%eax, %eax
	jne	.L596
	movl	$__PRETTY_FUNCTION__.12562, %ecx
	movl	$2812, %edx
	movl	$.LC3, %esi
	movl	$.LC50, %edi
	call	__assert_fail
	.align 32
.L596:
	.loc 2 2815 0
	mov	arc_mru(%rip), %eax
	.loc 2 2814 0
	cmpl	%eax, -24(%rbp)
	jne	.L597
	mov	arc_mru_ghost(%rip), %eax
	jmp	.L598
	.align 32
.L597:
	mov	arc_mfu_ghost(%rip), %eax
	.align 32
.L598:
	movl	%eax, -20(%rbp)
	.loc 2 2817 0
	movl	-24(%rbp), %eax
	addl	$56, %eax
	mov	%eax, %eax
	movl	%eax, %edi
	call	mutex_enter
	.loc 2 2818 0
	movl	-20(%rbp), %eax
	addl	$56, %eax
	mov	%eax, %eax
	movl	%eax, %edi
	call	mutex_enter
	.loc 2 2820 0
	movl	-56(%rbp), %edx
	movl	-60(%rbp), %ecx
	movl	-20(%rbp), %eax
	movl	%ecx, %esi
	movl	%eax, %edi
	call	arc_change_state
	.loc 2 2821 0
	mov	-60(%rbp), %eax
	movl	%nacl:88(%r15,%rax), %eax
	andl	$512, %eax
	testl	%eax, %eax
	jne	.L599
	movl	$__PRETTY_FUNCTION__.12562, %ecx
	movl	$2821, %edx
	movl	$.LC3, %esi
	movl	$.LC120, %edi
	call	__assert_fail
	.align 32
.L599:
	.loc 2 2822 0
	mov	-60(%rbp), %eax
	movl	%nacl:88(%r15,%rax), %eax
	movl	%eax, %edx
	orb	$2, %dh
	mov	-60(%rbp), %eax
	movl	%edx, %nacl:88(%r15,%rax)
	.loc 2 2823 0
	mov	-60(%rbp), %eax
	movl	%nacl:88(%r15,%rax), %eax
	movl	%eax, %edx
	andb	$223, %dh
	mov	-60(%rbp), %eax
	movl	%edx, %nacl:88(%r15,%rax)
	.loc 2 2825 0
	movl	-20(%rbp), %eax
	addl	$56, %eax
	mov	%eax, %eax
	movl	%eax, %edi
	call	mutex_exit
	.loc 2 2826 0
	movl	-24(%rbp), %eax
	addl	$56, %eax
	mov	%eax, %eax
	movl	%eax, %edi
	call	mutex_exit
	.align 32
.L595:
.LBE78:
	.loc 2 2828 0
	movl	-56(%rbp), %eax
	movl	%eax, %edi
	call	mutex_exit
	.loc 2 2830 0
	mov	-84(%rbp), %eax
	mov	%nacl:12(%r15,%rax), %eax
	movl	-84(%rbp), %edx
	movl	%edx, %edi
	naclcall	%eax,%r15
	testl	%eax, %eax
	je	.L600
	movl	$.LC24, %eax
	mov	%eax, %ebx
	mov	stderr(%rip), %eax
	movl	$.LC82, %r9d
	movl	$__PRETTY_FUNCTION__.12562, %r8d
	movl	$2830, %ecx
	movl	$.LC3, %edx
	movl	%ebx, %esi
	movl	%eax, %edi
	movl	$0, %eax
	call	fprintf
	call	abort
	.align 32
.L600:
	.loc 2 2831 0
	mov	-84(%rbp), %eax
	movl	$0, %nacl:12(%r15,%rax)
	.loc 2 2832 0
	mov	-84(%rbp), %eax
	movl	$0, %nacl:16(%r15,%rax)
	.loc 2 2833 0
	mov	-84(%rbp), %eax
	movl	$0, %nacl:(%r15,%rax)
	.loc 2 2834 0
	mov	buf_cache(%rip), %edx
	movl	-84(%rbp), %eax
	movl	%eax, %esi
	movl	%edx, %edi
	call	umem_cache_free
	.loc 2 2835 0
	movl	$1, %ebx
	.align 32
.L585:
	movq	8(%rbp), %rsi
	movl	$arc_buf_evict, %edi
	call	__cyg_profile_func_exit
	movl	%ebx, %eax
	.loc 2 2836 0
	movq	-8(%rbp), %rbx
	movq	%rbp, %rsp
	popq	%r11
	naclrestbp	%r11d, %r15
	popq	%r11
	nacljmp	%r11d,%r15
	.cfi_endproc
.LFE54:
	.size	arc_buf_evict, .-arc_buf_evict
	.section	.rodata
	.align 8
.LC121:
	.string	"refcount_count(&hdr->b_refcnt) > 0"
.LC122:
	.string	"1"
.LC123:
	.string	"hdr->b_datacnt > 1"
.LC124:
	.string	"hdr->b_state->arcs_size"
	.align 8
.LC125:
	.string	"refcount_count(&hdr->b_refcnt) == 1"
	.text
	.align 32
.globl arc_release
	.type	arc_release, @function
arc_release:
.LFB55:
	.loc 2 2846 0
	.cfi_startproc
	pushq	%rbp
.LCFI104:
	.cfi_def_cfa_offset 16
	movq	%rsp, %rbp
	.cfi_offset 6, -16
.LCFI105:
	.cfi_def_cfa_register 6
	pushq	%rbx
	naclsspq	$184, %r15
	movl	%edi, -148(%rbp)
	movl	%esi, -152(%rbp)
	.loc 2 2846 0
	movq	8(%rbp), %rsi
	movl	$arc_release, %edi
	.cfi_offset 3, -24
	call	__cyg_profile_func_enter
	.loc 2 2847 0
	mov	-148(%rbp), %eax
	movl	%nacl:(%r15,%rax), %eax
	movl	%eax, -140(%rbp)
	.loc 2 2848 0
	mov	-140(%rbp), %eax
	movq	%nacl:16(%r15,%rax), %rax
	mov	-140(%rbp), %ebx
	mov	-140(%rbp), %edx
	mov	%nacl:168(%r15,%rdx), %ecx
	movq	%rax, %rdx
	movl	%ebx, %esi
	movl	%ecx, %edi
	call	buf_hash
	movq	buf_hash_table(%rip), %rdx
	andq	%rdx, %rax
	andl	$255, %eax
	sall	$6, %eax
	addl	$buf_hash_table, %eax
	addl	$12, %eax
	movl	%eax, -136(%rbp)
	.loc 2 2849 0
	movl	$0, -132(%rbp)
	.loc 2 2853 0
	movl	-140(%rbp), %eax
	addl	$192, %eax
	mov	%eax, %eax
	movl	%eax, %edi
	call	refcount_count
	testq	%rax, %rax
	jg	.L603
	movl	$__PRETTY_FUNCTION__.12665, %ecx
	movl	$2853, %edx
	movl	$.LC3, %esi
	movl	$.LC121, %edi
	call	__assert_fail
	.align 32
.L603:
	.loc 2 2854 0
	mov	-140(%rbp), %eax
	movl	%nacl:88(%r15,%rax), %eax
	andl	$524288, %eax
	testl	%eax, %eax
	je	.L604
	movl	$__PRETTY_FUNCTION__.12665, %ecx
	movl	$2854, %edx
	movl	$.LC3, %esi
	movl	$.LC63, %edi
	call	__assert_fail
	.align 32
.L604:
	.loc 2 2856 0
	mov	-140(%rbp), %eax
	mov	%nacl:172(%r15,%rax), %edx
	mov	arc_anon(%rip), %eax
	cmpl	%eax, %edx
	jne	.L605
.LBB79:
	.loc 2 2858 0
	movl	-140(%rbp), %eax
	addl	$192, %eax
	mov	%eax, %eax
	movl	%eax, %edi
	call	refcount_count
	movq	%rax, -120(%rbp)
	movq	$1, -112(%rbp)
	movq	-120(%rbp), %rax
	cmpq	-112(%rbp), %rax
	je	.L606
.LBB80:
	naclsspq	$272, %r15
	leal	24(%rsp), %eax
	addq	$15, %rax
	shrq	$4, %rax
	salq	$4, %rax
	mov	%eax, %eax
	movl	%eax, -100(%rbp)
	movl	$.LC20, %eax
	mov	%eax, %ebx
	movl	-100(%rbp), %eax
	movq	-112(%rbp), %rdx
	movq	%rdx, 16(%rsp)
	movl	$.LC22, 8(%rsp)
	movq	-120(%rbp), %rdx
	movq	%rdx, (%rsp)
	movl	$.LC122, %r9d
	movl	$.LC22, %r8d
	movl	$.LC109, %ecx
	movl	%ebx, %edx
	movl	$256, %esi
	movl	%eax, %edi
	movl	$0, %eax
	call	snprintf
	movl	$.LC24, %eax
	mov	%eax, %ebx
	mov	stderr(%rip), %eax
	movl	-100(%rbp), %edx
	movl	%edx, %r9d
	movl	$__PRETTY_FUNCTION__.12665, %r8d
	movl	$2858, %ecx
	movl	$.LC3, %edx
	movl	%ebx, %esi
	movl	%eax, %edi
	movl	$0, %eax
	call	fprintf
	call	abort
	.align 32
.L606:
.LBE80:
.LBE79:
	.loc 2 2859 0
	mov	-140(%rbp), %eax
	movq	%nacl:(%r15,%rax), %rax
	testq	%rax, %rax
	jne	.L607
	mov	-140(%rbp), %eax
	movq	%nacl:8(%r15,%rax), %rax
	testq	%rax, %rax
	jne	.L607
	mov	-140(%rbp), %eax
	movq	%nacl:16(%r15,%rax), %rax
	testq	%rax, %rax
	je	.L608
	.align 32
.L607:
	movl	$__PRETTY_FUNCTION__.12665, %ecx
	movl	$2859, %edx
	movl	$.LC3, %esi
	movl	$.LC49, %edi
	call	__assert_fail
	.align 32
.L608:
	.loc 2 2860 0
	mov	-148(%rbp), %eax
	mov	%nacl:12(%r15,%rax), %eax
	testq	%rax, %rax
	je	.L609
	movl	$__PRETTY_FUNCTION__.12665, %ecx
	movl	$2860, %edx
	movl	$.LC3, %esi
	movl	$.LC59, %edi
	call	__assert_fail
	.align 32
.L609:
	.loc 2 2861 0
	movl	-148(%rbp), %eax
	movl	%eax, %edi
	call	arc_buf_thaw
	movl	$0, %ebx
	jmp	.L610
	.align 32
.L605:
	.loc 2 2865 0
	movl	-136(%rbp), %eax
	movl	%eax, %edi
	call	mutex_enter
	.loc 2 2870 0
	mov	-140(%rbp), %eax
	mov	%nacl:84(%r15,%rax), %eax
	cmpl	%eax, -148(%rbp)
	jne	.L611
	mov	-148(%rbp), %eax
	mov	%nacl:4(%r15,%rax), %eax
	testq	%rax, %rax
	je	.L612
	.align 32
.L611:
.LBB81:
	.loc 2 2873 0
	mov	-140(%rbp), %eax
	movq	%nacl:160(%r15,%rax), %rax
	movq	%rax, -88(%rbp)
	.loc 2 2874 0
	mov	-140(%rbp), %eax
	movl	%nacl:168(%r15,%rax), %eax
	movl	%eax, -76(%rbp)
	.loc 2 2875 0
	mov	-140(%rbp), %eax
	movl	%nacl:152(%r15,%rax), %eax
	movl	%eax, -72(%rbp)
	.loc 2 2876 0
	mov	-140(%rbp), %eax
	movl	%nacl:88(%r15,%rax), %eax
	movl	%eax, -68(%rbp)
	.loc 2 2878 0
	mov	-140(%rbp), %eax
	movl	%nacl:92(%r15,%rax), %eax
	cmpl	$1, %eax
	ja	.L613
	movl	$__PRETTY_FUNCTION__.12665, %ecx
	movl	$2878, %edx
	movl	$.LC3, %esi
	movl	$.LC123, %edi
	call	__assert_fail
	.align 32
.L613:
	.loc 2 2883 0
	movl	-152(%rbp), %edx
	movl	-136(%rbp), %ecx
	movl	-140(%rbp), %eax
	movl	%ecx, %esi
	movl	%eax, %edi
	call	remove_reference
	.loc 2 2884 0
	movl	-140(%rbp), %eax
	addl	$84, %eax
	movl	%eax, -92(%rbp)
	.loc 2 2885 0
	jmp	.L614
	.align 32
.L615:
	.loc 2 2886 0
	mov	-92(%rbp), %eax
	mov	%nacl:(%r15,%rax), %eax
	addl	$4, %eax
	movl	%eax, -92(%rbp)
	.align 32
.L614:
	.loc 2 2885 0
	mov	-92(%rbp), %eax
	mov	%nacl:(%r15,%rax), %eax
	cmpl	%eax, -148(%rbp)
	jne	.L615
	.loc 2 2887 0
	mov	-92(%rbp), %eax
	mov	%nacl:(%r15,%rax), %eax
	mov	%nacl:4(%r15,%rax), %edx
	mov	-92(%rbp), %eax
	movl	%edx, %nacl:(%r15,%rax)
	.loc 2 2888 0
	mov	-148(%rbp), %eax
	movl	$0, %nacl:4(%r15,%rax)
.LBB82:
	.loc 2 2890 0
	mov	-140(%rbp), %eax
	mov	%nacl:172(%r15,%rax), %eax
	movq	%nacl:48(%r15,%rax), %rax
	movq	%rax, -64(%rbp)
	mov	-140(%rbp), %eax
	movq	%nacl:160(%r15,%rax), %rax
	movq	%rax, -56(%rbp)
	movq	-64(%rbp), %rax
	cmpq	-56(%rbp), %rax
	jae	.L616
.LBB83:
	naclsspq	$272, %r15
	leal	24(%rsp), %eax
	addq	$15, %rax
	shrq	$4, %rax
	salq	$4, %rax
	mov	%eax, %eax
	movl	%eax, -48(%rbp)
	movl	$.LC20, %eax
	mov	%eax, %ebx
	movl	-48(%rbp), %eax
	movq	-56(%rbp), %rdx
	movq	%rdx, 16(%rsp)
	movl	$.LC29, 8(%rsp)
	movq	-64(%rbp), %rdx
	movq	%rdx, (%rsp)
	movl	$.LC113, %r9d
	movl	$.LC29, %r8d
	movl	$.LC124, %ecx
	movl	%ebx, %edx
	movl	$256, %esi
	movl	%eax, %edi
	movl	$0, %eax
	call	snprintf
	movl	$.LC24, %eax
	mov	%eax, %ebx
	mov	stderr(%rip), %eax
	movl	-48(%rbp), %edx
	movl	%edx, %r9d
	movl	$__PRETTY_FUNCTION__.12665, %r8d
	movl	$2890, %ecx
	movl	$.LC3, %edx
	movl	%ebx, %esi
	movl	%eax, %edi
	movl	$0, %eax
	call	fprintf
	call	abort
	.align 32
.L616:
.LBE83:
.LBE82:
	.loc 2 2891 0
	mov	-140(%rbp), %eax
	movq	%nacl:160(%r15,%rax), %rax
	negq	%rax
	mov	-140(%rbp), %edx
	mov	%nacl:172(%r15,%rdx), %edx
	addl	$48, %edx
	mov	%edx, %edx
	movq	%rax, %rsi
	movl	%edx, %edi
	call	atomic_add_64
	.loc 2 2892 0
	movl	-140(%rbp), %eax
	addl	$192, %eax
	mov	%eax, %eax
	movl	%eax, %edi
	call	refcount_is_zero
	testl	%eax, %eax
	je	.L617
.LBB84:
	.loc 2 2893 0
	mov	-140(%rbp), %eax
	mov	%nacl:172(%r15,%rax), %eax
	addl	$32, %eax
	mov	%eax, %edx
	mov	-140(%rbp), %eax
	movl	%nacl:152(%r15,%rax), %eax
	sall	$3, %eax
	addl	%edx, %eax
	movl	%eax, -44(%rbp)
.LBB85:
	.loc 2 2894 0
	mov	-44(%rbp), %eax
	movq	%nacl:(%r15,%rax), %rax
	movq	%rax, -40(%rbp)
	mov	-140(%rbp), %eax
	movq	%nacl:160(%r15,%rax), %rax
	movq	%rax, -32(%rbp)
	movq	-40(%rbp), %rax
	cmpq	-32(%rbp), %rax
	jae	.L618
.LBB86:
	naclsspq	$272, %r15
	leal	24(%rsp), %eax
	addq	$15, %rax
	shrq	$4, %rax
	salq	$4, %rax
	mov	%eax, %eax
	movl	%eax, -20(%rbp)
	movl	$.LC20, %eax
	mov	%eax, %ebx
	movl	-20(%rbp), %eax
	movq	-32(%rbp), %rdx
	movq	%rdx, 16(%rsp)
	movl	$.LC29, 8(%rsp)
	movq	-40(%rbp), %rdx
	movq	%rdx, (%rsp)
	movl	$.LC113, %r9d
	movl	$.LC29, %r8d
	movl	$.LC30, %ecx
	movl	%ebx, %edx
	movl	$256, %esi
	movl	%eax, %edi
	movl	$0, %eax
	call	snprintf
	movl	$.LC24, %eax
	mov	%eax, %ebx
	mov	stderr(%rip), %eax
	movl	-20(%rbp), %edx
	movl	%edx, %r9d
	movl	$__PRETTY_FUNCTION__.12665, %r8d
	movl	$2894, %ecx
	movl	$.LC3, %edx
	movl	%ebx, %esi
	movl	%eax, %edi
	movl	$0, %eax
	call	fprintf
	call	abort
	.align 32
.L618:
.LBE86:
.LBE85:
	.loc 2 2895 0
	mov	-140(%rbp), %eax
	movq	%nacl:160(%r15,%rax), %rax
	negq	%rax
	mov	-44(%rbp), %edx
	movq	%rax, %rsi
	movl	%edx, %edi
	call	atomic_add_64
	.align 32
.L617:
.LBE84:
	.loc 2 2897 0
	mov	-140(%rbp), %eax
	movl	%nacl:92(%r15,%rax), %eax
	leal	-1(%rax), %edx
	mov	-140(%rbp), %eax
	movl	%edx, %nacl:92(%r15,%rax)
	.loc 2 2898 0
	mov	-140(%rbp), %eax
	mov	%nacl:288(%r15,%rax), %eax
	testq	%rax, %rax
	je	.L619
	.loc 2 2899 0
	movl	$l2arc_buflist_mtx, %edi
	call	mutex_enter
	.loc 2 2900 0
	mov	-140(%rbp), %eax
	movl	%nacl:288(%r15,%rax), %eax
	movl	%eax, -132(%rbp)
	.loc 2 2901 0
	mov	-140(%rbp), %eax
	movl	$0, %nacl:288(%r15,%rax)
	.loc 2 2902 0
	mov	-140(%rbp), %eax
	movq	%nacl:160(%r15,%rax), %rax
	movq	%rax, -128(%rbp)
	.align 32
.L619:
	.loc 2 2904 0
	movl	-148(%rbp), %eax
	movl	%eax, %edi
	call	arc_cksum_verify
	.loc 2 2906 0
	movl	-136(%rbp), %eax
	movl	%eax, %edi
	call	mutex_exit
	.loc 2 2908 0
	mov	hdr_cache(%rip), %eax
	movl	$256, %esi
	movl	%eax, %edi
	call	umem_cache_alloc
	mov	%eax, %eax
	movl	%eax, -96(%rbp)
	.loc 2 2909 0
	mov	-96(%rbp), %eax
	movq	-88(%rbp), %rdx
	movq	%rdx, %nacl:160(%r15,%rax)
	.loc 2 2910 0
	mov	-96(%rbp), %eax
	movl	-76(%rbp), %edx
	movl	%edx, %nacl:168(%r15,%rax)
	.loc 2 2911 0
	mov	-96(%rbp), %eax
	movl	-72(%rbp), %edx
	movl	%edx, %nacl:152(%r15,%rax)
	.loc 2 2912 0
	mov	-96(%rbp), %eax
	movl	-148(%rbp), %edx
	movl	%edx, %nacl:84(%r15,%rax)
	.loc 2 2913 0
	mov	arc_anon(%rip), %edx
	mov	-96(%rbp), %eax
	movl	%edx, %nacl:172(%r15,%rax)
	.loc 2 2914 0
	mov	-96(%rbp), %eax
	movl	$0, %nacl:184(%r15,%rax)
	.loc 2 2915 0
	movl	-68(%rbp), %eax
	movl	%eax, %edx
	andl	$65536, %edx
	mov	-96(%rbp), %eax
	movl	%edx, %nacl:88(%r15,%rax)
	.loc 2 2916 0
	mov	-96(%rbp), %eax
	movl	$0, %nacl:288(%r15,%rax)
	.loc 2 2917 0
	mov	-96(%rbp), %eax
	movl	$1, %nacl:92(%r15,%rax)
	.loc 2 2918 0
	mov	-96(%rbp), %eax
	movl	$0, %nacl:76(%r15,%rax)
	.loc 2 2919 0
	movl	-96(%rbp), %eax
	addl	$192, %eax
	mov	%eax, %edx
	movl	-152(%rbp), %eax
	movl	%eax, %esi
	movl	%edx, %edi
	call	refcount_add
	.loc 2 2920 0
	mov	-148(%rbp), %eax
	movl	-96(%rbp), %edx
	movl	%edx, %nacl:(%r15,%rax)
	.loc 2 2921 0
	movq	-88(%rbp), %rax
	mov	arc_anon(%rip), %edx
	addl	$48, %edx
	mov	%edx, %edx
	movq	%rax, %rsi
	movl	%edx, %edi
	call	atomic_add_64
.LBE81:
	.loc 2 2870 0
	jmp	.L620
	.align 32
.L612:
	.loc 2 2923 0
	movl	-140(%rbp), %eax
	addl	$192, %eax
	mov	%eax, %eax
	movl	%eax, %edi
	call	refcount_count
	cmpq	$1, %rax
	je	.L621
	movl	$__PRETTY_FUNCTION__.12665, %ecx
	movl	$2923, %edx
	movl	$.LC3, %esi
	movl	$.LC125, %edi
	call	__assert_fail
	.align 32
.L621:
	.loc 2 2924 0
	movl	-140(%rbp), %eax
	addl	$176, %eax
	mov	%eax, %eax
	movl	%eax, %edi
	call	list_link_active
	testl	%eax, %eax
	je	.L622
	movl	$__PRETTY_FUNCTION__.12665, %ecx
	movl	$2924, %edx
	movl	$.LC3, %esi
	movl	$.LC66, %edi
	call	__assert_fail
	.align 32
.L622:
	.loc 2 2925 0
	mov	-140(%rbp), %eax
	movl	%nacl:88(%r15,%rax), %eax
	andl	$1024, %eax
	testl	%eax, %eax
	je	.L623
	movl	$__PRETTY_FUNCTION__.12665, %ecx
	movl	$2925, %edx
	movl	$.LC3, %esi
	movl	$.LC62, %edi
	call	__assert_fail
	.align 32
.L623:
	.loc 2 2926 0
	mov	arc_anon(%rip), %ecx
	movl	-136(%rbp), %edx
	movl	-140(%rbp), %eax
	movl	%eax, %esi
	movl	%ecx, %edi
	call	arc_change_state
	.loc 2 2927 0
	mov	-140(%rbp), %eax
	movl	$0, %nacl:184(%r15,%rax)
	.loc 2 2928 0
	mov	-140(%rbp), %eax
	mov	%nacl:288(%r15,%rax), %eax
	testq	%rax, %rax
	je	.L624
	.loc 2 2929 0
	movl	$l2arc_buflist_mtx, %edi
	call	mutex_enter
	.loc 2 2930 0
	mov	-140(%rbp), %eax
	movl	%nacl:288(%r15,%rax), %eax
	movl	%eax, -132(%rbp)
	.loc 2 2931 0
	mov	-140(%rbp), %eax
	movl	$0, %nacl:288(%r15,%rax)
	.loc 2 2932 0
	mov	-140(%rbp), %eax
	movq	%nacl:160(%r15,%rax), %rax
	movq	%rax, -128(%rbp)
	.align 32
.L624:
	.loc 2 2934 0
	movl	-136(%rbp), %eax
	movl	%eax, %edi
	call	mutex_exit
	.loc 2 2936 0
	mov	-140(%rbp), %eax
	movl	$16, %esi
	movl	%eax, %edi
	call	bzero
	.loc 2 2937 0
	mov	-140(%rbp), %eax
	movq	$0, %nacl:16(%r15,%rax)
	.loc 2 2938 0
	mov	-140(%rbp), %eax
	movq	$0, %nacl:24(%r15,%rax)
	.loc 2 2939 0
	movl	-148(%rbp), %eax
	movl	%eax, %edi
	call	arc_buf_thaw
	.align 32
.L620:
	.loc 2 2941 0
	mov	-148(%rbp), %eax
	movl	$0, %nacl:12(%r15,%rax)
	.loc 2 2942 0
	mov	-148(%rbp), %eax
	movl	$0, %nacl:16(%r15,%rax)
	.loc 2 2944 0
	cmpl	$0, -132(%rbp)
	je	.L625
	.loc 2 2945 0
	mov	-132(%rbp), %eax
	mov	%nacl:(%r15,%rax), %eax
	mov	%nacl:60(%r15,%rax), %edx
	movl	-140(%rbp), %eax
	movl	%eax, %esi
	movl	%edx, %edi
	call	list_remove
	.loc 2 2946 0
	movl	-132(%rbp), %eax
	movl	$8, %esi
	movl	%eax, %edi
	call	umem_free
	.loc 2 2947 0
	movq	-128(%rbp), %rax
	negq	%rax
	movl	$arc_stats+2096, %edx
	mov	%edx, %edx
	movq	%rax, %rsi
	movl	%edx, %edi
	call	atomic_add_64
	.align 32
.L625:
	.loc 2 2949 0
	mov	l2arc_buflist_mtx(%rip), %ebx
	call	pthread_self
	mov	%eax, %eax
	cmpl	%eax, %ebx
	jne	.L626
	.loc 2 2950 0
	movl	$l2arc_buflist_mtx, %edi
	call	mutex_exit
	.align 32
.L626:
	movl	$1, %ebx
	.align 32
.L610:
	movq	8(%rbp), %rsi
	movl	$arc_release, %edi
	call	__cyg_profile_func_exit
	cmpl	$1, %ebx
	.loc 2 2951 0
	movq	-8(%rbp), %rbx
	movq	%rbp, %rsp
	popq	%r11
	naclrestbp	%r11d, %r15
	popq	%r11
	nacljmp	%r11d,%r15
	.cfi_endproc
.LFE55:
	.size	arc_release, .-arc_release
	.align 32
.globl arc_released
	.type	arc_released, @function
arc_released:
.LFB56:
	.loc 2 2955 0
	.cfi_startproc
	pushq	%rbp
.LCFI106:
	.cfi_def_cfa_offset 16
	movq	%rsp, %rbp
	.cfi_offset 6, -16
.LCFI107:
	.cfi_def_cfa_register 6
	pushq	%rbx
	naclsspq	$24, %r15
	movl	%edi, -20(%rbp)
	.loc 2 2955 0
	movq	8(%rbp), %rsi
	movl	$arc_released, %edi
	.cfi_offset 3, -24
	call	__cyg_profile_func_enter
	.loc 2 2956 0
	mov	-20(%rbp), %eax
	mov	%nacl:8(%r15,%rax), %eax
	testq	%rax, %rax
	je	.L632
	mov	-20(%rbp), %eax
	mov	%nacl:(%r15,%rax), %eax
	mov	%nacl:172(%r15,%rax), %edx
	mov	arc_anon(%rip), %eax
	cmpl	%eax, %edx
	jne	.L632
	movl	$1, %eax
	jmp	.L633
	.align 32
.L632:
	movl	$0, %eax
	.align 32
.L633:
	movl	%eax, %ebx
	movq	8(%rbp), %rsi
	movl	$arc_released, %edi
	call	__cyg_profile_func_exit
	movl	%ebx, %eax
	.loc 2 2957 0
	naclaspq	$24, %r15
	popq	%rbx
	popq	%r11
	naclrestbp	%r11d, %r15
	popq	%r11
	nacljmp	%r11d,%r15
	.cfi_endproc
.LFE56:
	.size	arc_released, .-arc_released
	.align 32
.globl arc_has_callback
	.type	arc_has_callback, @function
arc_has_callback:
.LFB57:
	.loc 2 2961 0
	.cfi_startproc
	pushq	%rbp
.LCFI108:
	.cfi_def_cfa_offset 16
	movq	%rsp, %rbp
	.cfi_offset 6, -16
.LCFI109:
	.cfi_def_cfa_register 6
	pushq	%rbx
	naclsspq	$24, %r15
	movl	%edi, -20(%rbp)
	.loc 2 2961 0
	movq	8(%rbp), %rsi
	movl	$arc_has_callback, %edi
	.cfi_offset 3, -24
	call	__cyg_profile_func_enter
	.loc 2 2962 0
	mov	-20(%rbp), %eax
	mov	%nacl:12(%r15,%rax), %eax
	testl	%eax, %eax
	setne	%al
	movzbl	%al, %ebx
	movq	8(%rbp), %rsi
	movl	$arc_has_callback, %edi
	call	__cyg_profile_func_exit
	movl	%ebx, %eax
	.loc 2 2963 0
	naclaspq	$24, %r15
	popq	%rbx
	popq	%r11
	naclrestbp	%r11d, %r15
	popq	%r11
	nacljmp	%r11d,%r15
	.cfi_endproc
.LFE57:
	.size	arc_has_callback, .-arc_has_callback
	.align 32
.globl arc_referenced
	.type	arc_referenced, @function
arc_referenced:
.LFB58:
	.loc 2 2967 0
	.cfi_startproc
	pushq	%rbp
.LCFI110:
	.cfi_def_cfa_offset 16
	movq	%rsp, %rbp
	.cfi_offset 6, -16
.LCFI111:
	.cfi_def_cfa_register 6
	pushq	%rbx
	naclsspq	$24, %r15
	movl	%edi, -20(%rbp)
	.loc 2 2967 0
	movq	8(%rbp), %rsi
	movl	$arc_referenced, %edi
	.cfi_offset 3, -24
	call	__cyg_profile_func_enter
	.loc 2 2968 0
	mov	-20(%rbp), %eax
	mov	%nacl:(%r15,%rax), %eax
	addl	$192, %eax
	mov	%eax, %eax
	movl	%eax, %edi
	call	refcount_count
	movl	%eax, %ebx
	movq	8(%rbp), %rsi
	movl	$arc_referenced, %edi
	call	__cyg_profile_func_exit
	movl	%ebx, %eax
	.loc 2 2969 0
	naclaspq	$24, %r15
	popq	%rbx
	popq	%r11
	naclrestbp	%r11d, %r15
	popq	%r11
	nacljmp	%r11d,%r15
	.cfi_endproc
.LFE58:
	.size	arc_referenced, .-arc_referenced
	.section	.rodata
	.align 8
.LC126:
	.string	"!refcount_is_zero(&buf->b_hdr->b_refcnt)"
	.text
	.align 32
	.type	arc_write_ready, @function
arc_write_ready:
.LFB59:
	.loc 2 2973 0
	.cfi_startproc
	pushq	%rbp
.LCFI112:
	.cfi_def_cfa_offset 16
	movq	%rsp, %rbp
	.cfi_offset 6, -16
.LCFI113:
	.cfi_def_cfa_register 6
	pushq	%rbx
	naclsspq	$40, %r15
	movl	%edi, -36(%rbp)
	.loc 2 2973 0
	movq	8(%rbp), %rsi
	movl	$arc_write_ready, %edi
	.cfi_offset 3, -24
	call	__cyg_profile_func_enter
	.loc 2 2974 0
	mov	-36(%rbp), %eax
	mov	%nacl:244(%r15,%rax), %eax
	movl	%eax, -28(%rbp)
	.loc 2 2975 0
	mov	-28(%rbp), %eax
	movl	%nacl:12(%r15,%rax), %eax
	movl	%eax, -24(%rbp)
	.loc 2 2976 0
	mov	-24(%rbp), %eax
	movl	%nacl:(%r15,%rax), %eax
	movl	%eax, -20(%rbp)
	.loc 2 2978 0
	mov	-36(%rbp), %eax
	movl	%nacl:528(%r15,%rax), %eax
	testl	%eax, %eax
	jne	.L640
	mov	-28(%rbp), %eax
	mov	%nacl:4(%r15,%rax), %eax
	testq	%rax, %rax
	je	.L640
	.loc 2 2979 0
	mov	-24(%rbp), %eax
	mov	%nacl:(%r15,%rax), %eax
	addl	$192, %eax
	mov	%eax, %eax
	movl	%eax, %edi
	call	refcount_is_zero
	testl	%eax, %eax
	je	.L641
	movl	$__PRETTY_FUNCTION__.12843, %ecx
	movl	$2979, %edx
	movl	$.LC3, %esi
	movl	$.LC126, %edi
	call	__assert_fail
	.align 32
.L641:
	.loc 2 2980 0
	mov	-28(%rbp), %eax
	mov	%nacl:4(%r15,%rax), %eax
	mov	-28(%rbp), %edx
	mov	%nacl:(%r15,%rdx), %edx
	movl	-24(%rbp), %ebx
	movl	-36(%rbp), %ecx
	movl	%ebx, %esi
	movl	%ecx, %edi
	naclcall	%eax,%r15
	.align 32
.L640:
	.loc 2 2989 0
	mov	-20(%rbp), %eax
	movl	%nacl:88(%r15,%rax), %eax
	andl	$1024, %eax
	testl	%eax, %eax
	je	.L642
	.loc 2 2990 0
	mov	-36(%rbp), %eax
	movq	%nacl:328(%r15,%rax), %rax
	testq	%rax, %rax
	je	.L643
	.loc 2 2991 0
	mov	-28(%rbp), %eax
	mov	%nacl:4(%r15,%rax), %eax
	.loc 2 2990 0
	testq	%rax, %rax
	jne	.L643
	.loc 2 2992 0
	movl	-36(%rbp), %eax
	addl	$248, %eax
	mov	%eax, %ecx
	mov	-36(%rbp), %eax
	movq	%nacl:64(%r15,%rax), %rdx
	mov	-36(%rbp), %eax
	mov	%nacl:8(%r15,%rax), %ebx
	movl	-36(%rbp), %eax
	movl	$0, %r9d
	movl	$0, %r8d
	movl	%ebx, %esi
	movl	%eax, %edi
	call	zio_free
	mov	%eax, %eax
	movl	%eax, %edi
	call	zio_nowait
	.align 32
.L643:
	.loc 2 2995 0
	movl	-20(%rbp), %eax
	addl	$32, %eax
	mov	%eax, %eax
	movl	%eax, %edi
	call	mutex_enter
	.loc 2 2996 0
	mov	-20(%rbp), %eax
	mov	%nacl:76(%r15,%rax), %eax
	testq	%rax, %rax
	je	.L644
	.loc 2 2997 0
	mov	-20(%rbp), %eax
	mov	%nacl:76(%r15,%rax), %eax
	movl	$32, %esi
	movl	%eax, %edi
	call	umem_free
	.loc 2 2998 0
	mov	-20(%rbp), %eax
	movl	$0, %nacl:76(%r15,%rax)
	.align 32
.L644:
	.loc 2 3000 0
	movl	-20(%rbp), %eax
	addl	$32, %eax
	mov	%eax, %eax
	movl	%eax, %edi
	call	mutex_exit
	.align 32
.L642:
	.loc 2 3002 0
	movl	-24(%rbp), %eax
	movl	$0, %esi
	movl	%eax, %edi
	call	arc_cksum_compute
	.loc 2 3003 0
	mov	-20(%rbp), %eax
	movl	%nacl:88(%r15,%rax), %eax
	movl	%eax, %edx
	orb	$4, %dh
	mov	-20(%rbp), %eax
	movl	%edx, %nacl:88(%r15,%rax)
	movq	8(%rbp), %rsi
	movl	$arc_write_ready, %edi
	call	__cyg_profile_func_exit
	.loc 2 3004 0
	naclaspq	$40, %r15
	popq	%rbx
	popq	%r11
	naclrestbp	%r11d, %r15
	popq	%r11
	nacljmp	%r11d,%r15
	.cfi_endproc
.LFE59:
	.size	arc_write_ready, .-arc_write_ready
	.section	.rodata
	.align 8
.LC127:
	.string	"(((&(&zio->io_bp_orig)->blk_dva[0]))->dva_word[1] == ((&(zio->io_bp)->blk_dva[0]))->dva_word[1] && ((&(&zio->io_bp_orig)->blk_dva[0]))->dva_word[0] == ((&(zio->io_bp)->blk_dva[0]))->dva_word[0])"
.LC128:
	.string	"zio->io_bp->blk_birth"
.LC129:
	.string	"zio->io_bp_orig.blk_birth"
	.align 8
.LC130:
	.string	"refcount_is_zero(&exists->b_refcnt)"
.LC131:
	.string	"exists"
	.align 8
.LC132:
	.string	"!refcount_is_zero(&hdr->b_refcnt)"
	.text
	.align 32
	.type	arc_write_done, @function
arc_write_done:
.LFB60:
	.loc 2 3008 0
	.cfi_startproc
	pushq	%rbp
.LCFI114:
	.cfi_def_cfa_offset 16
	movq	%rsp, %rbp
	.cfi_offset 6, -16
.LCFI115:
	.cfi_def_cfa_register 6
	pushq	%rbx
	naclsspq	$120, %r15
	movl	%edi, -84(%rbp)
	.loc 2 3008 0
	movq	8(%rbp), %rsi
	movl	$arc_write_done, %edi
	.cfi_offset 3, -24
	call	__cyg_profile_func_enter
	.loc 2 3009 0
	mov	-84(%rbp), %eax
	mov	%nacl:244(%r15,%rax), %eax
	movl	%eax, -72(%rbp)
	.loc 2 3010 0
	mov	-72(%rbp), %eax
	movl	%nacl:12(%r15,%rax), %eax
	movl	%eax, -68(%rbp)
	.loc 2 3011 0
	mov	-68(%rbp), %eax
	movl	%nacl:(%r15,%rax), %eax
	movl	%eax, -64(%rbp)
	.loc 2 3013 0
	mov	-64(%rbp), %eax
	movl	$0, %nacl:96(%r15,%rax)
	.loc 2 3015 0
	mov	-84(%rbp), %eax
	mov	%nacl:72(%r15,%rax), %edx
	mov	-64(%rbp), %eax
	movq	%nacl:(%r15,%rdx), %rcx
	movq	%rcx, %nacl:(%r15,%rax)
	movq	%nacl:8(%r15,%rdx), %rdx
	movq	%rdx, %nacl:8(%r15,%rax)
	.loc 2 3016 0
	mov	-84(%rbp), %eax
	mov	%nacl:72(%r15,%rax), %eax
	movq	%nacl:80(%r15,%rax), %rdx
	mov	-64(%rbp), %eax
	movq	%rdx, %nacl:16(%r15,%rax)
	.loc 2 3017 0
	mov	-84(%rbp), %eax
	mov	%nacl:72(%r15,%rax), %eax
	movq	%nacl:96(%r15,%rax), %rdx
	mov	-64(%rbp), %eax
	movq	%rdx, %nacl:24(%r15,%rax)
	.loc 2 3024 0
	mov	-64(%rbp), %eax
	movq	%nacl:(%r15,%rax), %rax
	testq	%rax, %rax
	jne	.L647
	mov	-64(%rbp), %eax
	movq	%nacl:8(%r15,%rax), %rax
	testq	%rax, %rax
	jne	.L647
	mov	-64(%rbp), %eax
	movq	%nacl:16(%r15,%rax), %rax
	testq	%rax, %rax
	je	.L648
	.align 32
.L647:
.LBB87:
	.loc 2 3028 0
	movl	-68(%rbp), %eax
	movl	%eax, %edi
	call	arc_cksum_verify
	.loc 2 3030 0
	leal	-76(%rbp), %edx
	movl	-64(%rbp), %eax
	movl	%edx, %esi
	movl	%eax, %edi
	call	buf_hash_insert
	mov	%eax, %eax
	movl	%eax, -60(%rbp)
	.loc 2 3031 0
	cmpl	$0, -60(%rbp)
	je	.L649
	.loc 2 3037 0
	mov	-84(%rbp), %eax
	movq	%nacl:256(%r15,%rax), %rdx
	mov	-84(%rbp), %eax
	mov	%nacl:72(%r15,%rax), %eax
	movq	%nacl:8(%r15,%rax), %rax
	cmpq	%rax, %rdx
	jne	.L650
	mov	-84(%rbp), %eax
	movq	%nacl:248(%r15,%rax), %rdx
	mov	-84(%rbp), %eax
	mov	%nacl:72(%r15,%rax), %eax
	movq	%nacl:(%r15,%rax), %rax
	cmpq	%rax, %rdx
	je	.L651
	.align 32
.L650:
	movl	$__PRETTY_FUNCTION__.12888, %ecx
	movl	$3038, %edx
	movl	$.LC3, %esi
	movl	$.LC127, %edi
	call	__assert_fail
	.align 32
.L651:
.LBB88:
	.loc 2 3039 0
	mov	-84(%rbp), %eax
	movq	%nacl:328(%r15,%rax), %rax
	movq	%rax, -56(%rbp)
	mov	-84(%rbp), %eax
	mov	%nacl:72(%r15,%rax), %eax
	movq	%nacl:80(%r15,%rax), %rax
	movq	%rax, -48(%rbp)
	movq	-56(%rbp), %rax
	cmpq	-48(%rbp), %rax
	je	.L652
.LBB89:
	naclsspq	$272, %r15
	leal	24(%rsp), %eax
	addq	$15, %rax
	shrq	$4, %rax
	salq	$4, %rax
	mov	%eax, %eax
	movl	%eax, -36(%rbp)
	movl	$.LC20, %eax
	mov	%eax, %ebx
	movl	-36(%rbp), %eax
	movq	-48(%rbp), %rdx
	movq	%rdx, 16(%rsp)
	movl	$.LC22, 8(%rsp)
	movq	-56(%rbp), %rdx
	movq	%rdx, (%rsp)
	movl	$.LC128, %r9d
	movl	$.LC22, %r8d
	movl	$.LC129, %ecx
	movl	%ebx, %edx
	movl	$256, %esi
	movl	%eax, %edi
	movl	$0, %eax
	call	snprintf
	movl	$.LC24, %eax
	mov	%eax, %ebx
	mov	stderr(%rip), %eax
	movl	-36(%rbp), %edx
	movl	%edx, %r9d
	movl	$__PRETTY_FUNCTION__.12888, %r8d
	movl	$3040, %ecx
	movl	$.LC3, %edx
	movl	%ebx, %esi
	movl	%eax, %edi
	movl	$0, %eax
	call	fprintf
	call	abort
	.align 32
.L652:
.LBE89:
.LBE88:
	.loc 2 3042 0
	movl	-60(%rbp), %eax
	addl	$192, %eax
	mov	%eax, %eax
	movl	%eax, %edi
	call	refcount_is_zero
	testl	%eax, %eax
	jne	.L653
	movl	$__PRETTY_FUNCTION__.12888, %ecx
	movl	$3042, %edx
	movl	$.LC3, %esi
	movl	$.LC130, %edi
	call	__assert_fail
	.align 32
.L653:
	.loc 2 3043 0
	mov	-76(%rbp), %edx
	mov	arc_anon(%rip), %ecx
	movl	-60(%rbp), %eax
	movl	%eax, %esi
	movl	%ecx, %edi
	call	arc_change_state
	.loc 2 3044 0
	mov	-76(%rbp), %eax
	movl	%eax, %edi
	call	mutex_exit
	.loc 2 3045 0
	movl	-60(%rbp), %eax
	movl	%eax, %edi
	call	arc_hdr_destroy
	.loc 2 3046 0
	leal	-76(%rbp), %edx
	movl	-64(%rbp), %eax
	movl	%edx, %esi
	movl	%eax, %edi
	call	buf_hash_insert
	mov	%eax, %eax
	movl	%eax, -60(%rbp)
.LBB90:
	.loc 2 3047 0
	movl	-60(%rbp), %eax
	movl	%eax, -32(%rbp)
	movl	$0, -28(%rbp)
	movl	-32(%rbp), %eax
	cmpl	-28(%rbp), %eax
	je	.L649
.LBB91:
	naclsspq	$272, %r15
	leal	24(%rsp), %eax
	addq	$15, %rax
	shrq	$4, %rax
	salq	$4, %rax
	mov	%eax, %eax
	movl	%eax, -24(%rbp)
	mov	-28(%rbp), %ecx
	mov	-32(%rbp), %edx
	movl	$.LC20, %eax
	mov	%eax, %ebx
	movl	-24(%rbp), %eax
	movq	%rcx, 16(%rsp)
	movl	$.LC22, 8(%rsp)
	movq	%rdx, (%rsp)
	movl	$.LC25, %r9d
	movl	$.LC22, %r8d
	movl	$.LC131, %ecx
	movl	%ebx, %edx
	movl	$256, %esi
	movl	%eax, %edi
	movl	$0, %eax
	call	snprintf
	movl	$.LC24, %eax
	mov	%eax, %ebx
	mov	stderr(%rip), %eax
	movl	-24(%rbp), %edx
	movl	%edx, %r9d
	movl	$__PRETTY_FUNCTION__.12888, %r8d
	movl	$3047, %ecx
	movl	$.LC3, %edx
	movl	%ebx, %esi
	movl	%eax, %edi
	movl	$0, %eax
	call	fprintf
	call	abort
	.align 32
.L649:
.LBE91:
.LBE90:
	.loc 2 3049 0
	mov	-64(%rbp), %eax
	movl	%nacl:88(%r15,%rax), %eax
	movl	%eax, %edx
	andb	$251, %dh
	mov	-64(%rbp), %eax
	movl	%edx, %nacl:88(%r15,%rax)
	.loc 2 3051 0
	mov	-64(%rbp), %eax
	mov	%nacl:172(%r15,%rax), %edx
	mov	arc_anon(%rip), %eax
	cmpl	%eax, %edx
	jne	.L654
	.loc 2 3052 0
	mov	-76(%rbp), %edx
	movl	-64(%rbp), %eax
	movl	%edx, %esi
	movl	%eax, %edi
	call	arc_access
	.align 32
.L654:
	.loc 2 3053 0
	mov	-76(%rbp), %eax
	movl	%eax, %edi
	call	mutex_exit
.LBE87:
	.loc 2 3024 0
	jmp	.L655
	.align 32
.L648:
	.loc 2 3054 0
	mov	-72(%rbp), %eax
	mov	%nacl:8(%r15,%rax), %eax
	testq	%rax, %rax
	jne	.L656
.LBB92:
	.loc 2 3060 0
	movl	$arc_eviction_mtx, %edi
	call	mutex_enter
	.loc 2 3061 0
	movl	-64(%rbp), %eax
	addl	$192, %eax
	mov	%eax, %eax
	movl	%eax, %edi
	call	refcount_is_zero
	movl	%eax, -20(%rbp)
	.loc 2 3062 0
	mov	-64(%rbp), %eax
	movl	%nacl:88(%r15,%rax), %eax
	movl	%eax, %edx
	andb	$251, %dh
	mov	-64(%rbp), %eax
	movl	%edx, %nacl:88(%r15,%rax)
	.loc 2 3063 0
	movl	$arc_eviction_mtx, %edi
	call	mutex_exit
	.loc 2 3064 0
	cmpl	$0, -20(%rbp)
	je	.L661
	.loc 2 3065 0
	movl	-64(%rbp), %eax
	movl	%eax, %edi
	call	arc_hdr_destroy
	jmp	.L655
	.align 32
.L656:
.LBE92:
	.loc 2 3067 0
	mov	-64(%rbp), %eax
	movl	%nacl:88(%r15,%rax), %eax
	movl	%eax, %edx
	andb	$251, %dh
	mov	-64(%rbp), %eax
	movl	%edx, %nacl:88(%r15,%rax)
	jmp	.L655
	.align 32
.L661:
.LBB93:
	.loc 2 3065 0
	nop
	.align 32
.L655:
.LBE93:
	.loc 2 3069 0
	mov	-64(%rbp), %eax
	movl	%nacl:88(%r15,%rax), %eax
	movl	%eax, %edx
	andl	$-524289, %edx
	mov	-64(%rbp), %eax
	movl	%edx, %nacl:88(%r15,%rax)
	.loc 2 3071 0
	mov	-72(%rbp), %eax
	mov	%nacl:8(%r15,%rax), %eax
	testq	%rax, %rax
	je	.L658
	.loc 2 3072 0
	movl	-64(%rbp), %eax
	addl	$192, %eax
	mov	%eax, %eax
	movl	%eax, %edi
	call	refcount_is_zero
	testl	%eax, %eax
	je	.L659
	movl	$__PRETTY_FUNCTION__.12888, %ecx
	movl	$3072, %edx
	movl	$.LC3, %esi
	movl	$.LC132, %edi
	call	__assert_fail
	.align 32
.L659:
	.loc 2 3073 0
	mov	-72(%rbp), %eax
	mov	%nacl:8(%r15,%rax), %eax
	mov	-72(%rbp), %edx
	mov	%nacl:(%r15,%rdx), %edx
	movl	-68(%rbp), %ebx
	movl	-84(%rbp), %ecx
	movl	%ebx, %esi
	movl	%ecx, %edi
	naclcall	%eax,%r15
	.align 32
.L658:
	.loc 2 3076 0
	movl	-72(%rbp), %eax
	movl	$16, %esi
	movl	%eax, %edi
	call	umem_free
	movq	8(%rbp), %rsi
	movl	$arc_write_done, %edi
	call	__cyg_profile_func_exit
	.loc 2 3077 0
	movq	-8(%rbp), %rbx
	movq	%rbp, %rsp
	popq	%r11
	naclrestbp	%r11d, %r15
	popq	%r11
	nacljmp	%r11d,%r15
	.cfi_endproc
.LFE60:
	.size	arc_write_done, .-arc_write_done
	.align 32
	.type	write_policy, @function
write_policy:
.LFB61:
	.loc 2 3082 0
	.cfi_startproc
	pushq	%rbp
.LCFI116:
	.cfi_def_cfa_offset 16
	movq	%rsp, %rbp
	.cfi_offset 6, -16
.LCFI117:
	.cfi_def_cfa_register 6
	naclsspq	$48, %r15
	movl	%edi, -20(%rbp)
	movl	%esi, -24(%rbp)
	movl	%edx, -28(%rbp)
	movl	%ecx, -32(%rbp)
	movl	%r8d, -36(%rbp)
	.loc 2 3082 0
	movq	8(%rbp), %rsi
	movl	$write_policy, %edi
	call	__cyg_profile_func_enter
	.loc 2 3083 0
	mov	-24(%rbp), %eax
	movzbl	%nacl:4(%r15,%rax), %eax
	movzbl	%al, %eax
	movl	%eax, -8(%rbp)
	.loc 2 3084 0
	mov	-24(%rbp), %eax
	movzbl	%nacl:5(%r15,%rax), %eax
	testb	%al, %al
	jne	.L663
	mov	-24(%rbp), %eax
	movl	%nacl:(%r15,%rax), %edx
	movl	%edx, %eax
	addl	%eax, %eax
	addl	%edx, %eax
	sall	$2, %eax
	movslq	%eax,%rdx
	movl	$dmu_ot+4, %eax
	leaq	(%rdx,%rax), %rax
	movl	%nacl:(%r15,%rax), %eax
	testl	%eax, %eax
	je	.L664
	.align 32
.L663:
	movl	$1, %eax
	jmp	.L665
	.align 32
.L664:
	movl	$0, %eax
	.align 32
.L665:
	movl	%eax, -4(%rbp)
	.loc 2 3087 0
	cmpl	$0, -4(%rbp)
	je	.L666
	.loc 2 3088 0
	addl	$1, -8(%rbp)
	.align 32
.L666:
	.loc 2 3089 0
	movl	-20(%rbp), %eax
	movl	%eax, %edi
	call	spa_max_replication
	cmpl	-8(%rbp), %eax
	jg	.L667
	movl	-20(%rbp), %eax
	movl	%eax, %edi
	call	spa_max_replication
	jmp	.L668
	.align 32
.L667:
	movl	-8(%rbp), %eax
	.align 32
.L668:
	mov	-36(%rbp), %edx
	movl	%eax, %nacl:(%r15,%rdx)
	.loc 2 3092 0
	cmpl	$0, -4(%rbp)
	je	.L669
	.loc 2 3100 0
	mov	-24(%rbp), %eax
	movzbl	%nacl:9(%r15,%rax), %eax
	movzbl	%al, %edx
	movl	%edx, %eax
	sall	$2, %eax
	addl	%edx, %eax
	sall	$2, %eax
	movslq	%eax,%rdx
	movl	$zio_checksum_table+8, %eax
	leaq	(%rdx,%rax), %rax
	movl	%nacl:(%r15,%rax), %eax
	testl	%eax, %eax
	je	.L670
	.loc 2 3101 0
	mov	-24(%rbp), %eax
	movzbl	%nacl:9(%r15,%rax), %eax
	movzbl	%al, %edx
	movl	%edx, %eax
	sall	$2, %eax
	addl	%edx, %eax
	sall	$2, %eax
	movslq	%eax,%rdx
	movl	$zio_checksum_table+12, %eax
	leaq	(%rdx,%rax), %rax
	movl	%nacl:(%r15,%rax), %eax
	.loc 2 3100 0
	testl	%eax, %eax
	jne	.L670
	.loc 2 3102 0
	mov	-24(%rbp), %eax
	movzbl	%nacl:9(%r15,%rax), %eax
	movzbl	%al, %edx
	mov	-28(%rbp), %eax
	movl	%edx, %nacl:(%r15,%rax)
	.loc 2 3100 0
	nop
	jmp	.L672
	.align 32
.L670:
	.loc 2 3104 0
	mov	-28(%rbp), %eax
	movl	$7, %nacl:(%r15,%rax)
	jmp	.L672
	.align 32
.L669:
	.loc 2 3107 0
	mov	-24(%rbp), %eax
	movzbl	%nacl:9(%r15,%rax), %eax
	.loc 2 3106 0
	movzbl	%al, %edx
	mov	-24(%rbp), %eax
	movzbl	%nacl:8(%r15,%rax), %eax
	movzbl	%al, %eax
	movl	%edx, %esi
	movl	%eax, %edi
	call	zio_checksum_select
	movzbl	%al, %edx
	mov	-28(%rbp), %eax
	movl	%edx, %nacl:(%r15,%rax)
	.align 32
.L672:
	.loc 2 3111 0
	cmpl	$0, -4(%rbp)
	je	.L673
	.loc 2 3116 0
	movl	zfs_mdcomp_disable(%rip), %eax
	testl	%eax, %eax
	je	.L674
	movl	$4, %eax
	jmp	.L675
	.align 32
.L674:
	movl	$3, %eax
	.align 32
.L675:
	mov	-32(%rbp), %edx
	movl	%eax, %nacl:(%r15,%rdx)
	jmp	.L676
	.align 32
.L673:
	.loc 2 3120 0
	mov	-24(%rbp), %eax
	movzbl	%nacl:7(%r15,%rax), %eax
	.loc 2 3119 0
	movzbl	%al, %edx
	mov	-24(%rbp), %eax
	movzbl	%nacl:6(%r15,%rax), %eax
	movzbl	%al, %eax
	movl	%edx, %esi
	movl	%eax, %edi
	call	zio_compress_select
	movzbl	%al, %edx
	mov	-32(%rbp), %eax
	movl	%edx, %nacl:(%r15,%rax)
	.align 32
.L676:
	movq	8(%rbp), %rsi
	movl	$write_policy, %edi
	call	__cyg_profile_func_exit
	.loc 2 3122 0
	movq	%rbp, %rsp
	popq	%r11
	naclrestbp	%r11d, %r15
	popq	%r11
	nacljmp	%r11d,%r15
	.cfi_endproc
.LFE61:
	.size	write_policy, .-write_policy
	.section	.rodata
.LC133:
	.string	"!((hdr)->b_flags & (1 << 11))"
	.align 8
.LC134:
	.string	"(hdr->b_flags & (1 << 10)) == 0"
.LC135:
	.string	"hdr->b_acb == 0"
	.text
	.align 32
.globl arc_write
	.type	arc_write, @function
arc_write:
.LFB62:
	.loc 2 3129 0
	.cfi_startproc
	pushq	%rbp
.LCFI118:
	.cfi_def_cfa_offset 16
	movq	%rsp, %rbp
	.cfi_offset 6, -16
.LCFI119:
	.cfi_def_cfa_register 6
	pushq	%rbx
	naclsspq	$152, %r15
	movl	%edi, -52(%rbp)
	movl	%esi, -56(%rbp)
	movl	%edx, -60(%rbp)
	movl	%ecx, -64(%rbp)
	movq	%r8, -72(%rbp)
	movl	%r9d, -76(%rbp)
	.loc 2 3129 0
	movq	8(%rbp), %rsi
	movl	$arc_write, %edi
	.cfi_offset 3, -24
	call	__cyg_profile_func_enter
	.loc 2 3130 0
	mov	16(%rbp), %eax
	movl	%nacl:(%r15,%rax), %eax
	movl	%eax, -28(%rbp)
	.loc 2 3135 0
	mov	-28(%rbp), %eax
	movl	%nacl:88(%r15,%rax), %eax
	andl	$2048, %eax
	testl	%eax, %eax
	je	.L679
	movl	$__PRETTY_FUNCTION__.13060, %ecx
	movl	$3135, %edx
	movl	$.LC3, %esi
	movl	$.LC133, %edi
	call	__assert_fail
	.align 32
.L679:
	.loc 2 3136 0
	mov	-28(%rbp), %eax
	movl	%nacl:88(%r15,%rax), %eax
	andl	$1024, %eax
	testl	%eax, %eax
	je	.L680
	movl	$__PRETTY_FUNCTION__.13060, %ecx
	movl	$3136, %edx
	movl	$.LC3, %esi
	movl	$.LC134, %edi
	call	__assert_fail
	.align 32
.L680:
	.loc 2 3137 0
	mov	-28(%rbp), %eax
	mov	%nacl:96(%r15,%rax), %eax
	testq	%rax, %rax
	je	.L681
	movl	$__PRETTY_FUNCTION__.13060, %ecx
	movl	$3137, %edx
	movl	$.LC3, %esi
	movl	$.LC135, %edi
	call	__assert_fail
	.align 32
.L681:
	.loc 2 3138 0
	cmpl	$0, -64(%rbp)
	je	.L682
	.loc 2 3139 0
	mov	-28(%rbp), %eax
	movl	%nacl:88(%r15,%rax), %eax
	movl	%eax, %edx
	orl	$32, %edx
	mov	-28(%rbp), %eax
	movl	%edx, %nacl:88(%r15,%rax)
	.align 32
.L682:
	.loc 2 3140 0
	movl	$256, %esi
	movl	$16, %edi
	call	umem_zalloc
	mov	%eax, %eax
	movl	%eax, -24(%rbp)
	.loc 2 3141 0
	mov	-24(%rbp), %eax
	movl	24(%rbp), %edx
	movl	%edx, %nacl:4(%r15,%rax)
	.loc 2 3142 0
	mov	-24(%rbp), %eax
	movl	32(%rbp), %edx
	movl	%edx, %nacl:8(%r15,%rax)
	.loc 2 3143 0
	mov	-24(%rbp), %eax
	movl	40(%rbp), %edx
	movl	%edx, %nacl:(%r15,%rax)
	.loc 2 3144 0
	mov	-24(%rbp), %eax
	movl	16(%rbp), %edx
	movl	%edx, %nacl:12(%r15,%rax)
	.loc 2 3146 0
	leal	-40(%rbp), %esi
	leal	-36(%rbp), %ecx
	leal	-32(%rbp), %edx
	movl	-60(%rbp), %ebx
	movl	-56(%rbp), %eax
	movl	%esi, %r8d
	movl	%ebx, %esi
	movl	%eax, %edi
	call	write_policy
	.loc 2 3147 0
	mov	-28(%rbp), %eax
	movq	%nacl:160(%r15,%rax), %rdi
	mov	16(%rbp), %eax
	mov	%nacl:8(%r15,%rax), %esi
	movl	-40(%rbp), %r10d
	movl	-36(%rbp), %ecx
	movl	-32(%rbp), %edx
	movq	-72(%rbp), %r9
	movl	-56(%rbp), %ebx
	movl	-52(%rbp), %eax
	movl	64(%rbp), %r8d
	movl	%r8d, 64(%rsp)
	movl	56(%rbp), %r8d
	movl	%r8d, 56(%rsp)
	movl	48(%rbp), %r8d
	movl	%r8d, 48(%rsp)
	movl	-24(%rbp), %r8d
	movl	%r8d, 40(%rsp)
	movl	$arc_write_done, 32(%rsp)
	movl	$arc_write_ready, 24(%rsp)
	movq	%rdi, 16(%rsp)
	movl	%esi, 8(%rsp)
	movl	-76(%rbp), %esi
	movl	%esi, (%rsp)
	movl	%r10d, %r8d
	movl	%ebx, %esi
	movl	%eax, %edi
	call	zio_write
	mov	%eax, %eax
	movl	%eax, -20(%rbp)
	.loc 2 3151 0
	mov	-20(%rbp), %ebx
	movq	8(%rbp), %rsi
	movl	$arc_write, %edi
	call	__cyg_profile_func_exit
	movl	%ebx, %eax
	.loc 2 3152 0
	naclaspq	$152, %r15
	popq	%rbx
	popq	%r11
	naclrestbp	%r11d, %r15
	popq	%r11
	nacljmp	%r11d,%r15
	.cfi_endproc
.LFE62:
	.size	arc_write, .-arc_write
	.section	.rodata
	.align 8
.LC136:
	.string	"bp->blk_cksum.zc_word[0] == 0 || ab->b_cksum0 == bp->blk_cksum.zc_word[0]"
.LC137:
	.string	"ab->b_flags & (1 << 3)"
.LC138:
	.string	"!((ab)->b_flags & (1 << 9))"
.LC139:
	.string	"arc_flags & (1 << 2)"
	.text
	.align 32
.globl arc_free
	.type	arc_free, @function
arc_free:
.LFB63:
	.loc 2 3157 0
	.cfi_startproc
	pushq	%rbp
.LCFI120:
	.cfi_def_cfa_offset 16
	movq	%rsp, %rbp
	.cfi_offset 6, -16
.LCFI121:
	.cfi_def_cfa_register 6
	pushq	%rbx
	naclsspq	$120, %r15
	movl	%edi, -68(%rbp)
	movl	%esi, -72(%rbp)
	movq	%rdx, -80(%rbp)
	movl	%ecx, -84(%rbp)
	movl	%r8d, -88(%rbp)
	movl	%r9d, -92(%rbp)
	.loc 2 3157 0
	movq	8(%rbp), %rsi
	movl	$arc_free, %edi
	.cfi_offset 3, -24
	call	__cyg_profile_func_enter
	.loc 2 3166 0
	mov	-84(%rbp), %eax
	movq	%nacl:80(%r15,%rax), %rdx
	mov	-84(%rbp), %ebx
	leal	-52(%rbp), %ecx
	movl	-72(%rbp), %eax
	movl	%ebx, %esi
	movl	%eax, %edi
	call	buf_hash_find
	mov	%eax, %eax
	movl	%eax, -48(%rbp)
	.loc 2 3167 0
	cmpl	$0, -48(%rbp)
	je	.L685
	.loc 2 3173 0
	mov	-84(%rbp), %eax
	movq	%nacl:96(%r15,%rax), %rax
	testq	%rax, %rax
	je	.L686
	mov	-48(%rbp), %eax
	movq	%nacl:24(%r15,%rax), %rdx
	mov	-84(%rbp), %eax
	movq	%nacl:96(%r15,%rax), %rax
	cmpq	%rax, %rdx
	je	.L686
	movl	$__PRETTY_FUNCTION__.13096, %ecx
	movl	$3174, %edx
	movl	$.LC3, %esi
	movl	$.LC136, %edi
	call	__assert_fail
	.align 32
.L686:
	.loc 2 3175 0
	mov	-48(%rbp), %eax
	mov	%nacl:172(%r15,%rax), %edx
	mov	arc_anon(%rip), %eax
	cmpl	%eax, %edx
	je	.L687
	.loc 2 3176 0
	mov	-52(%rbp), %edx
	mov	arc_anon(%rip), %ecx
	movl	-48(%rbp), %eax
	movl	%eax, %esi
	movl	%ecx, %edi
	call	arc_change_state
	.align 32
.L687:
	.loc 2 3177 0
	mov	-48(%rbp), %eax
	movl	%nacl:88(%r15,%rax), %eax
	andl	$1024, %eax
	testl	%eax, %eax
	je	.L688
	.loc 2 3181 0
	mov	-48(%rbp), %eax
	movl	%nacl:88(%r15,%rax), %eax
	andl	$8, %eax
	testl	%eax, %eax
	jne	.L689
	movl	$__PRETTY_FUNCTION__.13096, %ecx
	movl	$3181, %edx
	movl	$.LC3, %esi
	movl	$.LC137, %edi
	call	__assert_fail
	.align 32
.L689:
.LBB94:
	.loc 2 3182 0
	mov	-48(%rbp), %eax
	movl	%nacl:92(%r15,%rax), %eax
	mov	%eax, %eax
	movq	%rax, -40(%rbp)
	movq	$1, -32(%rbp)
	movq	-40(%rbp), %rax
	cmpq	-32(%rbp), %rax
	je	.L690
.LBB95:
	naclsspq	$272, %r15
	leal	24(%rsp), %eax
	addq	$15, %rax
	shrq	$4, %rax
	salq	$4, %rax
	mov	%eax, %eax
	movl	%eax, -20(%rbp)
	movl	$.LC20, %eax
	mov	%eax, %ebx
	movl	-20(%rbp), %eax
	movq	-32(%rbp), %rdx
	movq	%rdx, 16(%rsp)
	movl	$.LC22, 8(%rsp)
	movq	-40(%rbp), %rdx
	movq	%rdx, (%rsp)
	movl	$.LC122, %r9d
	movl	$.LC22, %r8d
	movl	$.LC23, %ecx
	movl	%ebx, %edx
	movl	$256, %esi
	movl	%eax, %edi
	movl	$0, %eax
	call	snprintf
	movl	$.LC24, %eax
	mov	%eax, %ebx
	mov	stderr(%rip), %eax
	movl	-20(%rbp), %edx
	movl	%edx, %r9d
	movl	$__PRETTY_FUNCTION__.13096, %r8d
	movl	$3182, %ecx
	movl	$.LC3, %edx
	movl	%ebx, %esi
	movl	%eax, %edi
	movl	$0, %eax
	call	fprintf
	call	abort
	.align 32
.L690:
.LBE95:
.LBE94:
	.loc 2 3183 0
	mov	-48(%rbp), %eax
	movl	%nacl:88(%r15,%rax), %eax
	movl	%eax, %edx
	orb	$16, %dh
	mov	-48(%rbp), %eax
	movl	%edx, %nacl:88(%r15,%rax)
	.loc 2 3184 0
	mov	-48(%rbp), %eax
	movl	%nacl:88(%r15,%rax), %eax
	andl	$512, %eax
	testl	%eax, %eax
	je	.L691
	.loc 2 3185 0
	movl	-48(%rbp), %eax
	movl	%eax, %edi
	call	buf_hash_remove
	.align 32
.L691:
	.loc 2 3186 0
	mov	-48(%rbp), %eax
	movl	$0, %nacl:184(%r15,%rax)
	.loc 2 3187 0
	mov	-48(%rbp), %eax
	movl	$16, %esi
	movl	%eax, %edi
	call	bzero
	.loc 2 3188 0
	mov	-48(%rbp), %eax
	movq	$0, %nacl:16(%r15,%rax)
	.loc 2 3189 0
	mov	-48(%rbp), %eax
	movq	$0, %nacl:24(%r15,%rax)
	.loc 2 3190 0
	mov	-48(%rbp), %eax
	mov	%nacl:84(%r15,%rax), %eax
	movl	$0, %nacl:12(%r15,%rax)
	.loc 2 3191 0
	mov	-48(%rbp), %eax
	mov	%nacl:84(%r15,%rax), %eax
	movl	$0, %nacl:16(%r15,%rax)
	.loc 2 3192 0
	mov	-52(%rbp), %eax
	movl	%eax, %edi
	call	mutex_exit
	jmp	.L685
	.align 32
.L688:
	.loc 2 3193 0
	movl	-48(%rbp), %eax
	addl	$192, %eax
	mov	%eax, %eax
	movl	%eax, %edi
	call	refcount_is_zero
	testl	%eax, %eax
	je	.L692
	.loc 2 3194 0
	mov	-48(%rbp), %eax
	movl	%nacl:88(%r15,%rax), %eax
	movl	%eax, %edx
	orb	$128, %dh
	mov	-48(%rbp), %eax
	movl	%edx, %nacl:88(%r15,%rax)
	.loc 2 3195 0
	mov	-52(%rbp), %eax
	movl	%eax, %edi
	call	mutex_exit
	.loc 2 3196 0
	movl	-48(%rbp), %eax
	movl	%eax, %edi
	call	arc_hdr_destroy
	.loc 2 3197 0
	movl	$arc_stats+704, %eax
	mov	%eax, %eax
	movl	$1, %esi
	movl	%eax, %edi
	call	atomic_add_64
	jmp	.L685
	.align 32
.L692:
	.loc 2 3204 0
	mov	-48(%rbp), %eax
	movl	%nacl:88(%r15,%rax), %eax
	andl	$512, %eax
	testl	%eax, %eax
	je	.L693
	movl	$__PRETTY_FUNCTION__.13096, %ecx
	movl	$3204, %edx
	movl	$.LC3, %esi
	movl	$.LC138, %edi
	call	__assert_fail
	.align 32
.L693:
	.loc 2 3205 0
	mov	-48(%rbp), %eax
	movl	$0, %nacl:184(%r15,%rax)
	.loc 2 3206 0
	mov	-48(%rbp), %eax
	movl	$16, %esi
	movl	%eax, %edi
	call	bzero
	.loc 2 3207 0
	mov	-48(%rbp), %eax
	movq	$0, %nacl:16(%r15,%rax)
	.loc 2 3208 0
	mov	-48(%rbp), %eax
	movq	$0, %nacl:24(%r15,%rax)
	.loc 2 3209 0
	mov	-48(%rbp), %eax
	mov	%nacl:84(%r15,%rax), %eax
	movl	$0, %nacl:12(%r15,%rax)
	.loc 2 3210 0
	mov	-48(%rbp), %eax
	mov	%nacl:84(%r15,%rax), %eax
	movl	$0, %nacl:16(%r15,%rax)
	.loc 2 3211 0
	mov	-52(%rbp), %eax
	movl	%eax, %edi
	call	mutex_exit
	.align 32
.L685:
	.loc 2 3215 0
	movl	-92(%rbp), %edi
	movl	-88(%rbp), %esi
	movl	-84(%rbp), %ecx
	movq	-80(%rbp), %rdx
	movl	-72(%rbp), %ebx
	movl	-68(%rbp), %eax
	movl	%edi, %r9d
	movl	%esi, %r8d
	movl	%ebx, %esi
	movl	%eax, %edi
	call	zio_free
	mov	%eax, %eax
	movl	%eax, -44(%rbp)
	.loc 2 3217 0
	movl	16(%rbp), %eax
	andl	$2, %eax
	testl	%eax, %eax
	je	.L694
	.loc 2 3218 0
	movl	-44(%rbp), %eax
	movl	%eax, %edi
	call	zio_wait
	movl	%eax, %ebx
	jmp	.L695
	.align 32
.L694:
	.loc 2 3220 0
	movl	16(%rbp), %eax
	andl	$4, %eax
	testl	%eax, %eax
	jne	.L696
	movl	$__PRETTY_FUNCTION__.13096, %ecx
	movl	$3220, %edx
	movl	$.LC3, %esi
	movl	$.LC139, %edi
	call	__assert_fail
	.align 32
.L696:
	.loc 2 3221 0
	movl	-44(%rbp), %eax
	movl	%eax, %edi
	call	zio_nowait
	.loc 2 3223 0
	movl	$0, %ebx
	.align 32
.L695:
	movq	8(%rbp), %rsi
	movl	$arc_free, %edi
	call	__cyg_profile_func_exit
	movl	%ebx, %eax
	.loc 2 3224 0
	movq	-8(%rbp), %rbx
	movq	%rbp, %rsp
	popq	%r11
	naclrestbp	%r11d, %r15
	popq	%r11
	nacljmp	%r11d,%r15
	.cfi_endproc
.LFE63:
