	.file	"dmu.c"
	.text
.Ltext0:
.globl __cyg_profile_func_enter
	.section	.rodata
	.align 8
.LC0:
	.string	"Error: clock_gettime(CLOCK_MONOTONIC) failed\n"
	.align 8
.LC1:
	.string	"Make sure you are are running kernel 2.6.x and have glibc 2.3.3 or newer installed\n"
.LC2:
	.string	"Aborting...\n"
.globl __cyg_profile_func_exit
	.text
	.align 32
	.type	gethrtime, @function
gethrtime:
.LFB0:
	.file 1 "../../lib/libsolkerncompat/include/sys/time_aux.h"
	.loc 1 48 0
	.cfi_startproc
	pushq	%rbp
.LCFI0:
	.cfi_def_cfa_offset 16
	movq	%rsp, %rbp
	.cfi_offset 6, -16
.LCFI1:
	.cfi_def_cfa_register 6
	pushq	%rbx
	naclsspq	$24, %r15
	.loc 1 48 0
	movq	8(%rbp), %rsi
	movl	$gethrtime, %edi
	.cfi_offset 3, -24
	call	__cyg_profile_func_enter
	.loc 1 51 0
	leal	-32(%rbp), %eax
	movl	%eax, %esi
	movl	$1, %edi
	call	clock_gettime
	testl	%eax, %eax
	je	.L2
	.loc 1 52 0
	mov	stderr(%rip), %eax
	movq	%rax, %rdx
	movl	$.LC0, %eax
	mov	%eax, %eax
	movl	%edx, %ecx
	movl	$45, %edx
	movl	$1, %esi
	movl	%eax, %edi
	call	fwrite
	.loc 1 53 0
	mov	stderr(%rip), %eax
	movq	%rax, %rdx
	movl	$.LC1, %eax
	mov	%eax, %eax
	movl	%edx, %ecx
	movl	$83, %edx
	movl	$1, %esi
	movl	%eax, %edi
	call	fwrite
	.loc 1 54 0
	mov	stderr(%rip), %eax
	movq	%rax, %rdx
	movl	$.LC2, %eax
	mov	%eax, %eax
	movl	%edx, %ecx
	movl	$12, %edx
	movl	$1, %esi
	movl	%eax, %edi
	call	fwrite
	.loc 1 55 0
	call	abort
	.align 32
.L2:
	.loc 1 58 0
	movq	-32(%rbp), %rax
	imulq	$1000000000, %rax, %rdx
	movl	-24(%rbp), %eax
	cltq
	leaq	(%rdx,%rax), %rax
	movq	%rax, %rbx
	movq	8(%rbp), %rsi
	movl	$gethrtime, %edi
	call	__cyg_profile_func_exit
	movq	%rbx, %rax
	.loc 1 59 0
	naclaspq	$24, %r15
	popq	%rbx
	popq	%r11
	naclrestbp	%r11d, %r15
	popq	%r11
	nacljmp	%r11d,%r15
	.cfi_endproc
.LFE0:
	.size	gethrtime, .-gethrtime
.globl dmu_ot
	.section	.rodata
.LC3:
	.string	"unallocated"
.LC4:
	.string	"object directory"
.LC5:
	.string	"object array"
.LC6:
	.string	"packed nvlist"
.LC7:
	.string	"packed nvlist size"
.LC8:
	.string	"bplist"
.LC9:
	.string	"bplist header"
.LC10:
	.string	"SPA space map header"
.LC11:
	.string	"SPA space map"
.LC12:
	.string	"ZIL intent log"
.LC13:
	.string	"DMU dnode"
.LC14:
	.string	"DMU objset"
.LC15:
	.string	"DSL directory"
.LC16:
	.string	"DSL directory child map"
.LC17:
	.string	"DSL dataset snap map"
.LC18:
	.string	"DSL props"
.LC19:
	.string	"DSL dataset"
.LC20:
	.string	"ZFS znode"
.LC21:
	.string	"ZFS V0 ACL"
.LC22:
	.string	"ZFS plain file"
.LC23:
	.string	"ZFS directory"
.LC24:
	.string	"ZFS master node"
.LC25:
	.string	"ZFS delete queue"
.LC26:
	.string	"zvol object"
.LC27:
	.string	"zvol prop"
.LC28:
	.string	"other uint8[]"
.LC29:
	.string	"other uint64[]"
.LC30:
	.string	"other ZAP"
.LC31:
	.string	"persistent error log"
.LC32:
	.string	"SPA history"
.LC33:
	.string	"SPA history offsets"
.LC34:
	.string	"Pool properties"
.LC35:
	.string	"DSL permissions"
.LC36:
	.string	"ZFS ACL"
.LC37:
	.string	"ZFS SYSACL"
.LC38:
	.string	"FUID table"
.LC39:
	.string	"FUID table size"
.LC40:
	.string	"DSL dataset next clones"
.LC41:
	.string	"scrub work queue"
	.align 32
	.type	dmu_ot, @object
	.size	dmu_ot, 468
dmu_ot:
	.long	byteswap_uint8_array
	.long	1
	.long	.LC3
	.long	zap_byteswap
	.long	1
	.long	.LC4
	.long	byteswap_uint64_array
	.long	1
	.long	.LC5
	.long	byteswap_uint8_array
	.long	1
	.long	.LC6
	.long	byteswap_uint64_array
	.long	1
	.long	.LC7
	.long	byteswap_uint64_array
	.long	1
	.long	.LC8
	.long	byteswap_uint64_array
	.long	1
	.long	.LC9
	.long	byteswap_uint64_array
	.long	1
	.long	.LC10
	.long	byteswap_uint64_array
	.long	1
	.long	.LC11
	.long	byteswap_uint64_array
	.long	1
	.long	.LC12
	.long	dnode_buf_byteswap
	.long	1
	.long	.LC13
	.long	dmu_objset_byteswap
	.long	1
	.long	.LC14
	.long	byteswap_uint64_array
	.long	1
	.long	.LC15
	.long	zap_byteswap
	.long	1
	.long	.LC16
	.long	zap_byteswap
	.long	1
	.long	.LC17
	.long	zap_byteswap
	.long	1
	.long	.LC18
	.long	byteswap_uint64_array
	.long	1
	.long	.LC19
	.long	zfs_znode_byteswap
	.long	1
	.long	.LC20
	.long	zfs_oldacl_byteswap
	.long	1
	.long	.LC21
	.long	byteswap_uint8_array
	.long	0
	.long	.LC22
	.long	zap_byteswap
	.long	1
	.long	.LC23
	.long	zap_byteswap
	.long	1
	.long	.LC24
	.long	zap_byteswap
	.long	1
	.long	.LC25
	.long	byteswap_uint8_array
	.long	0
	.long	.LC26
	.long	zap_byteswap
	.long	1
	.long	.LC27
	.long	byteswap_uint8_array
	.long	0
	.long	.LC28
	.long	byteswap_uint64_array
	.long	0
	.long	.LC29
	.long	zap_byteswap
	.long	1
	.long	.LC30
	.long	zap_byteswap
	.long	1
	.long	.LC31
	.long	byteswap_uint8_array
	.long	1
	.long	.LC32
	.long	byteswap_uint64_array
	.long	1
	.long	.LC33
	.long	zap_byteswap
	.long	1
	.long	.LC34
	.long	zap_byteswap
	.long	1
	.long	.LC35
	.long	zfs_acl_byteswap
	.long	1
	.long	.LC36
	.long	byteswap_uint8_array
	.long	1
	.long	.LC37
	.long	byteswap_uint8_array
	.long	1
	.long	.LC38
	.long	byteswap_uint64_array
	.long	1
	.long	.LC39
	.long	zap_byteswap
	.long	1
	.long	.LC40
	.long	zap_byteswap
	.long	1
	.long	.LC41
	.text
	.align 32
.globl dmu_buf_hold
	.type	dmu_buf_hold, @function
dmu_buf_hold:
.LFB4:
	.file 2 "/home/yarik/git/zfs-fuse-0.5.0/src/lib/libzpool/dmu.c"
	.loc 2 93 0
	.cfi_startproc
	pushq	%rbp
.LCFI2:
	.cfi_def_cfa_offset 16
	movq	%rsp, %rbp
	.cfi_offset 6, -16
.LCFI3:
	.cfi_def_cfa_register 6
	pushq	%rbx
	naclsspq	$72, %r15
	movl	%edi, -52(%rbp)
	movq	%rsi, -64(%rbp)
	movq	%rdx, -72(%rbp)
	movl	%ecx, -76(%rbp)
	movl	%r8d, -80(%rbp)
	.loc 2 93 0
	movq	8(%rbp), %rsi
	movl	$dmu_buf_hold, %edi
	.cfi_offset 3, -24
	call	__cyg_profile_func_enter
	.loc 2 99 0
	mov	-52(%rbp), %eax
	mov	%nacl:(%r15,%rax), %ebx
	leal	-36(%rbp), %edx
	movq	-64(%rbp), %rax
	movl	%edx, %ecx
	movl	$__func__.11493, %edx
	movq	%rax, %rsi
	movl	%ebx, %edi
	call	dnode_hold
	movl	%eax, -20(%rbp)
	.loc 2 100 0
	cmpl	$0, -20(%rbp)
	je	.L5
	.loc 2 101 0
	movl	-20(%rbp), %ebx
	jmp	.L6
	.align 32
.L5:
	.loc 2 102 0
	mov	-36(%rbp), %edx
	movq	-72(%rbp), %rax
	movq	%rax, %rsi
	movl	%edx, %edi
	call	dbuf_whichblock
	movq	%rax, -32(%rbp)
	.loc 2 103 0
	mov	-36(%rbp), %eax
	movl	$0, %esi
	movl	%eax, %edi
	call	rw_enter
	.loc 2 104 0
	mov	-36(%rbp), %ecx
	movl	-76(%rbp), %edx
	movq	-32(%rbp), %rax
	movq	%rax, %rsi
	movl	%ecx, %edi
	call	dbuf_hold
	mov	%eax, %eax
	movl	%eax, -24(%rbp)
	.loc 2 105 0
	mov	-36(%rbp), %eax
	movl	%eax, %edi
	call	rw_exit
	.loc 2 106 0
	cmpl	$0, -24(%rbp)
	jne	.L7
	.loc 2 107 0
	movl	$5, -20(%rbp)
	jmp	.L8
	.align 32
.L7:
	.loc 2 109 0
	movl	-24(%rbp), %eax
	movl	$2, %edx
	movl	$0, %esi
	movl	%eax, %edi
	call	dbuf_read
	movl	%eax, -20(%rbp)
	.loc 2 110 0
	cmpl	$0, -20(%rbp)
	je	.L8
	.loc 2 111 0
	movl	-76(%rbp), %edx
	movl	-24(%rbp), %eax
	movl	%edx, %esi
	movl	%eax, %edi
	call	dbuf_rele
	.loc 2 112 0
	movl	$0, -24(%rbp)
	.align 32
.L8:
	.loc 2 116 0
	mov	-36(%rbp), %eax
	movl	$__func__.11493, %esi
	movl	%eax, %edi
	call	dnode_rele
	.loc 2 117 0
	mov	-24(%rbp), %edx
	mov	-80(%rbp), %eax
	movl	%edx, %nacl:(%r15,%rax)
	.loc 2 118 0
	movl	-20(%rbp), %ebx
	.align 32
.L6:
	movq	8(%rbp), %rsi
	movl	$dmu_buf_hold, %edi
	call	__cyg_profile_func_exit
	movl	%ebx, %eax
	.loc 2 119 0
	naclaspq	$72, %r15
	popq	%rbx
	popq	%r11
	naclrestbp	%r11d, %r15
	popq	%r11
	nacljmp	%r11d,%r15
	.cfi_endproc
.LFE4:
	.size	dmu_buf_hold, .-dmu_buf_hold
	.align 32
.globl dmu_bonus_max
	.type	dmu_bonus_max, @function
dmu_bonus_max:
.LFB5:
	.loc 2 123 0
	.cfi_startproc
	pushq	%rbp
.LCFI4:
	.cfi_def_cfa_offset 16
	movq	%rsp, %rbp
	.cfi_offset 6, -16
.LCFI5:
	.cfi_def_cfa_register 6
	pushq	%rbx
	naclsspq	$8, %r15
	.loc 2 123 0
	movq	8(%rbp), %rsi
	movl	$dmu_bonus_max, %edi
	.cfi_offset 3, -24
	call	__cyg_profile_func_enter
	.loc 2 124 0
	movl	$320, %ebx
	movq	8(%rbp), %rsi
	movl	$dmu_bonus_max, %edi
	call	__cyg_profile_func_exit
	movl	%ebx, %eax
	.loc 2 125 0
	naclaspq	$8, %r15
	popq	%rbx
	popq	%r11
	naclrestbp	%r11d, %r15
	popq	%r11
	nacljmp	%r11d,%r15
	.cfi_endproc
.LFE5:
	.size	dmu_bonus_max, .-dmu_bonus_max
	.align 32
.globl dmu_set_bonus
	.type	dmu_set_bonus, @function
dmu_set_bonus:
.LFB6:
	.loc 2 129 0
	.cfi_startproc
	pushq	%rbp
.LCFI6:
	.cfi_def_cfa_offset 16
	movq	%rsp, %rbp
	.cfi_offset 6, -16
.LCFI7:
	.cfi_def_cfa_register 6
	pushq	%rbx
	naclsspq	$40, %r15
	movl	%edi, -36(%rbp)
	movl	%esi, -40(%rbp)
	movl	%edx, -44(%rbp)
	.loc 2 129 0
	movq	8(%rbp), %rsi
	movl	$dmu_set_bonus, %edi
	.cfi_offset 3, -24
	call	__cyg_profile_func_enter
	.loc 2 130 0
	mov	-36(%rbp), %eax
	movl	%nacl:36(%r15,%rax), %eax
	movl	%eax, -20(%rbp)
	.loc 2 132 0
	mov	-20(%rbp), %eax
	mov	%nacl:756(%r15,%rax), %edx
	mov	-36(%rbp), %eax
	cmpl	%eax, %edx
	je	.L13
	.loc 2 133 0
	movl	$22, %ebx
	jmp	.L14
	.align 32
.L13:
	.loc 2 134 0
	cmpl	$0, -40(%rbp)
	js	.L15
	movl	-40(%rbp), %eax
	movslq	%eax,%rdx
	mov	-36(%rbp), %eax
	movq	%nacl:16(%r15,%rax), %rax
	cmpq	%rax, %rdx
	jbe	.L16
	.align 32
.L15:
	.loc 2 135 0
	movl	$22, %ebx
	jmp	.L14
	.align 32
.L16:
	.loc 2 136 0
	movl	-44(%rbp), %edx
	movl	-40(%rbp), %ecx
	movl	-20(%rbp), %eax
	movl	%ecx, %esi
	movl	%eax, %edi
	call	dnode_setbonuslen
	.loc 2 137 0
	movl	$0, %ebx
	.align 32
.L14:
	movq	8(%rbp), %rsi
	movl	$dmu_set_bonus, %edi
	call	__cyg_profile_func_exit
	movl	%ebx, %eax
	.loc 2 138 0
	naclaspq	$40, %r15
	popq	%rbx
	popq	%r11
	naclrestbp	%r11d, %r15
	popq	%r11
	nacljmp	%r11d,%r15
	.cfi_endproc
.LFE6:
	.size	dmu_set_bonus, .-dmu_set_bonus
	.section	.rodata
	.align 8
.LC42:
	.string	"%s:%i: %s: Assertion `%s` failed.\n"
.LC43:
	.string	"dnode_add_ref(dn, db)"
	.align 8
.LC44:
	.string	"/home/yarik/git/zfs-fuse-0.5.0/src/lib/libzpool/dmu.c"
	.align 8
.LC45:
	.string	"0 == dbuf_read(db, NULL, DB_RF_MUST_SUCCEED)"
	.text
	.align 32
.globl dmu_bonus_hold
	.type	dmu_bonus_hold, @function
dmu_bonus_hold:
.LFB7:
	.loc 2 145 0
	.cfi_startproc
	pushq	%rbp
.LCFI8:
	.cfi_def_cfa_offset 16
	movq	%rsp, %rbp
	.cfi_offset 6, -16
.LCFI9:
	.cfi_def_cfa_register 6
	pushq	%rbx
	naclsspq	$56, %r15
	movl	%edi, -36(%rbp)
	movq	%rsi, -48(%rbp)
	movl	%edx, -52(%rbp)
	movl	%ecx, -56(%rbp)
	.loc 2 145 0
	movq	8(%rbp), %rsi
	movl	$dmu_bonus_hold, %edi
	.cfi_offset 3, -24
	call	__cyg_profile_func_enter
	.loc 2 150 0
	mov	-36(%rbp), %eax
	mov	%nacl:(%r15,%rax), %ebx
	leal	-28(%rbp), %edx
	movq	-48(%rbp), %rax
	movl	%edx, %ecx
	movl	$__func__.11545, %edx
	movq	%rax, %rsi
	movl	%ebx, %edi
	call	dnode_hold
	movl	%eax, -20(%rbp)
	.loc 2 151 0
	cmpl	$0, -20(%rbp)
	je	.L19
	.loc 2 152 0
	movl	-20(%rbp), %ebx
	jmp	.L20
	.align 32
.L19:
	.loc 2 154 0
	mov	-28(%rbp), %eax
	movl	$0, %esi
	movl	%eax, %edi
	call	rw_enter
	.loc 2 155 0
	mov	-28(%rbp), %eax
	mov	%nacl:756(%r15,%rax), %eax
	testq	%rax, %rax
	jne	.L21
	.loc 2 156 0
	mov	-28(%rbp), %eax
	movl	%eax, %edi
	call	rw_exit
	.loc 2 157 0
	mov	-28(%rbp), %eax
	movl	$1, %esi
	movl	%eax, %edi
	call	rw_enter
	.loc 2 158 0
	mov	-28(%rbp), %eax
	mov	%nacl:756(%r15,%rax), %eax
	testq	%rax, %rax
	jne	.L21
	.loc 2 159 0
	mov	-28(%rbp), %eax
	movl	%eax, %edi
	call	dbuf_create_bonus
	.align 32
.L21:
	.loc 2 161 0
	mov	-28(%rbp), %eax
	movl	%nacl:756(%r15,%rax), %eax
	movl	%eax, -24(%rbp)
	.loc 2 162 0
	mov	-28(%rbp), %eax
	movl	%eax, %edi
	call	rw_exit
	.loc 2 165 0
	movl	-24(%rbp), %eax
	addl	$112, %eax
	mov	%eax, %edx
	movl	-52(%rbp), %eax
	movl	%eax, %esi
	movl	%edx, %edi
	call	refcount_add
	cmpq	$1, %rax
	jne	.L22
	.loc 2 166 0
	mov	-28(%rbp), %edx
	movl	-24(%rbp), %eax
	movl	%eax, %esi
	movl	%edx, %edi
	call	dnode_add_ref
	testl	%eax, %eax
	jne	.L22
	movl	$.LC42, %eax
	mov	%eax, %ebx
	mov	stderr(%rip), %eax
	movl	$.LC43, %r9d
	movl	$__PRETTY_FUNCTION__.11546, %r8d
	movl	$166, %ecx
	movl	$.LC44, %edx
	movl	%ebx, %esi
	movl	%eax, %edi
	movl	$0, %eax
	call	fprintf
	call	abort
	.align 32
.L22:
	.loc 2 168 0
	mov	-28(%rbp), %eax
	movl	$__func__.11545, %esi
	movl	%eax, %edi
	call	dnode_rele
	.loc 2 170 0
	movl	-24(%rbp), %eax
	movl	$1, %edx
	movl	$0, %esi
	movl	%eax, %edi
	call	dbuf_read
	testl	%eax, %eax
	je	.L23
	movl	$.LC42, %eax
	mov	%eax, %ebx
	mov	stderr(%rip), %eax
	movl	$.LC45, %r9d
	movl	$__PRETTY_FUNCTION__.11546, %r8d
	movl	$170, %ecx
	movl	$.LC44, %edx
	movl	%ebx, %esi
	movl	%eax, %edi
	movl	$0, %eax
	call	fprintf
	call	abort
	.align 32
.L23:
	.loc 2 172 0
	mov	-24(%rbp), %edx
	mov	-56(%rbp), %eax
	movl	%edx, %nacl:(%r15,%rax)
	.loc 2 173 0
	movl	$0, %ebx
	.align 32
.L20:
	movq	8(%rbp), %rsi
	movl	$dmu_bonus_hold, %edi
	call	__cyg_profile_func_exit
	movl	%ebx, %eax
	.loc 2 174 0
	naclaspq	$56, %r15
	popq	%rbx
	popq	%r11
	naclrestbp	%r11d, %r15
	popq	%r11
	nacljmp	%r11d,%r15
	.cfi_endproc
.LFE7:
	.size	dmu_bonus_hold, .-dmu_bonus_hold
	.section	.rodata
.LC46:
	.string	"length <= (10<<20)"
	.align 8
.LC47:
	.string	"zfs: accessing past end of object %llx/%llx (size=%u access=%llu+%llu)"
	.text
	.align 32
	.type	dmu_buf_hold_array_by_dnode, @function
dmu_buf_hold_array_by_dnode:
.LFB8:
	.loc 2 185 0
	.cfi_startproc
	pushq	%rbp
.LCFI10:
	.cfi_def_cfa_offset 16
	movq	%rsp, %rbp
	.cfi_offset 6, -16
.LCFI11:
	.cfi_def_cfa_register 6
	pushq	%rbx
	naclsspq	$136, %r15
	movl	%edi, -100(%rbp)
	movq	%rsi, -112(%rbp)
	movq	%rdx, -120(%rbp)
	movl	%ecx, -124(%rbp)
	movl	%r8d, -128(%rbp)
	movl	%r9d, -132(%rbp)
	.loc 2 185 0
	movq	8(%rbp), %rsi
	movl	$dmu_buf_hold_array_by_dnode, %edi
	.cfi_offset 3, -24
	call	__cyg_profile_func_enter
	.loc 2 186 0
	movl	$0, -88(%rbp)
	.loc 2 194 0
	cmpq	$10485760, -120(%rbp)
	jbe	.L26
	movl	$__PRETTY_FUNCTION__.11607, %ecx
	movl	$194, %edx
	movl	$.LC44, %esi
	movl	$.LC46, %edi
	call	__assert_fail
	.align 32
.L26:
	.loc 2 196 0
	movl	$18, -52(%rbp)
	.loc 2 197 0
	movq	zfetch_array_rd_sz(%rip), %rax
	cmpq	%rax, -120(%rbp)
	jbe	.L27
	.loc 2 198 0
	orl	$8, -52(%rbp)
	.align 32
.L27:
	.loc 2 200 0
	mov	-100(%rbp), %eax
	movl	$0, %esi
	movl	%eax, %edi
	call	rw_enter
	.loc 2 201 0
	mov	-100(%rbp), %eax
	movzbl	%nacl:148(%r15,%rax), %eax
	testb	%al, %al
	je	.L28
.LBB2:
	.loc 2 202 0
	mov	-100(%rbp), %eax
	movzbl	%nacl:148(%r15,%rax), %eax
	movzbl	%al, %eax
	movl	%eax, -28(%rbp)
	.loc 2 203 0
	movq	-120(%rbp), %rax
	movq	-112(%rbp), %rdx
	leaq	(%rdx,%rax), %rax
	movq	%rax, %rbx
	negq	%rbx
	movl	-28(%rbp), %eax
	movl	$1, %edx
	movq	%rdx, %rsi
	movl	%eax, %ecx
	salq	%cl, %rsi
	movq	%rsi, %rax
	negq	%rax
	andq	%rbx, %rax
	movq	%rax, %rbx
	negq	%rbx
	.loc 2 204 0
	movl	-28(%rbp), %eax
	movl	$1, %edx
	movq	%rdx, %rsi
	movl	%eax, %ecx
	salq	%cl, %rsi
	movq	%rsi, %rax
	negq	%rax
	andq	-112(%rbp), %rax
	.loc 2 203 0
	movq	%rbx, %rdx
	subq	%rax, %rdx
	movl	-28(%rbp), %eax
	movq	%rdx, %rbx
	movl	%eax, %ecx
	shrq	%cl, %rbx
	movq	%rbx, %rax
	movq	%rax, -72(%rbp)
	jmp	.L29
	.align 32
.L28:
.LBE2:
	.loc 2 206 0
	movq	-120(%rbp), %rax
	movq	-112(%rbp), %rdx
	addq	%rax, %rdx
	mov	-100(%rbp), %eax
	movl	%nacl:152(%r15,%rax), %eax
	mov	%eax, %eax
	cmpq	%rax, %rdx
	jbe	.L30
	.loc 2 207 0
	movq	-120(%rbp), %rsi
	movq	-112(%rbp), %rbx
	mov	-100(%rbp), %eax
	movl	%nacl:152(%r15,%rax), %ecx
	mov	-100(%rbp), %eax
	movq	%nacl:120(%r15,%rax), %rax
	movq	%rax, %rdx
	.loc 2 209 0
	mov	-100(%rbp), %eax
	mov	%nacl:116(%r15,%rax), %eax
	mov	%nacl:(%r15,%rax), %eax
	.loc 2 207 0
	movq	%nacl:16(%r15,%rax), %rax
	movq	%rsi, %r9
	movq	%rbx, %r8
	movq	%rax, %rsi
	movl	$.LC47, %edi
	movl	$0, %eax
	call	zfs_panic_recover
	.loc 2 213 0
	movl	$5, %ebx
	jmp	.L31
	.align 32
.L30:
	.loc 2 215 0
	movq	$1, -72(%rbp)
	.align 32
.L29:
	.loc 2 217 0
	movq	-72(%rbp), %rax
	sall	$2, %eax
	movl	$256, %esi
	movl	%eax, %edi
	call	umem_zalloc
	mov	%eax, %eax
	movl	%eax, -84(%rbp)
	.loc 2 219 0
	mov	-100(%rbp), %eax
	mov	%nacl:116(%r15,%rax), %eax
	mov	%nacl:(%r15,%rax), %eax
	testq	%rax, %rax
	je	.L32
	.loc 2 220 0
	mov	-100(%rbp), %eax
	mov	%nacl:116(%r15,%rax), %eax
	mov	%nacl:(%r15,%rax), %eax
	mov	%nacl:(%r15,%rax), %eax
	movl	%nacl:16(%r15,%rax), %eax
	movl	%eax, -88(%rbp)
	.align 32
.L32:
	.loc 2 221 0
	cmpl	$0, -88(%rbp)
	je	.L33
	movl	-88(%rbp), %eax
	movl	%eax, %edi
	call	dsl_pool_sync_context
	testl	%eax, %eax
	je	.L33
	.loc 2 222 0
	call	gethrtime
	movq	%rax, -40(%rbp)
	.align 32
.L33:
	.loc 2 223 0
	mov	-100(%rbp), %eax
	mov	%nacl:116(%r15,%rax), %eax
	mov	%nacl:4(%r15,%rax), %eax
	movl	$1, %ecx
	movl	$0, %edx
	movl	$0, %esi
	movl	%eax, %edi
	call	zio_root
	mov	%eax, %eax
	movl	%eax, -44(%rbp)
	.loc 2 224 0
	movq	-112(%rbp), %rdx
	movl	-100(%rbp), %eax
	movq	%rdx, %rsi
	movl	%eax, %edi
	call	dbuf_whichblock
	movq	%rax, -80(%rbp)
	.loc 2 225 0
	movq	$0, -64(%rbp)
	jmp	.L34
	.align 32
.L37:
.LBB3:
	.loc 2 226 0
	movq	-64(%rbp), %rax
	movq	-80(%rbp), %rdx
	leaq	(%rdx,%rax), %rcx
	movl	-128(%rbp), %edx
	movl	-100(%rbp), %eax
	movq	%rcx, %rsi
	movl	%eax, %edi
	call	dbuf_hold
	mov	%eax, %eax
	movl	%eax, -24(%rbp)
	.loc 2 227 0
	cmpl	$0, -24(%rbp)
	jne	.L35
	.loc 2 228 0
	mov	-100(%rbp), %eax
	movl	%eax, %edi
	call	rw_exit
	.loc 2 229 0
	movq	-72(%rbp), %rax
	movl	%eax, %ecx
	movl	-128(%rbp), %edx
	movl	-84(%rbp), %eax
	movl	%ecx, %esi
	movl	%eax, %edi
	call	dmu_buf_rele_array
	.loc 2 230 0
	movl	-44(%rbp), %eax
	movl	%eax, %edi
	call	zio_nowait
	.loc 2 231 0
	movl	$5, %ebx
	jmp	.L31
	.align 32
.L35:
	.loc 2 234 0
	cmpl	$0, -124(%rbp)
	je	.L36
	.loc 2 235 0
	mov	-100(%rbp), %eax
	movl	%eax, %edi
	call	rw_exit
	.loc 2 236 0
	movl	-52(%rbp), %edx
	movl	-44(%rbp), %ecx
	movl	-24(%rbp), %eax
	movl	%ecx, %esi
	movl	%eax, %edi
	call	dbuf_read
	.loc 2 237 0
	mov	-100(%rbp), %eax
	movl	$0, %esi
	movl	%eax, %edi
	call	rw_enter
	.align 32
.L36:
	.loc 2 239 0
	movq	-64(%rbp), %rax
	sall	$2, %eax
	addl	-84(%rbp), %eax
	mov	%eax, %eax
	mov	-24(%rbp), %edx
	movl	%edx, %nacl:(%r15,%rax)
.LBE3:
	.loc 2 225 0
	addq	$1, -64(%rbp)
	.align 32
.L34:
	movq	-64(%rbp), %rax
	cmpq	-72(%rbp), %rax
	jb	.L37
	.loc 2 241 0
	mov	-100(%rbp), %eax
	movl	%eax, %edi
	call	rw_exit
	.loc 2 244 0
	movl	-44(%rbp), %eax
	movl	%eax, %edi
	call	zio_wait
	movl	%eax, -48(%rbp)
	.loc 2 246 0
	cmpl	$0, -88(%rbp)
	je	.L38
	movl	-88(%rbp), %eax
	movl	%eax, %edi
	call	dsl_pool_sync_context
	testl	%eax, %eax
	je	.L38
	.loc 2 247 0
	mov	-88(%rbp), %eax
	movq	%nacl:176(%r15,%rax), %rbx
	call	gethrtime
	subq	-40(%rbp), %rax
	leaq	(%rbx,%rax), %rdx
	mov	-88(%rbp), %eax
	movq	%rdx, %nacl:176(%r15,%rax)
	.align 32
.L38:
	.loc 2 248 0
	cmpl	$0, -48(%rbp)
	je	.L39
	.loc 2 249 0
	movq	-72(%rbp), %rax
	movl	%eax, %ecx
	movl	-128(%rbp), %edx
	movl	-84(%rbp), %eax
	movl	%ecx, %esi
	movl	%eax, %edi
	call	dmu_buf_rele_array
	.loc 2 250 0
	movl	-48(%rbp), %ebx
	jmp	.L31
	.align 32
.L39:
	.loc 2 254 0
	cmpl	$0, -124(%rbp)
	je	.L40
	.loc 2 255 0
	movq	$0, -64(%rbp)
	jmp	.L41
	.align 32
.L46:
.LBB4:
	.loc 2 256 0
	movq	-64(%rbp), %rax
	sall	$2, %eax
	addl	-84(%rbp), %eax
	mov	%eax, %eax
	mov	%nacl:(%r15,%rax), %eax
	movl	%eax, -20(%rbp)
	.loc 2 257 0
	movl	-20(%rbp), %eax
	addl	$64, %eax
	mov	%eax, %eax
	movl	%eax, %edi
	call	mutex_enter
	.loc 2 258 0
	jmp	.L42
	.align 32
.L43:
	.loc 2 260 0
	movl	-20(%rbp), %eax
	addl	$64, %eax
	mov	%eax, %edx
	movl	-20(%rbp), %eax
	addl	$216, %eax
	mov	%eax, %eax
	movl	%edx, %esi
	movl	%eax, %edi
	call	cv_wait
	.align 32
.L42:
	.loc 2 258 0
	mov	-20(%rbp), %eax
	movl	%nacl:108(%r15,%rax), %eax
	cmpl	$2, %eax
	je	.L43
	.loc 2 259 0
	mov	-20(%rbp), %eax
	movl	%nacl:108(%r15,%rax), %eax
	.loc 2 258 0
	cmpl	$1, %eax
	je	.L43
	.loc 2 261 0
	mov	-20(%rbp), %eax
	movl	%nacl:108(%r15,%rax), %eax
	testl	%eax, %eax
	jne	.L44
	.loc 2 262 0
	movl	$5, -48(%rbp)
	.align 32
.L44:
	.loc 2 263 0
	movl	-20(%rbp), %eax
	addl	$64, %eax
	mov	%eax, %eax
	movl	%eax, %edi
	call	mutex_exit
	.loc 2 264 0
	cmpl	$0, -48(%rbp)
	je	.L45
	.loc 2 265 0
	movq	-72(%rbp), %rax
	movl	%eax, %ecx
	movl	-128(%rbp), %edx
	movl	-84(%rbp), %eax
	movl	%ecx, %esi
	movl	%eax, %edi
	call	dmu_buf_rele_array
	.loc 2 266 0
	movl	-48(%rbp), %ebx
	jmp	.L31
	.align 32
.L45:
.LBE4:
	.loc 2 255 0
	addq	$1, -64(%rbp)
	.align 32
.L41:
	movq	-64(%rbp), %rax
	cmpq	-72(%rbp), %rax
	jb	.L46
	.align 32
.L40:
	.loc 2 271 0
	movq	-72(%rbp), %rax
	movl	%eax, %edx
	mov	-132(%rbp), %eax
	movl	%edx, %nacl:(%r15,%rax)
	.loc 2 272 0
	mov	16(%rbp), %eax
	movl	-84(%rbp), %edx
	movl	%edx, %nacl:(%r15,%rax)
	.loc 2 273 0
	movl	$0, %ebx
	.align 32
.L31:
	movq	8(%rbp), %rsi
	movl	$dmu_buf_hold_array_by_dnode, %edi
	call	__cyg_profile_func_exit
	movl	%ebx, %eax
	.loc 2 274 0
	naclaspq	$136, %r15
	popq	%rbx
	popq	%r11
	naclrestbp	%r11d, %r15
	popq	%r11
	nacljmp	%r11d,%r15
	.cfi_endproc
.LFE8:
	.size	dmu_buf_hold_array_by_dnode, .-dmu_buf_hold_array_by_dnode
	.align 32
	.type	dmu_buf_hold_array, @function
dmu_buf_hold_array:
.LFB9:
	.loc 2 279 0
	.cfi_startproc
	pushq	%rbp
.LCFI12:
	.cfi_def_cfa_offset 16
	movq	%rsp, %rbp
	.cfi_offset 6, -16
.LCFI13:
	.cfi_def_cfa_register 6
	pushq	%rbx
	naclsspq	$88, %r15
	movl	%edi, -36(%rbp)
	movq	%rsi, -48(%rbp)
	movq	%rdx, -56(%rbp)
	movq	%rcx, -64(%rbp)
	movl	%r8d, -68(%rbp)
	movl	%r9d, -72(%rbp)
	.loc 2 279 0
	movq	8(%rbp), %rsi
	movl	$dmu_buf_hold_array, %edi
	.cfi_offset 3, -24
	call	__cyg_profile_func_enter
	.loc 2 283 0
	mov	-36(%rbp), %eax
	mov	%nacl:(%r15,%rax), %ebx
	leal	-24(%rbp), %edx
	movq	-48(%rbp), %rax
	movl	%edx, %ecx
	movl	$__func__.11736, %edx
	movq	%rax, %rsi
	movl	%ebx, %edi
	call	dnode_hold
	movl	%eax, -20(%rbp)
	.loc 2 284 0
	cmpl	$0, -20(%rbp)
	je	.L49
	.loc 2 285 0
	movl	-20(%rbp), %ebx
	jmp	.L50
	.align 32
.L49:
	.loc 2 287 0
	mov	-24(%rbp), %edi
	movl	-72(%rbp), %esi
	movl	-68(%rbp), %ecx
	movq	-64(%rbp), %rdx
	movq	-56(%rbp), %rax
	movl	24(%rbp), %ebx
	movl	%ebx, (%rsp)
	movl	16(%rbp), %r9d
	movl	%esi, %r8d
	movq	%rax, %rsi
	call	dmu_buf_hold_array_by_dnode
	movl	%eax, -20(%rbp)
	.loc 2 290 0
	mov	-24(%rbp), %eax
	movl	$__func__.11736, %esi
	movl	%eax, %edi
	call	dnode_rele
	.loc 2 292 0
	movl	-20(%rbp), %ebx
	.align 32
.L50:
	movq	8(%rbp), %rsi
	movl	$dmu_buf_hold_array, %edi
	call	__cyg_profile_func_exit
	movl	%ebx, %eax
	.loc 2 293 0
	naclaspq	$88, %r15
	popq	%rbx
	popq	%r11
	naclrestbp	%r11d, %r15
	popq	%r11
	nacljmp	%r11d,%r15
	.cfi_endproc
.LFE9:
	.size	dmu_buf_hold_array, .-dmu_buf_hold_array
	.align 32
.globl dmu_buf_hold_array_by_bonus
	.type	dmu_buf_hold_array_by_bonus, @function
dmu_buf_hold_array_by_bonus:
.LFB10:
	.loc 2 298 0
	.cfi_startproc
	pushq	%rbp
.LCFI14:
	.cfi_def_cfa_offset 16
	movq	%rsp, %rbp
	.cfi_offset 6, -16
.LCFI15:
	.cfi_def_cfa_register 6
	pushq	%rbx
	naclsspq	$88, %r15
	movl	%edi, -36(%rbp)
	movq	%rsi, -48(%rbp)
	movq	%rdx, -56(%rbp)
	movl	%ecx, -60(%rbp)
	movl	%r8d, -64(%rbp)
	movl	%r9d, -68(%rbp)
	.loc 2 298 0
	movq	8(%rbp), %rsi
	movl	$dmu_buf_hold_array_by_bonus, %edi
	.cfi_offset 3, -24
	call	__cyg_profile_func_enter
	.loc 2 299 0
	mov	-36(%rbp), %eax
	movl	%nacl:36(%r15,%rax), %eax
	movl	%eax, -24(%rbp)
	.loc 2 302 0
	movl	-68(%rbp), %r8d
	movl	-64(%rbp), %edi
	movl	-60(%rbp), %ecx
	movq	-56(%rbp), %rdx
	movq	-48(%rbp), %rbx
	movl	-24(%rbp), %eax
	movl	16(%rbp), %esi
	movl	%esi, (%rsp)
	movl	%r8d, %r9d
	movl	%edi, %r8d
	movq	%rbx, %rsi
	movl	%eax, %edi
	call	dmu_buf_hold_array_by_dnode
	movl	%eax, -20(%rbp)
	.loc 2 305 0
	movl	-20(%rbp), %ebx
	movq	8(%rbp), %rsi
	movl	$dmu_buf_hold_array_by_bonus, %edi
	call	__cyg_profile_func_exit
	movl	%ebx, %eax
	.loc 2 306 0
	naclaspq	$88, %r15
	popq	%rbx
	popq	%r11
	naclrestbp	%r11d, %r15
	popq	%r11
	nacljmp	%r11d,%r15
	.cfi_endproc
.LFE10:
	.size	dmu_buf_hold_array_by_bonus, .-dmu_buf_hold_array_by_bonus
	.align 32
.globl dmu_buf_rele_array
	.type	dmu_buf_rele_array, @function
dmu_buf_rele_array:
.LFB11:
	.loc 2 310 0
	.cfi_startproc
	pushq	%rbp
.LCFI16:
	.cfi_def_cfa_offset 16
	movq	%rsp, %rbp
	.cfi_offset 6, -16
.LCFI17:
	.cfi_def_cfa_register 6
	pushq	%rbx
	naclsspq	$40, %r15
	movl	%edi, -36(%rbp)
	movl	%esi, -40(%rbp)
	movl	%edx, -44(%rbp)
	.loc 2 310 0
	movq	8(%rbp), %rsi
	movl	$dmu_buf_rele_array, %edi
	.cfi_offset 3, -24
	call	__cyg_profile_func_enter
	.loc 2 312 0
	movl	-36(%rbp), %eax
	movl	%eax, -20(%rbp)
	.loc 2 314 0
	cmpl	$0, -40(%rbp)
	jne	.L55
	movl	$0, %ebx
	jmp	.L56
	.align 32
.L55:
	.loc 2 317 0
	movl	$0, -24(%rbp)
	jmp	.L57
	.align 32
.L59:
	.loc 2 318 0
	movl	-24(%rbp), %eax
	sall	$2, %eax
	addl	-20(%rbp), %eax
	mov	%eax, %eax
	mov	%nacl:(%r15,%rax), %eax
	testq	%rax, %rax
	je	.L58
	.loc 2 319 0
	movl	-24(%rbp), %eax
	sall	$2, %eax
	addl	-20(%rbp), %eax
	mov	%eax, %eax
	mov	%nacl:(%r15,%rax), %edx
	movl	-44(%rbp), %eax
	movl	%eax, %esi
	movl	%edx, %edi
	call	dbuf_rele
	.align 32
.L58:
	.loc 2 317 0
	addl	$1, -24(%rbp)
	.align 32
.L57:
	movl	-24(%rbp), %eax
	cmpl	-40(%rbp), %eax
	jl	.L59
	.loc 2 322 0
	movl	-40(%rbp), %eax
	leal	0(,%rax,4), %edx
	movl	-20(%rbp), %eax
	movl	%edx, %esi
	movl	%eax, %edi
	call	umem_free
	movl	$1, %ebx
	.align 32
.L56:
	movq	8(%rbp), %rsi
	movl	$dmu_buf_rele_array, %edi
	call	__cyg_profile_func_exit
	cmpl	$1, %ebx
	.loc 2 323 0
	naclaspq	$40, %r15
	popq	%rbx
	popq	%r11
	naclrestbp	%r11d, %r15
	popq	%r11
	nacljmp	%r11d,%r15
	.cfi_endproc
.LFE11:
	.size	dmu_buf_rele_array, .-dmu_buf_rele_array
	.align 32
.globl dmu_prefetch
	.type	dmu_prefetch, @function
dmu_prefetch:
.LFB12:
	.loc 2 327 0
	.cfi_startproc
	pushq	%rbp
.LCFI18:
	.cfi_def_cfa_offset 16
	movq	%rsp, %rbp
	.cfi_offset 6, -16
.LCFI19:
	.cfi_def_cfa_register 6
	pushq	%rbx
	naclsspq	$72, %r15
	movl	%edi, -52(%rbp)
	movq	%rsi, -64(%rbp)
	movq	%rdx, -72(%rbp)
	movq	%rcx, -80(%rbp)
	.loc 2 327 0
	movq	8(%rbp), %rsi
	movl	$dmu_prefetch, %edi
	.cfi_offset 3, -24
	call	__cyg_profile_func_enter
	.loc 2 332 0
	movl	zfs_prefetch_disable(%rip), %eax
	testl	%eax, %eax
	je	.L65
	movl	$0, %ebx
	jmp	.L66
	.align 32
.L65:
	.loc 2 335 0
	cmpq	$0, -80(%rbp)
	jne	.L67
	.loc 2 336 0
	mov	-52(%rbp), %eax
	mov	%nacl:(%r15,%rax), %eax
	mov	%nacl:16(%r15,%rax), %eax
	movl	%eax, -44(%rbp)
	.loc 2 338 0
	cmpq	$0, -64(%rbp)
	je	.L68
	movabsq	$281474976710655, %rax
	cmpq	%rax, -64(%rbp)
	jbe	.L69
	.align 32
.L68:
	movl	$0, %ebx
	jmp	.L66
	.align 32
.L69:
	.loc 2 341 0
	mov	-44(%rbp), %eax
	movl	$0, %esi
	movl	%eax, %edi
	call	rw_enter
	.loc 2 342 0
	movq	-64(%rbp), %rax
	movq	%rax, %rdx
	salq	$9, %rdx
	mov	-44(%rbp), %eax
	movq	%rdx, %rsi
	movl	%eax, %edi
	call	dbuf_whichblock
	movq	%rax, -40(%rbp)
	.loc 2 343 0
	mov	-44(%rbp), %edx
	movq	-40(%rbp), %rax
	movq	%rax, %rsi
	movl	%edx, %edi
	call	dbuf_prefetch
	.loc 2 344 0
	mov	-44(%rbp), %eax
	movl	%eax, %edi
	call	rw_exit
	movl	$0, %ebx
	jmp	.L66
	.align 32
.L67:
	.loc 2 353 0
	mov	-52(%rbp), %eax
	mov	%nacl:(%r15,%rax), %ebx
	leal	-44(%rbp), %edx
	movq	-64(%rbp), %rax
	movl	%edx, %ecx
	movl	$__func__.11794, %edx
	movq	%rax, %rsi
	movl	%ebx, %edi
	call	dnode_hold
	movl	%eax, -24(%rbp)
	.loc 2 354 0
	cmpl	$0, -24(%rbp)
	je	.L70
	movl	$0, %ebx
	jmp	.L66
	.align 32
.L70:
	.loc 2 357 0
	mov	-44(%rbp), %eax
	movl	$0, %esi
	movl	%eax, %edi
	call	rw_enter
	.loc 2 358 0
	mov	-44(%rbp), %eax
	movzbl	%nacl:148(%r15,%rax), %eax
	testb	%al, %al
	je	.L71
.LBB5:
	.loc 2 359 0
	mov	-44(%rbp), %eax
	movzbl	%nacl:148(%r15,%rax), %eax
	movzbl	%al, %eax
	movl	%eax, -20(%rbp)
	.loc 2 360 0
	movq	-80(%rbp), %rax
	movq	-72(%rbp), %rdx
	leaq	(%rdx,%rax), %rax
	movq	%rax, %rbx
	negq	%rbx
	movl	-20(%rbp), %eax
	movl	$1, %edx
	movl	%edx, %esi
	movl	%eax, %ecx
	sall	%cl, %esi
	movl	%esi, %eax
	negl	%eax
	cltq
	andq	%rbx, %rax
	movq	%rax, %rbx
	negq	%rbx
	.loc 2 361 0
	movl	-20(%rbp), %eax
	movl	$1, %edx
	movl	%edx, %esi
	movl	%eax, %ecx
	sall	%cl, %esi
	movl	%esi, %eax
	negl	%eax
	cltq
	andq	-72(%rbp), %rax
	.loc 2 360 0
	movq	%rbx, %rdx
	subq	%rax, %rdx
	movl	-20(%rbp), %eax
	movq	%rdx, %rbx
	movl	%eax, %ecx
	shrq	%cl, %rbx
	movq	%rbx, %rax
	movl	%eax, -32(%rbp)
	jmp	.L72
	.align 32
.L71:
.LBE5:
	.loc 2 363 0
	mov	-44(%rbp), %eax
	movl	%nacl:152(%r15,%rax), %eax
	mov	%eax, %eax
	cmpq	-72(%rbp), %rax
	seta	%al
	movzbl	%al, %eax
	movl	%eax, -32(%rbp)
	.align 32
.L72:
	.loc 2 366 0
	cmpl	$0, -32(%rbp)
	je	.L73
	.loc 2 367 0
	mov	-44(%rbp), %edx
	movq	-72(%rbp), %rax
	movq	%rax, %rsi
	movl	%edx, %edi
	call	dbuf_whichblock
	movq	%rax, -40(%rbp)
	.loc 2 368 0
	movl	$0, -28(%rbp)
	jmp	.L74
	.align 32
.L75:
	.loc 2 369 0
	movl	-28(%rbp), %eax
	cltq
	addq	-40(%rbp), %rax
	mov	-44(%rbp), %edx
	movq	%rax, %rsi
	movl	%edx, %edi
	call	dbuf_prefetch
	.loc 2 368 0
	addl	$1, -28(%rbp)
	.align 32
.L74:
	movl	-28(%rbp), %eax
	cmpl	-32(%rbp), %eax
	jl	.L75
	.align 32
.L73:
	.loc 2 372 0
	mov	-44(%rbp), %eax
	movl	%eax, %edi
	call	rw_exit
	.loc 2 374 0
	mov	-44(%rbp), %eax
	movl	$__func__.11794, %esi
	movl	%eax, %edi
	call	dnode_rele
	movl	$1, %ebx
	.align 32
.L66:
	movq	8(%rbp), %rsi
	movl	$dmu_prefetch, %edi
	call	__cyg_profile_func_exit
	cmpl	$1, %ebx
	.loc 2 375 0
	naclaspq	$72, %r15
	popq	%rbx
	popq	%r11
	naclrestbp	%r11d, %r15
	popq	%r11
	nacljmp	%r11d,%r15
	.cfi_endproc
.LFE12:
	.size	dmu_prefetch, .-dmu_prefetch
	.section	.rodata
.LC48:
	.string	"limit <= *offset"
	.align 8
.LC49:
	.string	"(((subchunk) & ((subchunk) - 1)) == 0)"
.LC50:
	.string	"%s %s %s (0x%llx %s 0x%llx)"
.LC51:
	.string	"initial_offset"
.LC52:
	.string	"<="
.LC53:
	.string	"*offset"
.LC54:
	.string	"<"
	.text
	.align 32
	.type	get_next_chunk, @function
get_next_chunk:
.LFB13:
	.loc 2 379 0
	.cfi_startproc
	pushq	%rbp
.LCFI20:
	.cfi_def_cfa_offset 16
	movq	%rsp, %rbp
	.cfi_offset 6, -16
.LCFI21:
	.cfi_def_cfa_register 6
	pushq	%rbx
	naclsspq	$152, %r15
	movl	%edi, -116(%rbp)
	movl	%esi, -120(%rbp)
	movq	%rdx, -128(%rbp)
	.loc 2 379 0
	movq	8(%rbp), %rsi
	movl	$get_next_chunk, %edi
	.cfi_offset 3, -24
	call	__cyg_profile_func_enter
	.loc 2 380 0
	mov	-120(%rbp), %eax
	movq	%nacl:(%r15,%rax), %rax
	subq	-128(%rbp), %rax
	movq	%rax, -112(%rbp)
	.loc 2 381 0
	mov	-116(%rbp), %eax
	movl	%nacl:152(%r15,%rax), %edx
	movl	%edx, %eax
	sall	$2, %eax
	addl	%edx, %eax
	sall	$12, %eax
	mov	%eax, %eax
	movq	%rax, -104(%rbp)
	.loc 2 383 0
	mov	-116(%rbp), %eax
	movl	%nacl:152(%r15,%rax), %edx
	mov	-116(%rbp), %eax
	movzbl	%nacl:147(%r15,%rax), %eax
	movzbl	%al, %eax
	subl	$7, %eax
	movl	%edx, %ebx
	movl	%eax, %ecx
	sall	%cl, %ebx
	movl	%ebx, %eax
	mov	%eax, %eax
	movq	%rax, -96(%rbp)
	.loc 2 385 0
	mov	-120(%rbp), %eax
	movq	%nacl:(%r15,%rax), %rax
	cmpq	-128(%rbp), %rax
	jae	.L81
	movl	$__PRETTY_FUNCTION__.11864, %ecx
	movl	$385, %edx
	movl	$.LC44, %esi
	movl	$.LC48, %edi
	call	__assert_fail
	.align 32
.L81:
	.loc 2 387 0
	movq	-112(%rbp), %rax
	cmpq	-104(%rbp), %rax
	ja	.L82
	.loc 2 388 0
	mov	-120(%rbp), %eax
	movq	-128(%rbp), %rdx
	movq	%rdx, %nacl:(%r15,%rax)
	.loc 2 389 0
	movl	$0, %ebx
	jmp	.L83
	.align 32
.L82:
	.loc 2 392 0
	movq	-96(%rbp), %rax
	subq	$1, %rax
	andq	-96(%rbp), %rax
	testq	%rax, %rax
	je	.L95
	movl	$__PRETTY_FUNCTION__.11864, %ecx
	movl	$392, %edx
	movl	$.LC44, %esi
	movl	$.LC49, %edi
	call	__assert_fail
	.align 32
.L93:
.LBB6:
	.loc 2 395 0
	mov	-120(%rbp), %eax
	movq	%nacl:(%r15,%rax), %rax
	movq	%rax, %rdx
	negq	%rdx
	movq	-96(%rbp), %rax
	negq	%rax
	andq	%rdx, %rax
	negq	%rax
	movq	%rax, -88(%rbp)
	.loc 2 400 0
	movl	-120(%rbp), %edx
	movl	-116(%rbp), %eax
	movl	$0, %r9d
	movl	$1, %r8d
	movl	$1, %ecx
	movl	$3, %esi
	movl	%eax, %edi
	call	dnode_next_offset
	movl	%eax, -68(%rbp)
	.loc 2 402 0
	cmpl	$3, -68(%rbp)
	jne	.L86
	.loc 2 403 0
	mov	-120(%rbp), %eax
	movq	-128(%rbp), %rdx
	movq	%rdx, %nacl:(%r15,%rax)
	jmp	.L87
	.align 32
.L86:
	.loc 2 404 0
	cmpl	$0, -68(%rbp)
	je	.L87
	.loc 2 405 0
	movl	-68(%rbp), %ebx
	jmp	.L83
	.align 32
.L87:
.LBB7:
	.loc 2 407 0
	mov	-120(%rbp), %eax
	movq	%nacl:(%r15,%rax), %rax
	movq	%rax, -64(%rbp)
	movq	-88(%rbp), %rax
	movq	%rax, -56(%rbp)
	movq	-64(%rbp), %rax
	cmpq	-56(%rbp), %rax
	jbe	.L88
.LBB8:
	naclsspq	$272, %r15
	leal	24(%rsp), %eax
	addq	$15, %rax
	shrq	$4, %rax
	salq	$4, %rax
	mov	%eax, %eax
	movl	%eax, -44(%rbp)
	movl	$.LC50, %eax
	mov	%eax, %ebx
	movl	-44(%rbp), %eax
	movq	-56(%rbp), %rdx
	movq	%rdx, 16(%rsp)
	movl	$.LC52, 8(%rsp)
	movq	-64(%rbp), %rdx
	movq	%rdx, (%rsp)
	movl	$.LC51, %r9d
	movl	$.LC52, %r8d
	movl	$.LC53, %ecx
	movl	%ebx, %edx
	movl	$256, %esi
	movl	%eax, %edi
	movl	$0, %eax
	call	snprintf
	movl	$.LC42, %eax
	mov	%eax, %ebx
	mov	stderr(%rip), %eax
	movl	-44(%rbp), %edx
	movl	%edx, %r9d
	movl	$__PRETTY_FUNCTION__.11864, %r8d
	movl	$407, %ecx
	movl	$.LC44, %edx
	movl	%ebx, %esi
	movl	%eax, %edi
	movl	$0, %eax
	call	fprintf
	call	abort
	.align 32
.L88:
.LBE8:
.LBE7:
	.loc 2 408 0
	mov	-120(%rbp), %eax
	movq	%nacl:(%r15,%rax), %rax
	movq	-96(%rbp), %rdx
	negq	%rdx
	andq	%rax, %rdx
	mov	-120(%rbp), %eax
	movq	%rdx, %nacl:(%r15,%rax)
	.loc 2 409 0
	mov	-120(%rbp), %eax
	movq	%nacl:(%r15,%rax), %rax
	movq	-88(%rbp), %rdx
	movq	%rdx, %rcx
	subq	%rax, %rcx
	movq	%rcx, %rax
	movq	%rax, -80(%rbp)
	.loc 2 410 0
	movq	-80(%rbp), %rax
	cmpq	-104(%rbp), %rax
	jb	.L89
	.loc 2 411 0
	mov	-120(%rbp), %eax
	movq	%nacl:(%r15,%rax), %rax
	movq	-104(%rbp), %rdx
	movq	-80(%rbp), %rcx
	movq	%rcx, %rbx
	subq	%rdx, %rbx
	movq	%rbx, %rdx
	leaq	(%rax,%rdx), %rdx
	mov	-120(%rbp), %eax
	movq	%rdx, %nacl:(%r15,%rax)
	.loc 2 412 0
	movl	$0, %ebx
	jmp	.L83
	.align 32
.L89:
	.loc 2 414 0
	movq	-80(%rbp), %rax
	subq	%rax, -104(%rbp)
	.loc 2 417 0
	movl	-120(%rbp), %edx
	movl	-116(%rbp), %eax
	movl	$0, %r9d
	movl	$1, %r8d
	movl	$1, %ecx
	movl	$2, %esi
	movl	%eax, %edi
	call	dnode_next_offset
	movl	%eax, -68(%rbp)
	.loc 2 419 0
	cmpl	$3, -68(%rbp)
	jne	.L90
	.loc 2 420 0
	mov	-120(%rbp), %eax
	movq	-128(%rbp), %rdx
	movq	%rdx, %nacl:(%r15,%rax)
	jmp	.L91
	.align 32
.L90:
	.loc 2 421 0
	cmpl	$0, -68(%rbp)
	je	.L91
	.loc 2 422 0
	movl	-68(%rbp), %ebx
	jmp	.L83
	.align 32
.L91:
	.loc 2 424 0
	mov	-120(%rbp), %eax
	movq	%nacl:(%r15,%rax), %rax
	cmpq	-128(%rbp), %rax
	jae	.L92
	.loc 2 425 0
	mov	-120(%rbp), %eax
	movq	-128(%rbp), %rdx
	movq	%rdx, %nacl:(%r15,%rax)
	.align 32
.L92:
.LBB9:
	.loc 2 426 0
	mov	-120(%rbp), %eax
	movq	%nacl:(%r15,%rax), %rax
	movq	%rax, -40(%rbp)
	movq	-88(%rbp), %rax
	movq	%rax, -32(%rbp)
	movq	-40(%rbp), %rax
	cmpq	-32(%rbp), %rax
	jb	.L85
.LBB10:
	naclsspq	$272, %r15
	leal	24(%rsp), %eax
	addq	$15, %rax
	shrq	$4, %rax
	salq	$4, %rax
	mov	%eax, %eax
	movl	%eax, -20(%rbp)
	movl	$.LC50, %eax
	mov	%eax, %ebx
	movl	-20(%rbp), %eax
	movq	-32(%rbp), %rdx
	movq	%rdx, 16(%rsp)
	movl	$.LC54, 8(%rsp)
	movq	-40(%rbp), %rdx
	movq	%rdx, (%rsp)
	movl	$.LC51, %r9d
	movl	$.LC54, %r8d
	movl	$.LC53, %ecx
	movl	%ebx, %edx
	movl	$256, %esi
	movl	%eax, %edi
	movl	$0, %eax
	call	snprintf
	movl	$.LC42, %eax
	mov	%eax, %ebx
	mov	stderr(%rip), %eax
	movl	-20(%rbp), %edx
	movl	%edx, %r9d
	movl	$__PRETTY_FUNCTION__.11864, %r8d
	movl	$426, %ecx
	movl	$.LC44, %edx
	movl	%ebx, %esi
	movl	%eax, %edi
	movl	$0, %eax
	call	fprintf
	call	abort
	.align 32
.L95:
.LBE10:
.LBE9:
.LBE6:
	.loc 2 394 0
	nop
	.align 32
.L85:
	mov	-120(%rbp), %eax
	movq	%nacl:(%r15,%rax), %rax
	cmpq	-128(%rbp), %rax
	ja	.L93
	.loc 2 428 0
	movl	$0, %ebx
	.align 32
.L83:
	movq	8(%rbp), %rsi
	movl	$get_next_chunk, %edi
	call	__cyg_profile_func_exit
	movl	%ebx, %eax
	.loc 2 429 0
	movq	-8(%rbp), %rbx
	movq	%rbp, %rsp
	popq	%r11
	naclrestbp	%r11d, %r15
	popq	%r11
	nacljmp	%r11d,%r15
	.cfi_endproc
.LFE13:
	.size	get_next_chunk, .-get_next_chunk
	.section	.rodata
.LC55:
	.string	"align > 0"
.LC56:
	.string	"trunc"
	.text
	.align 32
	.type	dmu_free_long_range_impl, @function
dmu_free_long_range_impl:
.LFB14:
	.loc 2 434 0
	.cfi_startproc
	pushq	%rbp
.LCFI22:
	.cfi_def_cfa_offset 16
	movq	%rsp, %rbp
	.cfi_offset 6, -16
.LCFI23:
	.cfi_def_cfa_register 6
	pushq	%rbx
	naclsspq	$104, %r15
	movl	%edi, -84(%rbp)
	movl	%esi, -88(%rbp)
	movq	%rdx, -96(%rbp)
	movq	%rcx, -104(%rbp)
	movl	%r8d, -108(%rbp)
	.loc 2 434 0
	movq	8(%rbp), %rsi
	movl	$dmu_free_long_range_impl, %edi
	.cfi_offset 3, -24
	call	__cyg_profile_func_enter
	.loc 2 437 0
	cmpq	$-1, -104(%rbp)
	sete	%al
	movzbl	%al, %eax
	movl	%eax, -28(%rbp)
	.loc 2 440 0
	mov	-88(%rbp), %eax
	movzbl	%nacl:148(%r15,%rax), %eax
	movzbl	%al, %eax
	movl	$1, %edx
	movl	%edx, %ebx
	movl	%eax, %ecx
	sall	%cl, %ebx
	movl	%ebx, %eax
	movl	%eax, -24(%rbp)
	.loc 2 441 0
	cmpl	$0, -24(%rbp)
	jg	.L97
	movl	$__PRETTY_FUNCTION__.11953, %ecx
	movl	$441, %edx
	movl	$.LC44, %esi
	movl	$.LC55, %edi
	call	__assert_fail
	.align 32
.L97:
	.loc 2 442 0
	cmpl	$1, -24(%rbp)
	jne	.L98
	mov	-88(%rbp), %eax
	movl	%nacl:152(%r15,%rax), %eax
	mov	%eax, %eax
	jmp	.L99
	.align 32
.L98:
	.loc 2 443 0
	mov	-88(%rbp), %eax
	movq	%nacl:160(%r15,%rax), %rax
	leaq	1(%rax), %rdx
	mov	-88(%rbp), %eax
	movzbl	%nacl:148(%r15,%rax), %eax
	movzbl	%al, %eax
	.loc 2 442 0
	movq	%rdx, %rbx
	movl	%eax, %ecx
	salq	%cl, %rbx
	movq	%rbx, %rax
	.align 32
.L99:
	movq	%rax, -56(%rbp)
	.loc 2 445 0
	cmpl	$0, -28(%rbp)
	jne	.L100
	movq	-104(%rbp), %rax
	movq	-96(%rbp), %rdx
	leaq	(%rdx,%rax), %rax
	movq	%rax, -48(%rbp)
	movq	-48(%rbp), %rax
	cmpq	-56(%rbp), %rax
	jbe	.L101
	.align 32
.L100:
	.loc 2 446 0
	movq	-56(%rbp), %rax
	movq	%rax, -48(%rbp)
	.align 32
.L101:
	.loc 2 447 0
	movq	-48(%rbp), %rax
	cmpq	-96(%rbp), %rax
	ja	.L102
	.loc 2 448 0
	movl	$0, %ebx
	jmp	.L103
	.align 32
.L102:
	.loc 2 449 0
	movq	-96(%rbp), %rax
	movq	-48(%rbp), %rdx
	movq	%rdx, %rcx
	subq	%rax, %rcx
	movq	%rcx, %rax
	movq	%rax, -104(%rbp)
	.loc 2 451 0
	jmp	.L104
	.align 32
.L113:
	.loc 2 452 0
	movq	-48(%rbp), %rax
	movq	%rax, -72(%rbp)
	.loc 2 453 0
	movq	-96(%rbp), %rdx
	leal	-72(%rbp), %ecx
	movl	-88(%rbp), %eax
	movl	%ecx, %esi
	movl	%eax, %edi
	call	get_next_chunk
	movl	%eax, -20(%rbp)
	.loc 2 454 0
	cmpl	$0, -20(%rbp)
	je	.L105
	.loc 2 455 0
	movl	-20(%rbp), %ebx
	jmp	.L103
	.align 32
.L105:
	.loc 2 456 0
	cmpl	$0, -28(%rbp)
	jne	.L106
	movq	-72(%rbp), %rax
	movq	-48(%rbp), %rdx
	movq	%rdx, %rbx
	subq	%rax, %rbx
	movq	%rbx, %rax
	jmp	.L107
	.align 32
.L106:
	movq	$-1, %rax
	.align 32
.L107:
	movq	%rax, -40(%rbp)
	.loc 2 458 0
	movl	-84(%rbp), %eax
	movl	%eax, %edi
	call	dmu_tx_create
	mov	%eax, %eax
	movl	%eax, -60(%rbp)
	.loc 2 459 0
	movq	-72(%rbp), %rdx
	mov	-88(%rbp), %eax
	movq	%nacl:120(%r15,%rax), %rbx
	movq	-40(%rbp), %rcx
	movl	-60(%rbp), %eax
	movq	%rbx, %rsi
	movl	%eax, %edi
	call	dmu_tx_hold_free
	.loc 2 460 0
	movl	-60(%rbp), %eax
	movl	$1, %esi
	movl	%eax, %edi
	call	dmu_tx_assign
	movl	%eax, -20(%rbp)
	.loc 2 461 0
	cmpl	$0, -20(%rbp)
	je	.L108
	.loc 2 462 0
	movl	-60(%rbp), %eax
	movl	%eax, %edi
	call	dmu_tx_abort
	.loc 2 463 0
	movl	-20(%rbp), %ebx
	jmp	.L103
	.align 32
.L108:
	.loc 2 466 0
	cmpl	$0, -28(%rbp)
	jne	.L109
	movq	-40(%rbp), %rax
	jmp	.L110
	.align 32
.L109:
	movq	$-1, %rax
	.align 32
.L110:
	movq	-72(%rbp), %rsi
	movl	-60(%rbp), %edx
	movl	-88(%rbp), %ebx
	movl	%edx, %ecx
	movq	%rax, %rdx
	movl	%ebx, %edi
	call	dnode_free_range
	.loc 2 468 0
	movq	-72(%rbp), %rax
	testq	%rax, %rax
	jne	.L111
	cmpl	$0, -108(%rbp)
	je	.L111
	.loc 2 469 0
	cmpl	$0, -28(%rbp)
	jne	.L112
	movl	$__PRETTY_FUNCTION__.11953, %ecx
	movl	$469, %edx
	movl	$.LC44, %esi
	movl	$.LC56, %edi
	call	__assert_fail
	.align 32
.L112:
	.loc 2 470 0
	movl	-60(%rbp), %edx
	movl	-88(%rbp), %eax
	movl	%edx, %esi
	movl	%eax, %edi
	call	dnode_free
	.align 32
.L111:
	.loc 2 473 0
	movq	-72(%rbp), %rax
	subq	-48(%rbp), %rax
	addq	%rax, -104(%rbp)
	.loc 2 475 0
	movl	-60(%rbp), %eax
	movl	%eax, %edi
	call	dmu_tx_commit
	.loc 2 476 0
	movq	-72(%rbp), %rax
	movq	%rax, -48(%rbp)
	.align 32
.L104:
	.loc 2 451 0
	cmpq	$0, -104(%rbp)
	jne	.L113
	.loc 2 478 0
	movl	$0, %ebx
	.align 32
.L103:
	movq	8(%rbp), %rsi
	movl	$dmu_free_long_range_impl, %edi
	call	__cyg_profile_func_exit
	movl	%ebx, %eax
	.loc 2 479 0
	naclaspq	$104, %r15
	popq	%rbx
	popq	%r11
	naclrestbp	%r11d, %r15
	popq	%r11
	nacljmp	%r11d,%r15
	.cfi_endproc
.LFE14:
	.size	dmu_free_long_range_impl, .-dmu_free_long_range_impl
	.align 32
.globl dmu_free_long_range
	.type	dmu_free_long_range, @function
dmu_free_long_range:
.LFB15:
	.loc 2 484 0
	.cfi_startproc
	pushq	%rbp
.LCFI24:
	.cfi_def_cfa_offset 16
	movq	%rsp, %rbp
	.cfi_offset 6, -16
.LCFI25:
	.cfi_def_cfa_register 6
	pushq	%rbx
	naclsspq	$56, %r15
	movl	%edi, -36(%rbp)
	movq	%rsi, -48(%rbp)
	movq	%rdx, -56(%rbp)
	movq	%rcx, -64(%rbp)
	.loc 2 484 0
	movq	8(%rbp), %rsi
	movl	$dmu_free_long_range, %edi
	.cfi_offset 3, -24
	call	__cyg_profile_func_enter
	.loc 2 488 0
	mov	-36(%rbp), %eax
	mov	%nacl:(%r15,%rax), %ebx
	leal	-24(%rbp), %edx
	movq	-48(%rbp), %rax
	movl	%edx, %ecx
	movl	$__func__.12012, %edx
	movq	%rax, %rsi
	movl	%ebx, %edi
	call	dnode_hold
	movl	%eax, -20(%rbp)
	.loc 2 489 0
	cmpl	$0, -20(%rbp)
	je	.L116
	.loc 2 490 0
	movl	-20(%rbp), %ebx
	jmp	.L117
	.align 32
.L116:
	.loc 2 491 0
	mov	-24(%rbp), %ebx
	movq	-64(%rbp), %rcx
	movq	-56(%rbp), %rdx
	movl	-36(%rbp), %eax
	movl	$0, %r8d
	movl	%ebx, %esi
	movl	%eax, %edi
	call	dmu_free_long_range_impl
	movl	%eax, -20(%rbp)
	.loc 2 492 0
	mov	-24(%rbp), %eax
	movl	$__func__.12012, %esi
	movl	%eax, %edi
	call	dnode_rele
	.loc 2 493 0
	movl	-20(%rbp), %ebx
	.align 32
.L117:
	movq	8(%rbp), %rsi
	movl	$dmu_free_long_range, %edi
	call	__cyg_profile_func_exit
	movl	%ebx, %eax
	.loc 2 494 0
	naclaspq	$56, %r15
	popq	%rbx
	popq	%r11
	naclrestbp	%r11d, %r15
	popq	%r11
	nacljmp	%r11d,%r15
	.cfi_endproc
.LFE15:
	.size	dmu_free_long_range, .-dmu_free_long_range
	.align 32
.globl dmu_free_object
	.type	dmu_free_object, @function
dmu_free_object:
.LFB16:
	.loc 2 498 0
	.cfi_startproc
	pushq	%rbp
.LCFI26:
	.cfi_def_cfa_offset 16
	movq	%rsp, %rbp
	.cfi_offset 6, -16
.LCFI27:
	.cfi_def_cfa_register 6
	pushq	%rbx
	naclsspq	$40, %r15
	movl	%edi, -36(%rbp)
	movq	%rsi, -48(%rbp)
	.loc 2 498 0
	movq	8(%rbp), %rsi
	movl	$dmu_free_object, %edi
	.cfi_offset 3, -24
	call	__cyg_profile_func_enter
	.loc 2 503 0
	mov	-36(%rbp), %eax
	mov	%nacl:(%r15,%rax), %ebx
	leal	-28(%rbp), %edx
	movq	-48(%rbp), %rax
	movl	%edx, %r8d
	movl	$__func__.12028, %ecx
	movl	$1, %edx
	movq	%rax, %rsi
	movl	%ebx, %edi
	call	dnode_hold_impl
	movl	%eax, -20(%rbp)
	.loc 2 505 0
	cmpl	$0, -20(%rbp)
	je	.L120
	.loc 2 506 0
	movl	-20(%rbp), %ebx
	jmp	.L121
	.align 32
.L120:
	.loc 2 507 0
	mov	-28(%rbp), %eax
	movzbl	%nacl:146(%r15,%rax), %eax
	cmpb	$1, %al
	jne	.L122
	.loc 2 508 0
	movl	-36(%rbp), %eax
	movl	%eax, %edi
	call	dmu_tx_create
	mov	%eax, %eax
	movl	%eax, -24(%rbp)
	.loc 2 509 0
	movq	-48(%rbp), %rdx
	movl	-24(%rbp), %eax
	movq	%rdx, %rsi
	movl	%eax, %edi
	call	dmu_tx_hold_bonus
	.loc 2 510 0
	mov	-28(%rbp), %eax
	movq	%nacl:120(%r15,%rax), %rbx
	movl	-24(%rbp), %eax
	movq	$-1, %rcx
	movl	$0, %edx
	movq	%rbx, %rsi
	movl	%eax, %edi
	call	dmu_tx_hold_free
	.loc 2 511 0
	movl	-24(%rbp), %eax
	movl	$1, %esi
	movl	%eax, %edi
	call	dmu_tx_assign
	movl	%eax, -20(%rbp)
	.loc 2 512 0
	cmpl	$0, -20(%rbp)
	jne	.L123
	.loc 2 513 0
	mov	-28(%rbp), %ebx
	movl	-24(%rbp), %eax
	movl	%eax, %ecx
	movq	$-1, %rdx
	movl	$0, %esi
	movl	%ebx, %edi
	call	dnode_free_range
	.loc 2 514 0
	mov	-28(%rbp), %edx
	movl	-24(%rbp), %eax
	movl	%eax, %esi
	movl	%edx, %edi
	call	dnode_free
	.loc 2 515 0
	movl	-24(%rbp), %eax
	movl	%eax, %edi
	call	dmu_tx_commit
	.loc 2 517 0
	jmp	.L125
	.align 32
.L123:
	movl	-24(%rbp), %eax
	movl	%eax, %edi
	call	dmu_tx_abort
	jmp	.L125
	.align 32
.L122:
	.loc 2 520 0
	mov	-28(%rbp), %ebx
	movl	-36(%rbp), %eax
	movl	$1, %r8d
	movq	$-1, %rcx
	movl	$0, %edx
	movl	%ebx, %esi
	movl	%eax, %edi
	call	dmu_free_long_range_impl
	movl	%eax, -20(%rbp)
	.align 32
.L125:
	.loc 2 522 0
	mov	-28(%rbp), %eax
	movl	$__func__.12028, %esi
	movl	%eax, %edi
	call	dnode_rele
	.loc 2 523 0
	movl	-20(%rbp), %ebx
	.align 32
.L121:
	movq	8(%rbp), %rsi
	movl	$dmu_free_object, %edi
	call	__cyg_profile_func_exit
	movl	%ebx, %eax
	.loc 2 524 0
	naclaspq	$40, %r15
	popq	%rbx
	popq	%r11
	naclrestbp	%r11d, %r15
	popq	%r11
	nacljmp	%r11d,%r15
	.cfi_endproc
.LFE16:
	.size	dmu_free_object, .-dmu_free_object
	.section	.rodata
	.align 8
.LC57:
	.string	"offset < (18446744073709551615ULL)"
	.align 8
.LC58:
	.string	"size == -1ULL || size <= (18446744073709551615ULL) - offset"
	.text
	.align 32
.globl dmu_free_range
	.type	dmu_free_range, @function
dmu_free_range:
.LFB17:
	.loc 2 529 0
	.cfi_startproc
	pushq	%rbp
.LCFI28:
	.cfi_def_cfa_offset 16
	movq	%rsp, %rbp
	.cfi_offset 6, -16
.LCFI29:
	.cfi_def_cfa_register 6
	pushq	%rbx
	naclsspq	$72, %r15
	movl	%edi, -36(%rbp)
	movq	%rsi, -48(%rbp)
	movq	%rdx, -56(%rbp)
	movq	%rcx, -64(%rbp)
	movl	%r8d, -68(%rbp)
	.loc 2 529 0
	movq	8(%rbp), %rsi
	movl	$dmu_free_range, %edi
	.cfi_offset 3, -24
	call	__cyg_profile_func_enter
	.loc 2 531 0
	mov	-36(%rbp), %eax
	mov	%nacl:(%r15,%rax), %ebx
	leal	-24(%rbp), %edx
	movq	-48(%rbp), %rax
	movl	%edx, %ecx
	movl	$__func__.12060, %edx
	movq	%rax, %rsi
	movl	%ebx, %edi
	call	dnode_hold
	movl	%eax, -20(%rbp)
	.loc 2 532 0
	cmpl	$0, -20(%rbp)
	je	.L128
	.loc 2 533 0
	movl	-20(%rbp), %ebx
	jmp	.L129
	.align 32
.L128:
	.loc 2 534 0
	cmpq	$-1, -56(%rbp)
	jne	.L130
	movl	$__PRETTY_FUNCTION__.12061, %ecx
	movl	$534, %edx
	movl	$.LC44, %esi
	movl	$.LC57, %edi
	call	__assert_fail
	.align 32
.L130:
	.loc 2 535 0
	cmpq	$-1, -64(%rbp)
	je	.L131
	movq	-56(%rbp), %rax
	notq	%rax
	cmpq	-64(%rbp), %rax
	jae	.L131
	movl	$__PRETTY_FUNCTION__.12061, %ecx
	movl	$535, %edx
	movl	$.LC44, %esi
	movl	$.LC58, %edi
	call	__assert_fail
	.align 32
.L131:
	.loc 2 536 0
	mov	-24(%rbp), %ebx
	movl	-68(%rbp), %ecx
	movq	-64(%rbp), %rdx
	movq	-56(%rbp), %rax
	movq	%rax, %rsi
	movl	%ebx, %edi
	call	dnode_free_range
	.loc 2 537 0
	mov	-24(%rbp), %eax
	movl	$__func__.12060, %esi
	movl	%eax, %edi
	call	dnode_rele
	.loc 2 538 0
	movl	$0, %ebx
	.align 32
.L129:
	movq	8(%rbp), %rsi
	movl	$dmu_free_range, %edi
	call	__cyg_profile_func_exit
	movl	%ebx, %eax
	.loc 2 539 0
	naclaspq	$72, %r15
	popq	%rbx
	popq	%r11
	naclrestbp	%r11d, %r15
	popq	%r11
	nacljmp	%r11d,%r15
	.cfi_endproc
.LFE17:
	.size	dmu_free_range, .-dmu_free_range
	.section	.rodata
.LC59:
	.string	"size > 0"
	.text
	.align 32
.globl dmu_read
	.type	dmu_read, @function
dmu_read:
.LFB18:
	.loc 2 544 0
	.cfi_startproc
	pushq	%rbp
.LCFI30:
	.cfi_def_cfa_offset 16
	movq	%rsp, %rbp
	.cfi_offset 6, -16
.LCFI31:
	.cfi_def_cfa_register 6
	pushq	%rbx
	naclsspq	$120, %r15
	movl	%edi, -68(%rbp)
	movq	%rsi, -80(%rbp)
	movq	%rdx, -88(%rbp)
	movq	%rcx, -96(%rbp)
	movl	%r8d, -100(%rbp)
	.loc 2 544 0
	movq	8(%rbp), %rsi
	movl	$dmu_read, %edi
	.cfi_offset 3, -24
	call	__cyg_profile_func_enter
	.loc 2 549 0
	mov	-68(%rbp), %eax
	mov	%nacl:(%r15,%rax), %ebx
	leal	-56(%rbp), %edx
	movq	-80(%rbp), %rax
	movl	%edx, %ecx
	movl	$__func__.12088, %edx
	movq	%rax, %rsi
	movl	%ebx, %edi
	call	dnode_hold
	movl	%eax, -48(%rbp)
	.loc 2 550 0
	cmpl	$0, -48(%rbp)
	je	.L134
	.loc 2 551 0
	movl	-48(%rbp), %ebx
	jmp	.L135
	.align 32
.L134:
	.loc 2 558 0
	mov	-56(%rbp), %eax
	movzbl	%nacl:148(%r15,%rax), %eax
	testb	%al, %al
	jne	.L139
.LBB11:
	.loc 2 559 0
	mov	-56(%rbp), %eax
	.loc 2 560 0
	movl	%nacl:152(%r15,%rax), %eax
	mov	%eax, %eax
	cmpq	-88(%rbp), %rax
	jb	.L137
	mov	-56(%rbp), %eax
	movl	%nacl:152(%r15,%rax), %eax
	mov	%eax, %eax
	movq	%rax, %rdx
	subq	-88(%rbp), %rdx
	movq	-96(%rbp), %rax
	cmpq	%rax, %rdx
	cmovbe	%rdx, %rax
	jmp	.L138
	.align 32
.L137:
	movl	$0, %eax
	.align 32
.L138:
	movl	%eax, -44(%rbp)
	.loc 2 561 0
	movq	-96(%rbp), %rax
	movl	%eax, %edx
	movl	-44(%rbp), %eax
	subl	%eax, %edx
	movl	-44(%rbp), %eax
	addl	-100(%rbp), %eax
	mov	%eax, %eax
	movl	%edx, %esi
	movl	%eax, %edi
	call	bzero
	.loc 2 562 0
	movl	-44(%rbp), %eax
	cltq
	movq	%rax, -96(%rbp)
.LBE11:
	.loc 2 565 0
	jmp	.L139
	.align 32
.L145:
.LBB12:
	.loc 2 566 0
	movl	$5242880, %eax
	cmpq	$5242880, -96(%rbp)
	cmovbe	-96(%rbp), %rax
	movq	%rax, -40(%rbp)
	.loc 2 572 0
	mov	-56(%rbp), %ebx
	leal	-64(%rbp), %esi
	movq	-40(%rbp), %rdx
	movq	-88(%rbp), %rax
	leal	-60(%rbp), %ecx
	movl	%ecx, (%rsp)
	movl	%esi, %r9d
	movl	$__func__.12088, %r8d
	movl	$1, %ecx
	movq	%rax, %rsi
	movl	%ebx, %edi
	call	dmu_buf_hold_array_by_dnode
	movl	%eax, -48(%rbp)
	.loc 2 574 0
	cmpl	$0, -48(%rbp)
	jne	.L147
	.align 32
.L140:
	.loc 2 577 0
	movl	$0, -52(%rbp)
	jmp	.L142
	.align 32
.L144:
.LBB13:
	.loc 2 580 0
	mov	-60(%rbp), %eax
	movl	-52(%rbp), %edx
	sall	$2, %edx
	leal	(%rdx,%rax), %eax
	mov	%eax, %eax
	movl	%nacl:(%r15,%rax), %eax
	movl	%eax, -20(%rbp)
	.loc 2 582 0
	cmpq	$0, -96(%rbp)
	jne	.L143
	movl	$__PRETTY_FUNCTION__.12095, %ecx
	movl	$582, %edx
	movl	$.LC44, %esi
	movl	$.LC59, %edi
	call	__assert_fail
	.align 32
.L143:
	.loc 2 584 0
	movq	-88(%rbp), %rax
	movl	%eax, %edx
	mov	-20(%rbp), %eax
	movq	%nacl:8(%r15,%rax), %rax
	movl	%edx, %ecx
	subl	%eax, %ecx
	movl	%ecx, %eax
	movl	%eax, -24(%rbp)
	.loc 2 585 0
	mov	-20(%rbp), %eax
	movq	%nacl:16(%r15,%rax), %rdx
	movl	-24(%rbp), %eax
	cltq
	subq	%rax, %rdx
	movq	-96(%rbp), %rax
	cmpq	%rax, %rdx
	cmovbe	%rdx, %rax
	movl	%eax, -28(%rbp)
	.loc 2 587 0
	movl	-28(%rbp), %edx
	mov	-20(%rbp), %eax
	mov	%nacl:24(%r15,%rax), %eax
	movl	-24(%rbp), %ecx
	leal	(%rcx,%rax), %eax
	mov	%eax, %ecx
	movl	-100(%rbp), %eax
	movl	%eax, %esi
	movl	%ecx, %edi
	call	bcopy
	.loc 2 589 0
	movl	-28(%rbp), %eax
	cltq
	addq	%rax, -88(%rbp)
	.loc 2 590 0
	movl	-28(%rbp), %eax
	cltq
	subq	%rax, -96(%rbp)
	.loc 2 591 0
	movl	-28(%rbp), %eax
	addl	%eax, -100(%rbp)
.LBE13:
	.loc 2 577 0
	addl	$1, -52(%rbp)
	.align 32
.L142:
	movl	-64(%rbp), %eax
	cmpl	%eax, -52(%rbp)
	jl	.L144
	.loc 2 593 0
	movl	-64(%rbp), %eax
	mov	-60(%rbp), %ecx
	movl	$__func__.12088, %edx
	movl	%eax, %esi
	movl	%ecx, %edi
	call	dmu_buf_rele_array
	.align 32
.L139:
.LBE12:
	.loc 2 565 0
	cmpq	$0, -96(%rbp)
	jne	.L145
	jmp	.L141
	.align 32
.L147:
.LBB14:
	.loc 2 575 0
	nop
	.align 32
.L141:
.LBE14:
	.loc 2 595 0
	mov	-56(%rbp), %eax
	movl	$__func__.12088, %esi
	movl	%eax, %edi
	call	dnode_rele
	.loc 2 596 0
	movl	-48(%rbp), %ebx
	.align 32
.L135:
	movq	8(%rbp), %rsi
	movl	$dmu_read, %edi
	call	__cyg_profile_func_exit
	movl	%ebx, %eax
	.loc 2 597 0
	naclaspq	$120, %r15
	popq	%rbx
	popq	%r11
	naclrestbp	%r11d, %r15
	popq	%r11
	nacljmp	%r11d,%r15
	.cfi_endproc
.LFE18:
	.size	dmu_read, .-dmu_read
	.section	.rodata
	.align 8
.LC60:
	.string	"0 == dmu_buf_hold_array(os, object, offset, size, FALSE, FTAG, &numbufs, &dbp)"
	.align 8
.LC61:
	.string	"i == 0 || i == numbufs-1 || tocpy == db->db_size"
	.text
	.align 32
.globl dmu_write
	.type	dmu_write, @function
dmu_write:
.LFB19:
	.loc 2 602 0
	.cfi_startproc
	pushq	%rbp
.LCFI32:
	.cfi_def_cfa_offset 16
	movq	%rsp, %rbp
	.cfi_offset 6, -16
.LCFI33:
	.cfi_def_cfa_register 6
	pushq	%rbx
	naclsspq	$104, %r15
	movl	%edi, -52(%rbp)
	movq	%rsi, -64(%rbp)
	movq	%rdx, -72(%rbp)
	movq	%rcx, -80(%rbp)
	movl	%r8d, -84(%rbp)
	movl	%r9d, -88(%rbp)
	.loc 2 602 0
	movq	8(%rbp), %rsi
	movl	$dmu_write, %edi
	.cfi_offset 3, -24
	call	__cyg_profile_func_enter
	.loc 2 606 0
	cmpq	$0, -80(%rbp)
	jne	.L149
	movl	$0, %ebx
	jmp	.L150
	.align 32
.L149:
	.loc 2 609 0
	movq	-80(%rbp), %rcx
	movq	-72(%rbp), %rdx
	movq	-64(%rbp), %rbx
	movl	-52(%rbp), %eax
	leal	-36(%rbp), %esi
	movl	%esi, 8(%rsp)
	leal	-40(%rbp), %esi
	movl	%esi, (%rsp)
	movl	$__func__.12167, %r9d
	movl	$0, %r8d
	movq	%rbx, %rsi
	movl	%eax, %edi
	call	dmu_buf_hold_array
	testl	%eax, %eax
	je	.L151
	movl	$.LC42, %eax
	mov	%eax, %ebx
	mov	stderr(%rip), %eax
	movl	$.LC60, %r9d
	movl	$__PRETTY_FUNCTION__.12168, %r8d
	movl	$610, %ecx
	movl	$.LC44, %edx
	movl	%ebx, %esi
	movl	%eax, %edi
	movl	$0, %eax
	call	fprintf
	call	abort
	.align 32
.L151:
	.loc 2 612 0
	movl	$0, -32(%rbp)
	jmp	.L152
	.align 32
.L158:
.LBB15:
	.loc 2 615 0
	mov	-36(%rbp), %eax
	movl	-32(%rbp), %edx
	sall	$2, %edx
	leal	(%rdx,%rax), %eax
	mov	%eax, %eax
	movl	%nacl:(%r15,%rax), %eax
	movl	%eax, -20(%rbp)
	.loc 2 617 0
	cmpq	$0, -80(%rbp)
	jne	.L153
	movl	$__PRETTY_FUNCTION__.12168, %ecx
	movl	$617, %edx
	movl	$.LC44, %esi
	movl	$.LC59, %edi
	call	__assert_fail
	.align 32
.L153:
	.loc 2 619 0
	movq	-72(%rbp), %rax
	movl	%eax, %edx
	mov	-20(%rbp), %eax
	movq	%nacl:8(%r15,%rax), %rax
	movl	%edx, %ecx
	subl	%eax, %ecx
	movl	%ecx, %eax
	movl	%eax, -24(%rbp)
	.loc 2 620 0
	mov	-20(%rbp), %eax
	movq	%nacl:16(%r15,%rax), %rdx
	movl	-24(%rbp), %eax
	cltq
	subq	%rax, %rdx
	movq	-80(%rbp), %rax
	cmpq	%rax, %rdx
	cmovbe	%rdx, %rax
	movl	%eax, -28(%rbp)
	.loc 2 622 0
	cmpl	$0, -32(%rbp)
	je	.L154
	movl	-40(%rbp), %eax
	subl	$1, %eax
	cmpl	-32(%rbp), %eax
	je	.L154
	movl	-28(%rbp), %eax
	movslq	%eax,%rdx
	mov	-20(%rbp), %eax
	movq	%nacl:16(%r15,%rax), %rax
	cmpq	%rax, %rdx
	je	.L154
	movl	$__PRETTY_FUNCTION__.12168, %ecx
	movl	$622, %edx
	movl	$.LC44, %esi
	movl	$.LC61, %edi
	call	__assert_fail
	.align 32
.L154:
	.loc 2 624 0
	movl	-28(%rbp), %eax
	movslq	%eax,%rdx
	mov	-20(%rbp), %eax
	movq	%nacl:16(%r15,%rax), %rax
	cmpq	%rax, %rdx
	jne	.L155
	.loc 2 625 0
	movl	-88(%rbp), %edx
	movl	-20(%rbp), %eax
	movl	%edx, %esi
	movl	%eax, %edi
	call	dmu_buf_will_fill
	jmp	.L156
	.align 32
.L155:
	.loc 2 627 0
	movl	-88(%rbp), %edx
	movl	-20(%rbp), %eax
	movl	%edx, %esi
	movl	%eax, %edi
	call	dmu_buf_will_dirty
	.align 32
.L156:
	.loc 2 629 0
	movl	-28(%rbp), %edx
	mov	-20(%rbp), %eax
	mov	%nacl:24(%r15,%rax), %eax
	movl	-24(%rbp), %ecx
	leal	(%rcx,%rax), %eax
	mov	%eax, %ecx
	movl	-84(%rbp), %eax
	movl	%ecx, %esi
	movl	%eax, %edi
	call	bcopy
	.loc 2 631 0
	movl	-28(%rbp), %eax
	movslq	%eax,%rdx
	mov	-20(%rbp), %eax
	movq	%nacl:16(%r15,%rax), %rax
	cmpq	%rax, %rdx
	jne	.L157
	.loc 2 632 0
	movl	-88(%rbp), %edx
	movl	-20(%rbp), %eax
	movl	%edx, %esi
	movl	%eax, %edi
	call	dmu_buf_fill_done
	.align 32
.L157:
	.loc 2 634 0
	movl	-28(%rbp), %eax
	cltq
	addq	%rax, -72(%rbp)
	.loc 2 635 0
	movl	-28(%rbp), %eax
	cltq
	subq	%rax, -80(%rbp)
	.loc 2 636 0
	movl	-28(%rbp), %eax
	addl	%eax, -84(%rbp)
.LBE15:
	.loc 2 612 0
	addl	$1, -32(%rbp)
	.align 32
.L152:
	movl	-40(%rbp), %eax
	cmpl	%eax, -32(%rbp)
	jl	.L158
	.loc 2 638 0
	movl	-40(%rbp), %eax
	mov	-36(%rbp), %ecx
	movl	$__func__.12167, %edx
	movl	%eax, %esi
	movl	%ecx, %edi
	call	dmu_buf_rele_array
	movl	$1, %ebx
	.align 32
.L150:
	movq	8(%rbp), %rsi
	movl	$dmu_write, %edi
	call	__cyg_profile_func_exit
	cmpl	$1, %ebx
	.loc 2 639 0
	naclaspq	$104, %r15
	popq	%rbx
	popq	%r11
	naclrestbp	%r11d, %r15
	popq	%r11
	nacljmp	%r11d,%r15
	.cfi_endproc
.LFE19:
	.size	dmu_write, .-dmu_write
	.align 32
.globl dmu_read_uio
	.type	dmu_read_uio, @function
dmu_read_uio:
.LFB20:
	.loc 2 644 0
	.cfi_startproc
	pushq	%rbp
.LCFI34:
	.cfi_def_cfa_offset 16
	movq	%rsp, %rbp
	.cfi_offset 6, -16
.LCFI35:
	.cfi_def_cfa_register 6
	pushq	%rbx
	naclsspq	$88, %r15
	movl	%edi, -52(%rbp)
	movq	%rsi, -64(%rbp)
	movl	%edx, -68(%rbp)
	movq	%rcx, -80(%rbp)
	.loc 2 644 0
	movq	8(%rbp), %rsi
	movl	$dmu_read_uio, %edi
	.cfi_offset 3, -24
	call	__cyg_profile_func_enter
	.loc 2 652 0
	mov	-68(%rbp), %eax
	movq	%nacl:8(%r15,%rax), %rax
	movq	%rax, %rdx
	movq	-80(%rbp), %rcx
	movq	-64(%rbp), %rbx
	movl	-52(%rbp), %eax
	leal	-40(%rbp), %esi
	movl	%esi, 8(%rsp)
	leal	-44(%rbp), %esi
	movl	%esi, (%rsp)
	movl	$__func__.12236, %r9d
	movl	$1, %r8d
	movq	%rbx, %rsi
	movl	%eax, %edi
	call	dmu_buf_hold_array
	movl	%eax, -32(%rbp)
	.loc 2 654 0
	cmpl	$0, -32(%rbp)
	je	.L164
	.loc 2 655 0
	movl	-32(%rbp), %ebx
	jmp	.L165
	.align 32
.L164:
	.loc 2 657 0
	movl	$0, -36(%rbp)
	jmp	.L166
	.align 32
.L170:
.LBB16:
	.loc 2 660 0
	mov	-40(%rbp), %eax
	movl	-36(%rbp), %edx
	sall	$2, %edx
	leal	(%rdx,%rax), %eax
	mov	%eax, %eax
	movl	%nacl:(%r15,%rax), %eax
	movl	%eax, -20(%rbp)
	.loc 2 662 0
	cmpq	$0, -80(%rbp)
	jne	.L167
	movl	$__PRETTY_FUNCTION__.12240, %ecx
	movl	$662, %edx
	movl	$.LC44, %esi
	movl	$.LC59, %edi
	call	__assert_fail
	.align 32
.L167:
	.loc 2 664 0
	mov	-68(%rbp), %eax
	movq	%nacl:8(%r15,%rax), %rax
	movl	%eax, %edx
	mov	-20(%rbp), %eax
	movq	%nacl:8(%r15,%rax), %rax
	movl	%edx, %ecx
	subl	%eax, %ecx
	movl	%ecx, %eax
	movl	%eax, -24(%rbp)
	.loc 2 665 0
	mov	-20(%rbp), %eax
	movq	%nacl:16(%r15,%rax), %rdx
	movl	-24(%rbp), %eax
	cltq
	subq	%rax, %rdx
	movq	-80(%rbp), %rax
	cmpq	%rax, %rdx
	cmovbe	%rdx, %rax
	movl	%eax, -28(%rbp)
	.loc 2 667 0
	movl	-28(%rbp), %eax
	mov	-20(%rbp), %edx
	mov	%nacl:24(%r15,%rdx), %edx
	movl	-24(%rbp), %ecx
	leal	(%rcx,%rdx), %edx
	mov	%edx, %ebx
	movl	-68(%rbp), %edx
	movl	%edx, %ecx
	movl	$0, %edx
	movl	%eax, %esi
	movl	%ebx, %edi
	call	uiomove
	movl	%eax, -32(%rbp)
	.loc 2 669 0
	cmpl	$0, -32(%rbp)
	jne	.L172
	.align 32
.L168:
	.loc 2 672 0
	movl	-28(%rbp), %eax
	cltq
	subq	%rax, -80(%rbp)
.LBE16:
	.loc 2 657 0
	addl	$1, -36(%rbp)
	.align 32
.L166:
	movl	-44(%rbp), %eax
	cmpl	%eax, -36(%rbp)
	jl	.L170
	jmp	.L169
	.align 32
.L172:
.LBB17:
	.loc 2 670 0
	nop
	.align 32
.L169:
.LBE17:
	.loc 2 674 0
	movl	-44(%rbp), %eax
	mov	-40(%rbp), %ecx
	movl	$__func__.12236, %edx
	movl	%eax, %esi
	movl	%ecx, %edi
	call	dmu_buf_rele_array
	.loc 2 676 0
	movl	-32(%rbp), %ebx
	.align 32
.L165:
	movq	8(%rbp), %rsi
	movl	$dmu_read_uio, %edi
	call	__cyg_profile_func_exit
	movl	%ebx, %eax
	.loc 2 677 0
	naclaspq	$88, %r15
	popq	%rbx
	popq	%r11
	naclrestbp	%r11d, %r15
	popq	%r11
	nacljmp	%r11d,%r15
	.cfi_endproc
.LFE20:
	.size	dmu_read_uio, .-dmu_read_uio
	.align 32
.globl dmu_write_uio
	.type	dmu_write_uio, @function
dmu_write_uio:
.LFB21:
	.loc 2 682 0
	.cfi_startproc
	pushq	%rbp
.LCFI36:
	.cfi_def_cfa_offset 16
	movq	%rsp, %rbp
	.cfi_offset 6, -16
.LCFI37:
	.cfi_def_cfa_register 6
	pushq	%rbx
	naclsspq	$104, %r15
	movl	%edi, -52(%rbp)
	movq	%rsi, -64(%rbp)
	movl	%edx, -68(%rbp)
	movq	%rcx, -80(%rbp)
	movl	%r8d, -84(%rbp)
	.loc 2 682 0
	movq	8(%rbp), %rsi
	movl	$dmu_write_uio, %edi
	.cfi_offset 3, -24
	call	__cyg_profile_func_enter
	.loc 2 685 0
	movl	$0, -32(%rbp)
	.loc 2 687 0
	cmpq	$0, -80(%rbp)
	jne	.L174
	.loc 2 688 0
	movl	$0, %ebx
	jmp	.L175
	.align 32
.L174:
	.loc 2 690 0
	mov	-68(%rbp), %eax
	movq	%nacl:8(%r15,%rax), %rax
	movq	%rax, %rdx
	movq	-80(%rbp), %rcx
	movq	-64(%rbp), %rbx
	movl	-52(%rbp), %eax
	leal	-40(%rbp), %esi
	movl	%esi, 8(%rsp)
	leal	-44(%rbp), %esi
	movl	%esi, (%rsp)
	movl	$__func__.12287, %r9d
	movl	$0, %r8d
	movq	%rbx, %rsi
	movl	%eax, %edi
	call	dmu_buf_hold_array
	movl	%eax, -32(%rbp)
	.loc 2 692 0
	cmpl	$0, -32(%rbp)
	je	.L176
	.loc 2 693 0
	movl	-32(%rbp), %ebx
	jmp	.L175
	.align 32
.L176:
	.loc 2 695 0
	movl	$0, -36(%rbp)
	jmp	.L177
	.align 32
.L185:
.LBB18:
	.loc 2 698 0
	mov	-40(%rbp), %eax
	movl	-36(%rbp), %edx
	sall	$2, %edx
	leal	(%rdx,%rax), %eax
	mov	%eax, %eax
	movl	%nacl:(%r15,%rax), %eax
	movl	%eax, -20(%rbp)
	.loc 2 700 0
	cmpq	$0, -80(%rbp)
	jne	.L178
	movl	$__PRETTY_FUNCTION__.12291, %ecx
	movl	$700, %edx
	movl	$.LC44, %esi
	movl	$.LC59, %edi
	call	__assert_fail
	.align 32
.L178:
	.loc 2 702 0
	mov	-68(%rbp), %eax
	movq	%nacl:8(%r15,%rax), %rax
	movl	%eax, %edx
	mov	-20(%rbp), %eax
	movq	%nacl:8(%r15,%rax), %rax
	movl	%edx, %ecx
	subl	%eax, %ecx
	movl	%ecx, %eax
	movl	%eax, -24(%rbp)
	.loc 2 703 0
	mov	-20(%rbp), %eax
	movq	%nacl:16(%r15,%rax), %rdx
	movl	-24(%rbp), %eax
	cltq
	subq	%rax, %rdx
	movq	-80(%rbp), %rax
	cmpq	%rax, %rdx
	cmovbe	%rdx, %rax
	movl	%eax, -28(%rbp)
	.loc 2 705 0
	cmpl	$0, -36(%rbp)
	je	.L179
	movl	-44(%rbp), %eax
	subl	$1, %eax
	cmpl	-36(%rbp), %eax
	je	.L179
	movl	-28(%rbp), %eax
	movslq	%eax,%rdx
	mov	-20(%rbp), %eax
	movq	%nacl:16(%r15,%rax), %rax
	cmpq	%rax, %rdx
	je	.L179
	movl	$__PRETTY_FUNCTION__.12291, %ecx
	movl	$705, %edx
	movl	$.LC44, %esi
	movl	$.LC61, %edi
	call	__assert_fail
	.align 32
.L179:
	.loc 2 707 0
	movl	-28(%rbp), %eax
	movslq	%eax,%rdx
	mov	-20(%rbp), %eax
	movq	%nacl:16(%r15,%rax), %rax
	cmpq	%rax, %rdx
	jne	.L180
	.loc 2 708 0
	movl	-84(%rbp), %edx
	movl	-20(%rbp), %eax
	movl	%edx, %esi
	movl	%eax, %edi
	call	dmu_buf_will_fill
	jmp	.L181
	.align 32
.L180:
	.loc 2 710 0
	movl	-84(%rbp), %edx
	movl	-20(%rbp), %eax
	movl	%edx, %esi
	movl	%eax, %edi
	call	dmu_buf_will_dirty
	.align 32
.L181:
	.loc 2 718 0
	movl	-28(%rbp), %eax
	mov	-20(%rbp), %edx
	mov	%nacl:24(%r15,%rdx), %edx
	movl	-24(%rbp), %ecx
	leal	(%rcx,%rdx), %edx
	mov	%edx, %ebx
	movl	-68(%rbp), %edx
	movl	%edx, %ecx
	movl	$1, %edx
	movl	%eax, %esi
	movl	%ebx, %edi
	call	uiomove
	movl	%eax, -32(%rbp)
	.loc 2 721 0
	movl	-28(%rbp), %eax
	movslq	%eax,%rdx
	mov	-20(%rbp), %eax
	movq	%nacl:16(%r15,%rax), %rax
	cmpq	%rax, %rdx
	jne	.L182
	.loc 2 722 0
	movl	-84(%rbp), %edx
	movl	-20(%rbp), %eax
	movl	%edx, %esi
	movl	%eax, %edi
	call	dmu_buf_fill_done
	.align 32
.L182:
	.loc 2 724 0
	cmpl	$0, -32(%rbp)
	jne	.L187
	.align 32
.L183:
	.loc 2 727 0
	movl	-28(%rbp), %eax
	cltq
	subq	%rax, -80(%rbp)
.LBE18:
	.loc 2 695 0
	addl	$1, -36(%rbp)
	.align 32
.L177:
	movl	-44(%rbp), %eax
	cmpl	%eax, -36(%rbp)
	jl	.L185
	jmp	.L184
	.align 32
.L187:
.LBB19:
	.loc 2 725 0
	nop
	.align 32
.L184:
.LBE19:
	.loc 2 729 0
	movl	-44(%rbp), %eax
	mov	-40(%rbp), %ecx
	movl	$__func__.12287, %edx
	movl	%eax, %esi
	movl	%ecx, %edi
	call	dmu_buf_rele_array
	.loc 2 730 0
	movl	-32(%rbp), %ebx
	.align 32
.L175:
	movq	8(%rbp), %rsi
	movl	$dmu_write_uio, %edi
	call	__cyg_profile_func_exit
	movl	%ebx, %eax
	.loc 2 731 0
	naclaspq	$104, %r15
	popq	%rbx
	popq	%r11
	naclrestbp	%r11d, %r15
	popq	%r11
	nacljmp	%r11d,%r15
	.cfi_endproc
.LFE21:
	.size	dmu_write_uio, .-dmu_write_uio
	.section	.rodata
	.align 8
.LC62:
	.string	"dr->dt.dl.dr_override_state == DR_IN_DMU_SYNC"
	.text
	.align 32
	.type	dmu_sync_done, @function
dmu_sync_done:
.LFB22:
	.loc 2 803 0
	.cfi_startproc
	pushq	%rbp
.LCFI38:
	.cfi_def_cfa_offset 16
	movq	%rsp, %rbp
	.cfi_offset 6, -16
.LCFI39:
	.cfi_def_cfa_register 6
	pushq	%rbx
	naclsspq	$40, %r15
	movl	%edi, -36(%rbp)
	movl	%esi, -40(%rbp)
	movl	%edx, -44(%rbp)
	.loc 2 803 0
	movq	8(%rbp), %rsi
	movl	$dmu_sync_done, %edi
	.cfi_offset 3, -24
	call	__cyg_profile_func_enter
	.loc 2 804 0
	movl	-44(%rbp), %eax
	movl	%eax, -32(%rbp)
	.loc 2 805 0
	mov	-32(%rbp), %eax
	movl	%nacl:(%r15,%rax), %eax
	movl	%eax, -28(%rbp)
	.loc 2 806 0
	mov	-28(%rbp), %eax
	movl	%nacl:20(%r15,%rax), %eax
	movl	%eax, -24(%rbp)
	.loc 2 807 0
	mov	-32(%rbp), %eax
	movl	%nacl:4(%r15,%rax), %eax
	movl	%eax, -20(%rbp)
	.loc 2 809 0
	mov	-36(%rbp), %eax
	mov	%nacl:72(%r15,%rax), %eax
	movq	%nacl:80(%r15,%rax), %rax
	testq	%rax, %rax
	je	.L189
	.loc 2 810 0
	mov	-36(%rbp), %eax
	mov	%nacl:72(%r15,%rax), %eax
	movq	$1, %nacl:88(%r15,%rax)
	.loc 2 811 0
	mov	-36(%rbp), %eax
	mov	%nacl:72(%r15,%rax), %eax
	mov	-36(%rbp), %edx
	mov	%nacl:72(%r15,%rdx), %edx
	movq	%nacl:48(%r15,%rdx), %rcx
	mov	-36(%rbp), %edx
	mov	%nacl:72(%r15,%rdx), %edx
	movq	%nacl:48(%r15,%rdx), %rdx
	movq	%rdx, %rbx
	shrq	$48, %rbx
	mov	-24(%rbp), %edx
	mov	%nacl:36(%r15,%rdx), %edx
	movl	%nacl:136(%r15,%rdx), %edx
	mov	%edx, %edx
	xorq	%rbx, %rdx
	andl	$255, %edx
	salq	$48, %rdx
	xorq	%rcx, %rdx
	movq	%rdx, %nacl:48(%r15,%rax)
	.loc 2 812 0
	mov	-36(%rbp), %eax
	mov	%nacl:72(%r15,%rax), %eax
	mov	-36(%rbp), %edx
	mov	%nacl:72(%r15,%rdx), %edx
	movq	%nacl:48(%r15,%rdx), %rcx
	movabsq	$-2233785415175766017, %rdx
	andq	%rcx, %rdx
	movq	%rdx, %nacl:48(%r15,%rax)
	.align 32
.L189:
	.loc 2 815 0
	movl	-24(%rbp), %eax
	addl	$64, %eax
	mov	%eax, %eax
	movl	%eax, %edi
	call	mutex_enter
	.loc 2 816 0
	mov	-28(%rbp), %eax
	movl	%nacl:168(%r15,%rax), %eax
	cmpl	$1, %eax
	je	.L190
	movl	$__PRETTY_FUNCTION__.12362, %ecx
	movl	$816, %edx
	movl	$.LC44, %esi
	movl	$.LC62, %edi
	call	__assert_fail
	.align 32
.L190:
	.loc 2 817 0
	mov	-36(%rbp), %eax
	mov	%nacl:72(%r15,%rax), %edx
	mov	-28(%rbp), %eax
	movq	%nacl:(%r15,%rdx), %rcx
	movq	%rcx, %nacl:40(%r15,%rax)
	movq	%nacl:8(%r15,%rdx), %rcx
	movq	%rcx, %nacl:48(%r15,%rax)
	movq	%nacl:16(%r15,%rdx), %rcx
	movq	%rcx, %nacl:56(%r15,%rax)
	movq	%nacl:24(%r15,%rdx), %rcx
	movq	%rcx, %nacl:64(%r15,%rax)
	movq	%nacl:32(%r15,%rdx), %rcx
	movq	%rcx, %nacl:72(%r15,%rax)
	movq	%nacl:40(%r15,%rdx), %rcx
	movq	%rcx, %nacl:80(%r15,%rax)
	movq	%nacl:48(%r15,%rdx), %rcx
	movq	%rcx, %nacl:88(%r15,%rax)
	movq	%nacl:56(%r15,%rdx), %rcx
	movq	%rcx, %nacl:96(%r15,%rax)
	movq	%nacl:64(%r15,%rdx), %rcx
	movq	%rcx, %nacl:104(%r15,%rax)
	movq	%nacl:72(%r15,%rdx), %rcx
	movq	%rcx, %nacl:112(%r15,%rax)
	movq	%nacl:80(%r15,%rdx), %rcx
	movq	%rcx, %nacl:120(%r15,%rax)
	movq	%nacl:88(%r15,%rdx), %rcx
	movq	%rcx, %nacl:128(%r15,%rax)
	movq	%nacl:96(%r15,%rdx), %rcx
	movq	%rcx, %nacl:136(%r15,%rax)
	movq	%nacl:104(%r15,%rdx), %rcx
	movq	%rcx, %nacl:144(%r15,%rax)
	movq	%nacl:112(%r15,%rdx), %rcx
	movq	%rcx, %nacl:152(%r15,%rax)
	movq	%nacl:120(%r15,%rdx), %rdx
	movq	%rdx, %nacl:160(%r15,%rax)
	.loc 2 818 0
	mov	-28(%rbp), %eax
	movl	$2, %nacl:168(%r15,%rax)
	.loc 2 819 0
	movl	-24(%rbp), %eax
	addl	$216, %eax
	mov	%eax, %eax
	movl	%eax, %edi
	call	cv_broadcast
	.loc 2 820 0
	movl	-24(%rbp), %eax
	addl	$64, %eax
	mov	%eax, %eax
	movl	%eax, %edi
	call	mutex_exit
	.loc 2 822 0
	cmpl	$0, -20(%rbp)
	je	.L191
	.loc 2 823 0
	mov	-32(%rbp), %eax
	mov	%nacl:8(%r15,%rax), %ecx
	mov	-24(%rbp), %edx
	mov	-20(%rbp), %eax
	movl	%ecx, %esi
	movl	%edx, %edi
	naclcall	%eax,%r15
	.align 32
.L191:
	.loc 2 825 0
	movl	-32(%rbp), %eax
	movl	$12, %esi
	movl	%eax, %edi
	call	umem_free
	movq	8(%rbp), %rsi
	movl	$dmu_sync_done, %edi
	call	__cyg_profile_func_exit
	.loc 2 826 0
	naclaspq	$40, %r15
	popq	%rbx
	popq	%r11
	naclrestbp	%r11d, %r15
	popq	%r11
	nacljmp	%r11d,%r15
	.cfi_endproc
.LFE22:
	.size	dmu_sync_done, .-dmu_sync_done
	.section	.rodata
.LC63:
	.string	"((bp)->blk_birth == 0)"
.LC64:
	.string	"txg != 0"
	.align 8
.LC65:
	.string	"dmu_sync txg=%llu, s,o,q %llu %llu %llu\n"
	.align 8
.LC66:
	.string	"db->db_data_pending || (db->db_blkptr && db->db_blkptr->blk_birth == txg)"
.LC67:
	.string	"dr->dr_txg == txg"
.LC68:
	.string	"err == 0"
	.text
	.align 32
.globl dmu_sync
	.type	dmu_sync, @function
dmu_sync:
.LFB23:
	.loc 2 853 0
	.cfi_startproc
	pushq	%rbp
.LCFI40:
	.cfi_def_cfa_offset 16
	movq	%rsp, %rbp
	.cfi_offset 6, -16
.LCFI41:
	.cfi_def_cfa_register 6
	pushq	%rbx
	naclsspq	$200, %r15
	movl	%edi, -116(%rbp)
	movl	%esi, -120(%rbp)
	movl	%edx, -124(%rbp)
	movq	%rcx, -136(%rbp)
	movl	%r8d, -140(%rbp)
	movl	%r9d, -144(%rbp)
	.loc 2 853 0
	movq	8(%rbp), %rsi
	movl	$dmu_sync, %edi
	.cfi_offset 3, -24
	call	__cyg_profile_func_enter
	.loc 2 854 0
	movl	-120(%rbp), %eax
	movl	%eax, -52(%rbp)
	.loc 2 855 0
	mov	-52(%rbp), %eax
	movl	%nacl:32(%r15,%rax), %eax
	movl	%eax, -48(%rbp)
	.loc 2 856 0
	mov	-48(%rbp), %eax
	mov	%nacl:(%r15,%rax), %eax
	mov	%nacl:(%r15,%rax), %eax
	movl	%nacl:16(%r15,%rax), %eax
	movl	%eax, -44(%rbp)
	.loc 2 857 0
	movl	-44(%rbp), %eax
	addl	$440, %eax
	movl	%eax, -40(%rbp)
	.loc 2 861 0
	movq	$0, -112(%rbp)
	movl	$0, -104(%rbp)
	.loc 2 866 0
	mov	-124(%rbp), %eax
	movq	%nacl:80(%r15,%rax), %rax
	testq	%rax, %rax
	je	.L194
	movl	$__PRETTY_FUNCTION__.12415, %ecx
	movl	$866, %edx
	movl	$.LC44, %esi
	movl	$.LC63, %edi
	call	__assert_fail
	.align 32
.L194:
	.loc 2 867 0
	cmpq	$0, -136(%rbp)
	jne	.L195
	movl	$__PRETTY_FUNCTION__.12415, %ecx
	movl	$867, %edx
	movl	$.LC44, %esi
	movl	$.LC64, %edi
	call	__assert_fail
	.align 32
.L195:
	.loc 2 870 0
	movl	zfs_flags(%rip), %eax
	andl	$1, %eax
	testb	%al, %al
	je	.L196
	mov	-40(%rbp), %eax
	movq	%nacl:168(%r15,%rax), %rdx
	mov	-40(%rbp), %eax
	movq	%nacl:160(%r15,%rax), %rax
	mov	-40(%rbp), %ecx
	movq	%nacl:184(%r15,%rcx), %rbx
	movq	-136(%rbp), %rcx
	movq	%rdx, 8(%rsp)
	movq	%rax, (%rsp)
	movq	%rbx, %r9
	movq	%rcx, %r8
	movl	$.LC65, %ecx
	movl	$871, %edx
	movl	$__func__.12416, %esi
	movl	$.LC44, %edi
	movl	$0, %eax
	call	__dprintf
	.align 32
.L196:
	.loc 2 876 0
	movl	-44(%rbp), %eax
	movl	%eax, %edi
	call	txg_suspend
	.loc 2 881 0
	mov	-40(%rbp), %eax
	movq	%nacl:184(%r15,%rax), %rax
	cmpq	-136(%rbp), %rax
	jb	.L197
	.loc 2 882 0
	movl	-44(%rbp), %eax
	movl	%eax, %edi
	call	txg_resume
	.loc 2 886 0
	mov	-44(%rbp), %eax
	mov	%nacl:(%r15,%rax), %eax
	movl	%eax, %edi
	call	spa_freeze_txg
	cmpq	-136(%rbp), %rax
	jae	.L198
	.loc 2 888 0
	mov	-52(%rbp), %eax
	mov	%nacl:56(%r15,%rax), %eax
	testq	%rax, %rax
	je	.L199
	.loc 2 889 0
	mov	-52(%rbp), %eax
	mov	%nacl:56(%r15,%rax), %edx
	mov	-124(%rbp), %eax
	movq	%nacl:(%r15,%rdx), %rcx
	movq	%rcx, %nacl:(%r15,%rax)
	movq	%nacl:8(%r15,%rdx), %rcx
	movq	%rcx, %nacl:8(%r15,%rax)
	movq	%nacl:16(%r15,%rdx), %rcx
	movq	%rcx, %nacl:16(%r15,%rax)
	movq	%nacl:24(%r15,%rdx), %rcx
	movq	%rcx, %nacl:24(%r15,%rax)
	movq	%nacl:32(%r15,%rdx), %rcx
	movq	%rcx, %nacl:32(%r15,%rax)
	movq	%nacl:40(%r15,%rdx), %rcx
	movq	%rcx, %nacl:40(%r15,%rax)
	movq	%nacl:48(%r15,%rdx), %rcx
	movq	%rcx, %nacl:48(%r15,%rax)
	movq	%nacl:56(%r15,%rdx), %rcx
	movq	%rcx, %nacl:56(%r15,%rax)
	movq	%nacl:64(%r15,%rdx), %rcx
	movq	%rcx, %nacl:64(%r15,%rax)
	movq	%nacl:72(%r15,%rdx), %rcx
	movq	%rcx, %nacl:72(%r15,%rax)
	movq	%nacl:80(%r15,%rdx), %rcx
	movq	%rcx, %nacl:80(%r15,%rax)
	movq	%nacl:88(%r15,%rdx), %rcx
	movq	%rcx, %nacl:88(%r15,%rax)
	movq	%nacl:96(%r15,%rdx), %rcx
	movq	%rcx, %nacl:96(%r15,%rax)
	movq	%nacl:104(%r15,%rdx), %rcx
	movq	%rcx, %nacl:104(%r15,%rax)
	movq	%nacl:112(%r15,%rdx), %rcx
	movq	%rcx, %nacl:112(%r15,%rax)
	movq	%nacl:120(%r15,%rdx), %rdx
	movq	%rdx, %nacl:120(%r15,%rax)
	.align 32
.L199:
	.loc 2 890 0
	movl	$0, %ebx
	jmp	.L200
	.align 32
.L198:
	.loc 2 892 0
	movl	$17, %ebx
	jmp	.L200
	.align 32
.L197:
	.loc 2 895 0
	movl	-52(%rbp), %eax
	addl	$64, %eax
	mov	%eax, %eax
	movl	%eax, %edi
	call	mutex_enter
	.loc 2 897 0
	mov	-40(%rbp), %eax
	movq	%nacl:176(%r15,%rax), %rax
	cmpq	-136(%rbp), %rax
	jne	.L201
	.loc 2 898 0
	jmp	.L202
	.align 32
.L205:
	.loc 2 904 0
	movl	-52(%rbp), %eax
	addl	$64, %eax
	mov	%eax, %edx
	movl	-52(%rbp), %eax
	addl	$216, %eax
	mov	%eax, %eax
	movl	%edx, %esi
	movl	%eax, %edi
	call	cv_wait
	.loc 2 905 0
	mov	-52(%rbp), %eax
	mov	%nacl:264(%r15,%rax), %eax
	testq	%rax, %rax
	jne	.L203
	.loc 2 906 0
	mov	-52(%rbp), %eax
	mov	%nacl:56(%r15,%rax), %eax
	.loc 2 905 0
	testq	%rax, %rax
	je	.L203
	.loc 2 906 0
	mov	-52(%rbp), %eax
	mov	%nacl:56(%r15,%rax), %eax
	movq	%nacl:80(%r15,%rax), %rax
	.loc 2 905 0
	testq	%rax, %rax
	jne	.L203
	.loc 2 910 0
	mov	-52(%rbp), %eax
	mov	%nacl:56(%r15,%rax), %edx
	mov	-124(%rbp), %eax
	movq	%nacl:(%r15,%rdx), %rcx
	movq	%rcx, %nacl:(%r15,%rax)
	movq	%nacl:8(%r15,%rdx), %rcx
	movq	%rcx, %nacl:8(%r15,%rax)
	movq	%nacl:16(%r15,%rdx), %rcx
	movq	%rcx, %nacl:16(%r15,%rax)
	movq	%nacl:24(%r15,%rdx), %rcx
	movq	%rcx, %nacl:24(%r15,%rax)
	movq	%nacl:32(%r15,%rdx), %rcx
	movq	%rcx, %nacl:32(%r15,%rax)
	movq	%nacl:40(%r15,%rdx), %rcx
	movq	%rcx, %nacl:40(%r15,%rax)
	movq	%nacl:48(%r15,%rdx), %rcx
	movq	%rcx, %nacl:48(%r15,%rax)
	movq	%nacl:56(%r15,%rdx), %rcx
	movq	%rcx, %nacl:56(%r15,%rax)
	movq	%nacl:64(%r15,%rdx), %rcx
	movq	%rcx, %nacl:64(%r15,%rax)
	movq	%nacl:72(%r15,%rdx), %rcx
	movq	%rcx, %nacl:72(%r15,%rax)
	movq	%nacl:80(%r15,%rdx), %rcx
	movq	%rcx, %nacl:80(%r15,%rax)
	movq	%nacl:88(%r15,%rdx), %rcx
	movq	%rcx, %nacl:88(%r15,%rax)
	movq	%nacl:96(%r15,%rdx), %rcx
	movq	%rcx, %nacl:96(%r15,%rax)
	movq	%nacl:104(%r15,%rdx), %rcx
	movq	%rcx, %nacl:104(%r15,%rax)
	movq	%nacl:112(%r15,%rdx), %rcx
	movq	%rcx, %nacl:112(%r15,%rax)
	movq	%nacl:120(%r15,%rdx), %rdx
	movq	%rdx, %nacl:120(%r15,%rax)
	.loc 2 911 0
	movl	-52(%rbp), %eax
	addl	$64, %eax
	mov	%eax, %eax
	movl	%eax, %edi
	call	mutex_exit
	.loc 2 912 0
	movl	-44(%rbp), %eax
	movl	%eax, %edi
	call	txg_resume
	.loc 2 913 0
	movl	$0, %ebx
	jmp	.L200
	.align 32
.L203:
	.loc 2 915 0
	mov	-52(%rbp), %eax
	mov	%nacl:264(%r15,%rax), %eax
	testq	%rax, %rax
	jne	.L202
	mov	-52(%rbp), %eax
	mov	%nacl:56(%r15,%rax), %eax
	testq	%rax, %rax
	je	.L204
	mov	-52(%rbp), %eax
	mov	%nacl:56(%r15,%rax), %eax
	movq	%nacl:80(%r15,%rax), %rax
	cmpq	-136(%rbp), %rax
	je	.L202
	.align 32
.L204:
	movl	$__PRETTY_FUNCTION__.12415, %ecx
	movl	$916, %edx
	movl	$.LC44, %esi
	movl	$.LC66, %edi
	call	__assert_fail
	.align 32
.L202:
	.loc 2 898 0
	mov	-52(%rbp), %eax
	mov	%nacl:264(%r15,%rax), %eax
	testq	%rax, %rax
	jne	.L205
	.loc 2 919 0
	mov	-52(%rbp), %eax
	mov	%nacl:56(%r15,%rax), %eax
	testq	%rax, %rax
	je	.L201
	mov	-52(%rbp), %eax
	mov	%nacl:56(%r15,%rax), %eax
	movq	%nacl:80(%r15,%rax), %rax
	cmpq	-136(%rbp), %rax
	jne	.L201
	.loc 2 923 0
	mov	-52(%rbp), %eax
	mov	%nacl:56(%r15,%rax), %edx
	mov	-124(%rbp), %eax
	movq	%nacl:(%r15,%rdx), %rcx
	movq	%rcx, %nacl:(%r15,%rax)
	movq	%nacl:8(%r15,%rdx), %rcx
	movq	%rcx, %nacl:8(%r15,%rax)
	movq	%nacl:16(%r15,%rdx), %rcx
	movq	%rcx, %nacl:16(%r15,%rax)
	movq	%nacl:24(%r15,%rdx), %rcx
	movq	%rcx, %nacl:24(%r15,%rax)
	movq	%nacl:32(%r15,%rdx), %rcx
	movq	%rcx, %nacl:32(%r15,%rax)
	movq	%nacl:40(%r15,%rdx), %rcx
	movq	%rcx, %nacl:40(%r15,%rax)
	movq	%nacl:48(%r15,%rdx), %rcx
	movq	%rcx, %nacl:48(%r15,%rax)
	movq	%nacl:56(%r15,%rdx), %rcx
	movq	%rcx, %nacl:56(%r15,%rax)
	movq	%nacl:64(%r15,%rdx), %rcx
	movq	%rcx, %nacl:64(%r15,%rax)
	movq	%nacl:72(%r15,%rdx), %rcx
	movq	%rcx, %nacl:72(%r15,%rax)
	movq	%nacl:80(%r15,%rdx), %rcx
	movq	%rcx, %nacl:80(%r15,%rax)
	movq	%nacl:88(%r15,%rdx), %rcx
	movq	%rcx, %nacl:88(%r15,%rax)
	movq	%nacl:96(%r15,%rdx), %rcx
	movq	%rcx, %nacl:96(%r15,%rax)
	movq	%nacl:104(%r15,%rdx), %rcx
	movq	%rcx, %nacl:104(%r15,%rax)
	movq	%nacl:112(%r15,%rdx), %rcx
	movq	%rcx, %nacl:112(%r15,%rax)
	movq	%nacl:120(%r15,%rdx), %rdx
	movq	%rdx, %nacl:120(%r15,%rax)
	.loc 2 924 0
	movl	-52(%rbp), %eax
	addl	$64, %eax
	mov	%eax, %eax
	movl	%eax, %edi
	call	mutex_exit
	.loc 2 925 0
	movl	-44(%rbp), %eax
	movl	%eax, %edi
	call	txg_resume
	.loc 2 926 0
	movl	$0, %ebx
	jmp	.L200
	.align 32
.L201:
	.loc 2 930 0
	mov	-52(%rbp), %eax
	movl	%nacl:268(%r15,%rax), %eax
	movl	%eax, -36(%rbp)
	.loc 2 931 0
	jmp	.L206
	.align 32
.L208:
	.loc 2 932 0
	mov	-36(%rbp), %eax
	movl	%nacl:24(%r15,%rax), %eax
	movl	%eax, -36(%rbp)
	.align 32
.L206:
	.loc 2 931 0
	cmpl	$0, -36(%rbp)
	je	.L207
	mov	-36(%rbp), %eax
	movq	%nacl:8(%r15,%rax), %rax
	cmpq	-136(%rbp), %rax
	ja	.L208
	.align 32
.L207:
	.loc 2 933 0
	cmpl	$0, -36(%rbp)
	je	.L209
	mov	-36(%rbp), %eax
	movq	%nacl:8(%r15,%rax), %rax
	cmpq	-136(%rbp), %rax
	jae	.L210
	.align 32
.L209:
	.loc 2 938 0
	movl	-52(%rbp), %eax
	addl	$64, %eax
	mov	%eax, %eax
	movl	%eax, %edi
	call	mutex_exit
	.loc 2 939 0
	movl	-44(%rbp), %eax
	movl	%eax, %edi
	call	txg_resume
	.loc 2 940 0
	movl	$2, %ebx
	jmp	.L200
	.align 32
.L210:
	.loc 2 943 0
	mov	-36(%rbp), %eax
	movq	%nacl:8(%r15,%rax), %rax
	cmpq	-136(%rbp), %rax
	je	.L211
	movl	$__PRETTY_FUNCTION__.12415, %ecx
	movl	$943, %edx
	movl	$.LC44, %esi
	movl	$.LC67, %edi
	call	__assert_fail
	.align 32
.L211:
	.loc 2 944 0
	mov	-36(%rbp), %eax
	movl	%nacl:168(%r15,%rax), %eax
	cmpl	$1, %eax
	jne	.L212
	.loc 2 948 0
	movl	-52(%rbp), %eax
	addl	$64, %eax
	mov	%eax, %eax
	movl	%eax, %edi
	call	mutex_exit
	.loc 2 949 0
	movl	-44(%rbp), %eax
	movl	%eax, %edi
	call	txg_resume
	.loc 2 950 0
	movl	$114, %ebx
	jmp	.L200
	.align 32
.L212:
	.loc 2 951 0
	mov	-36(%rbp), %eax
	movl	%nacl:168(%r15,%rax), %eax
	cmpl	$2, %eax
	jne	.L213
	.loc 2 956 0
	mov	-124(%rbp), %eax
	mov	-36(%rbp), %edx
	movq	%nacl:40(%r15,%rdx), %rcx
	movq	%rcx, %nacl:(%r15,%rax)
	movq	%nacl:48(%r15,%rdx), %rcx
	movq	%rcx, %nacl:8(%r15,%rax)
	movq	%nacl:56(%r15,%rdx), %rcx
	movq	%rcx, %nacl:16(%r15,%rax)
	movq	%nacl:64(%r15,%rdx), %rcx
	movq	%rcx, %nacl:24(%r15,%rax)
	movq	%nacl:72(%r15,%rdx), %rcx
	movq	%rcx, %nacl:32(%r15,%rax)
	movq	%nacl:80(%r15,%rdx), %rcx
	movq	%rcx, %nacl:40(%r15,%rax)
	movq	%nacl:88(%r15,%rdx), %rcx
	movq	%rcx, %nacl:48(%r15,%rax)
	movq	%nacl:96(%r15,%rdx), %rcx
	movq	%rcx, %nacl:56(%r15,%rax)
	movq	%nacl:104(%r15,%rdx), %rcx
	movq	%rcx, %nacl:64(%r15,%rax)
	movq	%nacl:112(%r15,%rdx), %rcx
	movq	%rcx, %nacl:72(%r15,%rax)
	movq	%nacl:120(%r15,%rdx), %rcx
	movq	%rcx, %nacl:80(%r15,%rax)
	movq	%nacl:128(%r15,%rdx), %rcx
	movq	%rcx, %nacl:88(%r15,%rax)
	movq	%nacl:136(%r15,%rdx), %rcx
	movq	%rcx, %nacl:96(%r15,%rax)
	movq	%nacl:144(%r15,%rdx), %rcx
	movq	%rcx, %nacl:104(%r15,%rax)
	movq	%nacl:152(%r15,%rdx), %rcx
	movq	%rcx, %nacl:112(%r15,%rax)
	movq	%nacl:160(%r15,%rdx), %rdx
	movq	%rdx, %nacl:120(%r15,%rax)
	.loc 2 957 0
	movl	-52(%rbp), %eax
	addl	$64, %eax
	mov	%eax, %eax
	movl	%eax, %edi
	call	mutex_exit
	.loc 2 958 0
	movl	-44(%rbp), %eax
	movl	%eax, %edi
	call	txg_resume
	.loc 2 959 0
	movl	$0, %ebx
	jmp	.L200
	.align 32
.L213:
	.loc 2 962 0
	mov	-36(%rbp), %eax
	movl	$1, %nacl:168(%r15,%rax)
	.loc 2 963 0
	movl	$256, %esi
	movl	$12, %edi
	call	umem_alloc
	mov	%eax, %eax
	movl	%eax, -32(%rbp)
	.loc 2 964 0
	mov	-32(%rbp), %eax
	movl	-36(%rbp), %edx
	movl	%edx, %nacl:(%r15,%rax)
	.loc 2 965 0
	mov	-32(%rbp), %eax
	movl	-140(%rbp), %edx
	movl	%edx, %nacl:4(%r15,%rax)
	.loc 2 966 0
	mov	-32(%rbp), %eax
	movl	-144(%rbp), %edx
	movl	%edx, %nacl:8(%r15,%rax)
	.loc 2 967 0
	movl	-52(%rbp), %eax
	addl	$64, %eax
	mov	%eax, %eax
	movl	%eax, %edi
	call	mutex_exit
	.loc 2 968 0
	movl	-44(%rbp), %eax
	movl	%eax, %edi
	call	txg_resume
	.loc 2 970 0
	mov	-48(%rbp), %eax
	mov	%nacl:(%r15,%rax), %eax
	movq	%nacl:16(%r15,%rax), %rax
	movq	%rax, -96(%rbp)
	.loc 2 971 0
	mov	-52(%rbp), %eax
	movq	%nacl:(%r15,%rax), %rax
	movq	%rax, -88(%rbp)
	.loc 2 972 0
	mov	-52(%rbp), %eax
	movzbl	%nacl:60(%r15,%rax), %eax
	movzbl	%al, %eax
	movq	%rax, -80(%rbp)
	.loc 2 973 0
	mov	-52(%rbp), %eax
	movq	%nacl:48(%r15,%rax), %rax
	movq	%rax, -72(%rbp)
	.loc 2 974 0
	movl	$0, -24(%rbp)
	.loc 2 975 0
	mov	-52(%rbp), %eax
	mov	%nacl:36(%r15,%rax), %eax
	movl	%nacl:136(%r15,%rax), %edx
	movl	%edx, %eax
	addl	%eax, %eax
	addl	%edx, %eax
	sall	$2, %eax
	movslq	%eax,%rdx
	movl	$dmu_ot+4, %eax
	leaq	(%rdx,%rax), %rax
	movl	%nacl:(%r15,%rax), %eax
	testl	%eax, %eax
	jne	.L214
	movq	-80(%rbp), %rax
	testq	%rax, %rax
	je	.L215
	.align 32
.L214:
	.loc 2 976 0
	orl	$262144, -24(%rbp)
	.align 32
.L215:
	.loc 2 977 0
	mov	-52(%rbp), %eax
	mov	%nacl:36(%r15,%rax), %eax
	movl	%nacl:136(%r15,%rax), %eax
	movl	%eax, -112(%rbp)
	.loc 2 978 0
	mov	-48(%rbp), %eax
	movzbl	%nacl:34(%r15,%rax), %eax
	movb	%al, -108(%rbp)
	.loc 2 979 0
	mov	-52(%rbp), %eax
	movzbl	%nacl:60(%r15,%rax), %eax
	movb	%al, -107(%rbp)
	.loc 2 980 0
	mov	-52(%rbp), %eax
	mov	%nacl:36(%r15,%rax), %eax
	movzbl	%nacl:144(%r15,%rax), %eax
	movb	%al, -104(%rbp)
	.loc 2 981 0
	mov	-48(%rbp), %eax
	movzbl	%nacl:32(%r15,%rax), %eax
	movb	%al, -103(%rbp)
	.loc 2 982 0
	mov	-52(%rbp), %eax
	mov	%nacl:36(%r15,%rax), %eax
	movzbl	%nacl:145(%r15,%rax), %eax
	movb	%al, -106(%rbp)
	.loc 2 983 0
	mov	-48(%rbp), %eax
	movzbl	%nacl:33(%r15,%rax), %eax
	movb	%al, -105(%rbp)
	.loc 2 986 0
	movzbl	zio_priority_table+2(%rip), %eax
	.loc 2 984 0
	movzbl	%al, %ebx
	mov	-36(%rbp), %eax
	mov	%nacl:32(%r15,%rax), %ecx
	.loc 2 985 0
	mov	-52(%rbp), %eax
	mov	%nacl:32(%r15,%rax), %eax
	movzbl	%nacl:36(%r15,%rax), %eax
	cmpb	$2, %al
	je	.L216
	mov	-52(%rbp), %eax
	movzbl	%nacl:60(%r15,%rax), %eax
	testb	%al, %al
	jne	.L217
	mov	-52(%rbp), %eax
	mov	%nacl:36(%r15,%rax), %eax
	movl	%nacl:136(%r15,%rax), %edx
	movl	%edx, %eax
	addl	%eax, %eax
	addl	%edx, %eax
	sall	$2, %eax
	movslq	%eax,%rdx
	movl	$dmu_ot+4, %eax
	leaq	(%rdx,%rax), %rax
	movl	%nacl:(%r15,%rax), %eax
	testl	%eax, %eax
	je	.L218
	.align 32
.L217:
	mov	-52(%rbp), %eax
	mov	%nacl:32(%r15,%rax), %eax
	movzbl	%nacl:36(%r15,%rax), %eax
	cmpb	$1, %al
	jne	.L218
	.align 32
.L216:
	movl	$1, %eax
	jmp	.L219
	.align 32
.L218:
	movl	$0, %eax
	.align 32
.L219:
	.loc 2 984 0
	movl	%eax, %edx
	mov	-48(%rbp), %eax
	mov	%nacl:4(%r15,%rax), %edi
	movl	-124(%rbp), %r9d
	movq	-136(%rbp), %r8
	leal	-112(%rbp), %r10d
	movl	-116(%rbp), %eax
	leal	-96(%rbp), %esi
	movl	%esi, 48(%rsp)
	movl	-24(%rbp), %esi
	movl	%esi, 40(%rsp)
	movl	%ebx, 32(%rsp)
	movl	-32(%rbp), %ebx
	movl	%ebx, 24(%rsp)
	movl	$dmu_sync_done, 16(%rsp)
	movl	$0, 8(%rsp)
	movl	%ecx, (%rsp)
	movl	%edx, %ecx
	movl	%r10d, %edx
	movl	%edi, %esi
	movl	%eax, %edi
	call	arc_write
	mov	%eax, %eax
	movl	%eax, -28(%rbp)
	.loc 2 988 0
	cmpl	$0, -116(%rbp)
	je	.L220
	.loc 2 989 0
	movl	-28(%rbp), %eax
	movl	%eax, %edi
	call	zio_nowait
	.loc 2 990 0
	movl	$115, -20(%rbp)
	jmp	.L221
	.align 32
.L220:
	.loc 2 992 0
	movl	-28(%rbp), %eax
	movl	%eax, %edi
	call	zio_wait
	movl	%eax, -20(%rbp)
	.loc 2 993 0
	cmpl	$0, -20(%rbp)
	je	.L221
	movl	$__PRETTY_FUNCTION__.12415, %ecx
	movl	$993, %edx
	movl	$.LC44, %esi
	movl	$.LC68, %edi
	call	__assert_fail
	.align 32
.L221:
	.loc 2 995 0
	movl	-20(%rbp), %ebx
	.align 32
.L200:
	movq	8(%rbp), %rsi
	movl	$dmu_sync, %edi
	call	__cyg_profile_func_exit
	movl	%ebx, %eax
	.loc 2 996 0
	naclaspq	$200, %r15
	popq	%rbx
	popq	%r11
	naclrestbp	%r11d, %r15
	popq	%r11
	nacljmp	%r11d,%r15
	.cfi_endproc
.LFE23:
	.size	dmu_sync, .-dmu_sync
	.align 32
.globl dmu_object_set_blocksize
	.type	dmu_object_set_blocksize, @function
dmu_object_set_blocksize:
.LFB24:
	.loc 2 1001 0
	.cfi_startproc
	pushq	%rbp
.LCFI42:
	.cfi_def_cfa_offset 16
	movq	%rsp, %rbp
	.cfi_offset 6, -16
.LCFI43:
	.cfi_def_cfa_register 6
	pushq	%rbx
	naclsspq	$56, %r15
	movl	%edi, -36(%rbp)
	movq	%rsi, -48(%rbp)
	movq	%rdx, -56(%rbp)
	movl	%ecx, -60(%rbp)
	movl	%r8d, -64(%rbp)
	.loc 2 1001 0
	movq	8(%rbp), %rsi
	movl	$dmu_object_set_blocksize, %edi
	.cfi_offset 3, -24
	call	__cyg_profile_func_enter
	.loc 2 1005 0
	mov	-36(%rbp), %eax
	mov	%nacl:(%r15,%rax), %ebx
	leal	-24(%rbp), %edx
	movq	-48(%rbp), %rax
	movl	%edx, %ecx
	movl	$__func__.12566, %edx
	movq	%rax, %rsi
	movl	%ebx, %edi
	call	dnode_hold
	movl	%eax, -20(%rbp)
	.loc 2 1006 0
	cmpl	$0, -20(%rbp)
	je	.L224
	.loc 2 1007 0
	movl	-20(%rbp), %ebx
	jmp	.L225
	.align 32
.L224:
	.loc 2 1008 0
	mov	-24(%rbp), %ebx
	movl	-64(%rbp), %ecx
	movl	-60(%rbp), %edx
	movq	-56(%rbp), %rax
	movq	%rax, %rsi
	movl	%ebx, %edi
	call	dnode_set_blksz
	movl	%eax, -20(%rbp)
	.loc 2 1009 0
	mov	-24(%rbp), %eax
	movl	$__func__.12566, %esi
	movl	%eax, %edi
	call	dnode_rele
	.loc 2 1010 0
	movl	-20(%rbp), %ebx
	.align 32
.L225:
	movq	8(%rbp), %rsi
	movl	$dmu_object_set_blocksize, %edi
	call	__cyg_profile_func_exit
	movl	%ebx, %eax
	.loc 2 1011 0
	naclaspq	$56, %r15
	popq	%rbx
	popq	%r11
	naclrestbp	%r11d, %r15
	popq	%r11
	nacljmp	%r11d,%r15
	.cfi_endproc
.LFE24:
	.size	dmu_object_set_blocksize, .-dmu_object_set_blocksize
	.section	.rodata
	.align 8
.LC69:
	.string	"checksum < ZIO_CHECKSUM_FUNCTIONS"
	.text
	.align 32
.globl dmu_object_set_checksum
	.type	dmu_object_set_checksum, @function
dmu_object_set_checksum:
.LFB25:
	.loc 2 1016 0
	.cfi_startproc
	pushq	%rbp
.LCFI44:
	.cfi_def_cfa_offset 16
	movq	%rsp, %rbp
	.cfi_offset 6, -16
.LCFI45:
	.cfi_def_cfa_register 6
	pushq	%rbx
	naclsspq	$56, %r15
	movl	%edi, -36(%rbp)
	movq	%rsi, -48(%rbp)
	movl	%edx, %eax
	movl	%ecx, -56(%rbp)
	movb	%al, -52(%rbp)
	.loc 2 1016 0
	movq	8(%rbp), %rsi
	movl	$dmu_object_set_checksum, %edi
	.cfi_offset 3, -24
	call	__cyg_profile_func_enter
	.loc 2 1020 0
	mov	-36(%rbp), %eax
	mov	%nacl:(%r15,%rax), %ebx
	leal	-20(%rbp), %edx
	movq	-48(%rbp), %rax
	movl	%edx, %ecx
	movl	$__func__.12582, %edx
	movq	%rax, %rsi
	movl	%ebx, %edi
	call	dnode_hold
	.loc 2 1021 0
	cmpb	$8, -52(%rbp)
	jbe	.L228
	movl	$__PRETTY_FUNCTION__.12583, %ecx
	movl	$1021, %edx
	movl	$.LC44, %esi
	movl	$.LC69, %edi
	call	__assert_fail
	.align 32
.L228:
	.loc 2 1022 0
	mov	-20(%rbp), %eax
	movzbl	-52(%rbp), %edx
	movb	%dl, %nacl:144(%r15,%rax)
	.loc 2 1023 0
	mov	-20(%rbp), %edx
	movl	-56(%rbp), %eax
	movl	%eax, %esi
	movl	%edx, %edi
	call	dnode_setdirty
	.loc 2 1024 0
	mov	-20(%rbp), %eax
	movl	$__func__.12582, %esi
	movl	%eax, %edi
	call	dnode_rele
	movq	8(%rbp), %rsi
	movl	$dmu_object_set_checksum, %edi
	call	__cyg_profile_func_exit
	.loc 2 1025 0
	naclaspq	$56, %r15
	popq	%rbx
	popq	%r11
	naclrestbp	%r11d, %r15
	popq	%r11
	nacljmp	%r11d,%r15
	.cfi_endproc
.LFE25:
	.size	dmu_object_set_checksum, .-dmu_object_set_checksum
	.section	.rodata
	.align 8
.LC70:
	.string	"compress < ZIO_COMPRESS_FUNCTIONS"
	.text
	.align 32
.globl dmu_object_set_compress
	.type	dmu_object_set_compress, @function
dmu_object_set_compress:
.LFB26:
	.loc 2 1030 0
	.cfi_startproc
	pushq	%rbp
.LCFI46:
	.cfi_def_cfa_offset 16
	movq	%rsp, %rbp
	.cfi_offset 6, -16
.LCFI47:
	.cfi_def_cfa_register 6
	pushq	%rbx
	naclsspq	$56, %r15
	movl	%edi, -36(%rbp)
	movq	%rsi, -48(%rbp)
	movl	%edx, %eax
	movl	%ecx, -56(%rbp)
	movb	%al, -52(%rbp)
	.loc 2 1030 0
	movq	8(%rbp), %rsi
	movl	$dmu_object_set_compress, %edi
	.cfi_offset 3, -24
	call	__cyg_profile_func_enter
	.loc 2 1034 0
	mov	-36(%rbp), %eax
	mov	%nacl:(%r15,%rax), %ebx
	leal	-20(%rbp), %edx
	movq	-48(%rbp), %rax
	movl	%edx, %ecx
	movl	$__func__.12597, %edx
	movq	%rax, %rsi
	movl	%ebx, %edi
	call	dnode_hold
	.loc 2 1035 0
	cmpb	$13, -52(%rbp)
	jbe	.L231
	movl	$__PRETTY_FUNCTION__.12598, %ecx
	movl	$1035, %edx
	movl	$.LC44, %esi
	movl	$.LC70, %edi
	call	__assert_fail
	.align 32
.L231:
	.loc 2 1036 0
	mov	-20(%rbp), %eax
	movzbl	-52(%rbp), %edx
	movb	%dl, %nacl:145(%r15,%rax)
	.loc 2 1037 0
	mov	-20(%rbp), %edx
	movl	-56(%rbp), %eax
	movl	%eax, %esi
	movl	%edx, %edi
	call	dnode_setdirty
	.loc 2 1038 0
	mov	-20(%rbp), %eax
	movl	$__func__.12597, %esi
	movl	%eax, %edi
	call	dnode_rele
	movq	8(%rbp), %rsi
	movl	$dmu_object_set_compress, %edi
	call	__cyg_profile_func_exit
	.loc 2 1039 0
	naclaspq	$56, %r15
	popq	%rbx
	popq	%r11
	naclrestbp	%r11d, %r15
	popq	%r11
	nacljmp	%r11d,%r15
	.cfi_endproc
.LFE26:
	.size	dmu_object_set_compress, .-dmu_object_set_compress
	.align 32
.globl dmu_offset_next
	.type	dmu_offset_next, @function
dmu_offset_next:
.LFB27:
	.loc 2 1043 0
	.cfi_startproc
	pushq	%rbp
.LCFI48:
	.cfi_def_cfa_offset 16
	movq	%rsp, %rbp
	.cfi_offset 6, -16
.LCFI49:
	.cfi_def_cfa_register 6
	pushq	%rbx
	naclsspq	$56, %r15
	movl	%edi, -36(%rbp)
	movq	%rsi, -48(%rbp)
	movl	%edx, -52(%rbp)
	movl	%ecx, -56(%rbp)
	.loc 2 1043 0
	movq	8(%rbp), %rsi
	movl	$dmu_offset_next, %edi
	.cfi_offset 3, -24
	call	__cyg_profile_func_enter
	.loc 2 1047 0
	mov	-36(%rbp), %eax
	mov	%nacl:(%r15,%rax), %ebx
	leal	-28(%rbp), %edx
	movq	-48(%rbp), %rax
	movl	%edx, %ecx
	movl	$__func__.12614, %edx
	movq	%rax, %rsi
	movl	%ebx, %edi
	call	dnode_hold
	movl	%eax, -20(%rbp)
	.loc 2 1048 0
	cmpl	$0, -20(%rbp)
	je	.L234
	.loc 2 1049 0
	movl	-20(%rbp), %ebx
	jmp	.L235
	.align 32
.L234:
	.loc 2 1054 0
	movl	$0, -24(%rbp)
	jmp	.L236
	.align 32
.L239:
	.loc 2 1055 0
	mov	-28(%rbp), %eax
	addl	$200, %eax
	mov	%eax, %eax
	movl	-24(%rbp), %edx
	sall	$3, %edx
	leal	(%rdx,%rax), %eax
	mov	%eax, %eax
	movl	%eax, %edi
	call	list_link_active
	testl	%eax, %eax
	jne	.L242
	.align 32
.L237:
	.loc 2 1054 0
	addl	$1, -24(%rbp)
	.align 32
.L236:
	cmpl	$3, -24(%rbp)
	jle	.L239
	jmp	.L238
	.align 32
.L242:
	.loc 2 1056 0
	nop
	.align 32
.L238:
	.loc 2 1058 0
	cmpl	$4, -24(%rbp)
	je	.L240
	.loc 2 1059 0
	mov	-28(%rbp), %eax
	movl	$__func__.12614, %esi
	movl	%eax, %edi
	call	dnode_rele
	.loc 2 1060 0
	movl	-36(%rbp), %eax
	movl	%eax, %edi
	call	dmu_objset_pool
	mov	%eax, %eax
	movl	$0, %esi
	movl	%eax, %edi
	call	txg_wait_synced
	.loc 2 1061 0
	mov	-36(%rbp), %eax
	mov	%nacl:(%r15,%rax), %ebx
	leal	-28(%rbp), %edx
	movq	-48(%rbp), %rax
	movl	%edx, %ecx
	movl	$__func__.12614, %edx
	movq	%rax, %rsi
	movl	%ebx, %edi
	call	dnode_hold
	movl	%eax, -20(%rbp)
	.loc 2 1062 0
	cmpl	$0, -20(%rbp)
	je	.L240
	.loc 2 1063 0
	movl	-20(%rbp), %ebx
	jmp	.L235
	.align 32
.L240:
	.loc 2 1066 0
	cmpl	$0, -52(%rbp)
	setne	%al
	movzbl	%al, %eax
	mov	-28(%rbp), %ebx
	movl	-56(%rbp), %edx
	movl	$0, %r9d
	movl	$1, %r8d
	movl	$1, %ecx
	movl	%eax, %esi
	movl	%ebx, %edi
	call	dnode_next_offset
	movl	%eax, -20(%rbp)
	.loc 2 1067 0
	mov	-28(%rbp), %eax
	movl	$__func__.12614, %esi
	movl	%eax, %edi
	call	dnode_rele
	.loc 2 1069 0
	movl	-20(%rbp), %ebx
	.align 32
.L235:
	movq	8(%rbp), %rsi
	movl	$dmu_offset_next, %edi
	call	__cyg_profile_func_exit
	movl	%ebx, %eax
	.loc 2 1070 0
	naclaspq	$56, %r15
	popq	%rbx
	popq	%r11
	naclrestbp	%r11d, %r15
	popq	%r11
	nacljmp	%r11d,%r15
	.cfi_endproc
.LFE27:
	.size	dmu_offset_next, .-dmu_offset_next
	.align 32
.globl dmu_object_info_from_dnode
	.type	dmu_object_info_from_dnode, @function
dmu_object_info_from_dnode:
.LFB28:
	.loc 2 1074 0
	.cfi_startproc
	pushq	%rbp
.LCFI50:
	.cfi_def_cfa_offset 16
	movq	%rsp, %rbp
	.cfi_offset 6, -16
.LCFI51:
	.cfi_def_cfa_register 6
	pushq	%rbx
	naclsspq	$24, %r15
	movl	%edi, -20(%rbp)
	movl	%esi, -24(%rbp)
	.loc 2 1074 0
	movq	8(%rbp), %rsi
	movl	$dmu_object_info_from_dnode, %edi
	.cfi_offset 3, -24
	call	__cyg_profile_func_enter
	.loc 2 1075 0
	mov	-20(%rbp), %eax
	movl	$0, %esi
	movl	%eax, %edi
	call	rw_enter
	.loc 2 1076 0
	movl	-20(%rbp), %eax
	addl	$232, %eax
	mov	%eax, %eax
	movl	%eax, %edi
	call	mutex_enter
	.loc 2 1078 0
	mov	-20(%rbp), %eax
	movl	%nacl:152(%r15,%rax), %edx
	mov	-24(%rbp), %eax
	movl	%edx, %nacl:(%r15,%rax)
	.loc 2 1079 0
	mov	-20(%rbp), %eax
	movzbl	%nacl:147(%r15,%rax), %eax
	testb	%al, %al
	je	.L244
	.loc 2 1080 0
	mov	-20(%rbp), %eax
	movzbl	%nacl:147(%r15,%rax), %eax
	movzbl	%al, %eax
	movl	$1, %edx
	movq	%rdx, %rbx
	movl	%eax, %ecx
	salq	%cl, %rbx
	movq	%rbx, %rax
	jmp	.L245
	.align 32
.L244:
	.loc 2 1079 0
	movl	$0, %eax
	.align 32
.L245:
	mov	-24(%rbp), %edx
	movl	%eax, %nacl:4(%r15,%rdx)
	.loc 2 1081 0
	mov	-20(%rbp), %eax
	movzbl	%nacl:146(%r15,%rax), %edx
	mov	-24(%rbp), %eax
	movb	%dl, %nacl:24(%r15,%rax)
	.loc 2 1082 0
	mov	-20(%rbp), %eax
	movzbl	%nacl:144(%r15,%rax), %edx
	mov	-24(%rbp), %eax
	movb	%dl, %nacl:25(%r15,%rax)
	.loc 2 1083 0
	mov	-20(%rbp), %eax
	movzbl	%nacl:145(%r15,%rax), %edx
	mov	-24(%rbp), %eax
	movb	%dl, %nacl:26(%r15,%rax)
	.loc 2 1084 0
	mov	-20(%rbp), %eax
	mov	%nacl:132(%r15,%rax), %eax
	movzbl	%nacl:7(%r15,%rax), %eax
	movzbl	%al, %eax
	andl	$1, %eax
	testb	%al, %al
	je	.L246
	mov	-20(%rbp), %eax
	mov	%nacl:132(%r15,%rax), %eax
	movq	%nacl:24(%r15,%rax), %rax
	addq	$256, %rax
	shrq	$9, %rax
	jmp	.L247
	.align 32
.L246:
	mov	-20(%rbp), %eax
	mov	%nacl:132(%r15,%rax), %eax
	movq	%nacl:24(%r15,%rax), %rax
	salq	$9, %rax
	addq	$256, %rax
	shrq	$9, %rax
	.align 32
.L247:
	mov	-24(%rbp), %edx
	movq	%rax, %nacl:32(%r15,%rdx)
	.loc 2 1086 0
	mov	-20(%rbp), %eax
	mov	%nacl:132(%r15,%rax), %eax
	movq	%nacl:16(%r15,%rax), %rdx
	mov	-24(%rbp), %eax
	movq	%rdx, %nacl:40(%r15,%rax)
	.loc 2 1087 0
	mov	-20(%rbp), %eax
	movl	%nacl:136(%r15,%rax), %edx
	mov	-24(%rbp), %eax
	movl	%edx, %nacl:16(%r15,%rax)
	.loc 2 1088 0
	mov	-20(%rbp), %eax
	movzwl	%nacl:140(%r15,%rax), %eax
	movzwl	%ax, %edx
	mov	-24(%rbp), %eax
	movq	%rdx, %nacl:8(%r15,%rax)
	.loc 2 1089 0
	mov	-20(%rbp), %eax
	movzbl	%nacl:142(%r15,%rax), %eax
	movzbl	%al, %edx
	mov	-24(%rbp), %eax
	movl	%edx, %nacl:20(%r15,%rax)
	.loc 2 1091 0
	movl	-20(%rbp), %eax
	addl	$232, %eax
	mov	%eax, %eax
	movl	%eax, %edi
	call	mutex_exit
	.loc 2 1092 0
	mov	-20(%rbp), %eax
	movl	%eax, %edi
	call	rw_exit
	movq	8(%rbp), %rsi
	movl	$dmu_object_info_from_dnode, %edi
	call	__cyg_profile_func_exit
	.loc 2 1093 0
	naclaspq	$24, %r15
	popq	%rbx
	popq	%r11
	naclrestbp	%r11d, %r15
	popq	%r11
	nacljmp	%r11d,%r15
	.cfi_endproc
.LFE28:
	.size	dmu_object_info_from_dnode, .-dmu_object_info_from_dnode
	.align 32
.globl dmu_object_info
	.type	dmu_object_info, @function
dmu_object_info:
.LFB29:
	.loc 2 1101 0
	.cfi_startproc
	pushq	%rbp
.LCFI52:
	.cfi_def_cfa_offset 16
	movq	%rsp, %rbp
	.cfi_offset 6, -16
.LCFI53:
	.cfi_def_cfa_register 6
	pushq	%rbx
	naclsspq	$56, %r15
	movl	%edi, -36(%rbp)
	movq	%rsi, -48(%rbp)
	movl	%edx, -52(%rbp)
	.loc 2 1101 0
	movq	8(%rbp), %rsi
	movl	$dmu_object_info, %edi
	.cfi_offset 3, -24
	call	__cyg_profile_func_enter
	.loc 2 1103 0
	mov	-36(%rbp), %eax
	mov	%nacl:(%r15,%rax), %ebx
	leal	-24(%rbp), %edx
	movq	-48(%rbp), %rax
	movl	%edx, %ecx
	movl	$__func__.12693, %edx
	movq	%rax, %rsi
	movl	%ebx, %edi
	call	dnode_hold
	movl	%eax, -20(%rbp)
	.loc 2 1105 0
	cmpl	$0, -20(%rbp)
	je	.L250
	.loc 2 1106 0
	movl	-20(%rbp), %ebx
	jmp	.L251
	.align 32
.L250:
	.loc 2 1108 0
	cmpl	$0, -52(%rbp)
	je	.L252
	.loc 2 1109 0
	mov	-24(%rbp), %edx
	movl	-52(%rbp), %eax
	movl	%eax, %esi
	movl	%edx, %edi
	call	dmu_object_info_from_dnode
	.align 32
.L252:
	.loc 2 1111 0
	mov	-24(%rbp), %eax
	movl	$__func__.12693, %esi
	movl	%eax, %edi
	call	dnode_rele
	.loc 2 1112 0
	movl	$0, %ebx
	.align 32
.L251:
	movq	8(%rbp), %rsi
	movl	$dmu_object_info, %edi
	call	__cyg_profile_func_exit
	movl	%ebx, %eax
	.loc 2 1113 0
	naclaspq	$56, %r15
	popq	%rbx
	popq	%r11
	naclrestbp	%r11d, %r15
	popq	%r11
	nacljmp	%r11d,%r15
	.cfi_endproc
.LFE29:
	.size	dmu_object_info, .-dmu_object_info
	.align 32
.globl dmu_object_info_from_db
	.type	dmu_object_info_from_db, @function
dmu_object_info_from_db:
.LFB30:
	.loc 2 1120 0
	.cfi_startproc
	pushq	%rbp
.LCFI54:
	.cfi_def_cfa_offset 16
	movq	%rsp, %rbp
	.cfi_offset 6, -16
.LCFI55:
	.cfi_def_cfa_register 6
	naclsspq	$16, %r15
	movl	%edi, -4(%rbp)
	movl	%esi, -8(%rbp)
	.loc 2 1120 0
	movq	8(%rbp), %rsi
	movl	$dmu_object_info_from_db, %edi
	call	__cyg_profile_func_enter
	.loc 2 1121 0
	mov	-4(%rbp), %eax
	mov	%nacl:36(%r15,%rax), %edx
	movl	-8(%rbp), %eax
	movl	%eax, %esi
	movl	%edx, %edi
	call	dmu_object_info_from_dnode
	movq	8(%rbp), %rsi
	movl	$dmu_object_info_from_db, %edi
	call	__cyg_profile_func_exit
	.loc 2 1122 0
	movq	%rbp, %rsp
	popq	%r11
	naclrestbp	%r11d, %r15
	popq	%r11
	nacljmp	%r11d,%r15
	.cfi_endproc
.LFE30:
	.size	dmu_object_info_from_db, .-dmu_object_info_from_db
	.align 32
.globl dmu_object_size_from_db
	.type	dmu_object_size_from_db, @function
dmu_object_size_from_db:
.LFB31:
	.loc 2 1130 0
	.cfi_startproc
	pushq	%rbp
.LCFI56:
	.cfi_def_cfa_offset 16
	movq	%rsp, %rbp
	.cfi_offset 6, -16
.LCFI57:
	.cfi_def_cfa_register 6
	naclsspq	$32, %r15
	movl	%edi, -20(%rbp)
	movl	%esi, -24(%rbp)
	movl	%edx, -28(%rbp)
	.loc 2 1130 0
	movq	8(%rbp), %rsi
	movl	$dmu_object_size_from_db, %edi
	call	__cyg_profile_func_enter
	.loc 2 1131 0
	mov	-20(%rbp), %eax
	movl	%nacl:36(%r15,%rax), %eax
	movl	%eax, -4(%rbp)
	.loc 2 1133 0
	mov	-4(%rbp), %eax
	movl	%nacl:152(%r15,%rax), %edx
	mov	-24(%rbp), %eax
	movl	%edx, %nacl:(%r15,%rax)
	.loc 2 1135 0
	mov	-4(%rbp), %eax
	mov	%nacl:132(%r15,%rax), %eax
	movzbl	%nacl:7(%r15,%rax), %eax
	movzbl	%al, %eax
	andl	$1, %eax
	testb	%al, %al
	je	.L257
	mov	-4(%rbp), %eax
	mov	%nacl:132(%r15,%rax), %eax
	movq	%nacl:24(%r15,%rax), %rax
	addq	$256, %rax
	shrq	$9, %rax
	addq	$1, %rax
	jmp	.L258
	.align 32
.L257:
	mov	-4(%rbp), %eax
	mov	%nacl:132(%r15,%rax), %eax
	movq	%nacl:24(%r15,%rax), %rax
	salq	$9, %rax
	addq	$256, %rax
	shrq	$9, %rax
	addq	$1, %rax
	.align 32
.L258:
	mov	-28(%rbp), %edx
	movq	%rax, %nacl:(%r15,%rdx)
	movq	8(%rbp), %rsi
	movl	$dmu_object_size_from_db, %edi
	call	__cyg_profile_func_exit
	.loc 2 1137 0
	movq	%rbp, %rsp
	popq	%r11
	naclrestbp	%r11d, %r15
	popq	%r11
	nacljmp	%r11d,%r15
	.cfi_endproc
.LFE31:
	.size	dmu_object_size_from_db, .-dmu_object_size_from_db
	.section	.rodata
.LC71:
	.string	"(size & 7) == 0"
	.text
	.align 32
.globl byteswap_uint64_array
	.type	byteswap_uint64_array, @function
byteswap_uint64_array:
.LFB32:
	.loc 2 1141 0
	.cfi_startproc
	pushq	%rbp
.LCFI58:
	.cfi_def_cfa_offset 16
	movq	%rsp, %rbp
	.cfi_offset 6, -16
.LCFI59:
	.cfi_def_cfa_register 6
	pushq	%rbx
	naclsspq	$40, %r15
	movl	%edi, -36(%rbp)
	movl	%esi, -40(%rbp)
	.loc 2 1141 0
	movq	8(%rbp), %rsi
	movl	$byteswap_uint64_array, %edi
	.cfi_offset 3, -24
	call	__cyg_profile_func_enter
	.loc 2 1142 0
	movl	-36(%rbp), %eax
	movl	%eax, -28(%rbp)
	.loc 2 1143 0
	movl	-40(%rbp), %eax
	shrl	$3, %eax
	movl	%eax, -24(%rbp)
	.loc 2 1146 0
	movl	-40(%rbp), %eax
	andl	$7, %eax
	testl	%eax, %eax
	je	.L261
	movl	$__PRETTY_FUNCTION__.12742, %ecx
	movl	$1146, %edx
	movl	$.LC44, %esi
	movl	$.LC71, %edi
	call	__assert_fail
	.align 32
.L261:
	.loc 2 1148 0
	movl	$0, -20(%rbp)
	jmp	.L262
	.align 32
.L263:
	.loc 2 1149 0
	movl	-20(%rbp), %eax
	sall	$3, %eax
	addl	-28(%rbp), %eax
	mov	%eax, %eax
	movl	-20(%rbp), %edx
	sall	$3, %edx
	addl	-28(%rbp), %edx
	mov	%edx, %edx
	movq	%nacl:(%r15,%rdx), %rdx
	salq	$8, %rdx
	movzwq	%dx,%rcx
	movl	-20(%rbp), %edx
	sall	$3, %edx
	addl	-28(%rbp), %edx
	mov	%edx, %edx
	movq	%nacl:(%r15,%rdx), %rdx
	shrq	$8, %rdx
	andl	$255, %edx
	orq	%rcx, %rdx
	movq	%rdx, %rcx
	salq	$16, %rcx
	movl	-20(%rbp), %edx
	sall	$3, %edx
	addl	-28(%rbp), %edx
	mov	%edx, %edx
	movq	%nacl:(%r15,%rdx), %rdx
	shrq	$16, %rdx
	salq	$8, %rdx
	movzwq	%dx,%rbx
	movl	-20(%rbp), %edx
	sall	$3, %edx
	addl	-28(%rbp), %edx
	mov	%edx, %edx
	movq	%nacl:(%r15,%rdx), %rdx
	shrq	$24, %rdx
	andl	$255, %edx
	orq	%rbx, %rdx
	orq	%rcx, %rdx
	movq	%rdx, %rcx
	salq	$32, %rcx
	movl	-20(%rbp), %edx
	sall	$3, %edx
	addl	-28(%rbp), %edx
	mov	%edx, %edx
	movq	%nacl:(%r15,%rdx), %rdx
	shrq	$32, %rdx
	salq	$8, %rdx
	movzwq	%dx,%rbx
	movl	-20(%rbp), %edx
	sall	$3, %edx
	addl	-28(%rbp), %edx
	mov	%edx, %edx
	movq	%nacl:(%r15,%rdx), %rdx
	shrq	$40, %rdx
	andl	$255, %edx
	orq	%rbx, %rdx
	movq	%rdx, %rbx
	salq	$16, %rbx
	movl	-20(%rbp), %edx
	sall	$3, %edx
	addl	-28(%rbp), %edx
	mov	%edx, %edx
	movq	%nacl:(%r15,%rdx), %rdx
	shrq	$48, %rdx
	salq	$8, %rdx
	movzwq	%dx,%rsi
	movl	-20(%rbp), %edx
	sall	$3, %edx
	addl	-28(%rbp), %edx
	mov	%edx, %edx
	movq	%nacl:(%r15,%rdx), %rdx
	shrq	$56, %rdx
	orq	%rsi, %rdx
	orq	%rbx, %rdx
	orq	%rcx, %rdx
	movq	%rdx, %nacl:(%r15,%rax)
	.loc 2 1148 0
	addl	$1, -20(%rbp)
	.align 32
.L262:
	movl	-20(%rbp), %eax
	cmpl	-24(%rbp), %eax
	jb	.L263
	movq	8(%rbp), %rsi
	movl	$byteswap_uint64_array, %edi
	call	__cyg_profile_func_exit
	.loc 2 1150 0
	naclaspq	$40, %r15
	popq	%rbx
	popq	%r11
	naclrestbp	%r11d, %r15
	popq	%r11
	nacljmp	%r11d,%r15
	.cfi_endproc
.LFE32:
	.size	byteswap_uint64_array, .-byteswap_uint64_array
	.section	.rodata
.LC72:
	.string	"(size & 3) == 0"
	.text
	.align 32
.globl byteswap_uint32_array
	.type	byteswap_uint32_array, @function
byteswap_uint32_array:
.LFB33:
	.loc 2 1154 0
	.cfi_startproc
	pushq	%rbp
.LCFI60:
	.cfi_def_cfa_offset 16
	movq	%rsp, %rbp
	.cfi_offset 6, -16
.LCFI61:
	.cfi_def_cfa_register 6
	pushq	%rbx
	naclsspq	$40, %r15
	movl	%edi, -36(%rbp)
	movl	%esi, -40(%rbp)
	.loc 2 1154 0
	movq	8(%rbp), %rsi
	movl	$byteswap_uint32_array, %edi
	.cfi_offset 3, -24
	call	__cyg_profile_func_enter
	.loc 2 1155 0
	movl	-36(%rbp), %eax
	movl	%eax, -28(%rbp)
	.loc 2 1156 0
	movl	-40(%rbp), %eax
	shrl	$2, %eax
	movl	%eax, -24(%rbp)
	.loc 2 1159 0
	movl	-40(%rbp), %eax
	andl	$3, %eax
	testl	%eax, %eax
	je	.L266
	movl	$__PRETTY_FUNCTION__.12820, %ecx
	movl	$1159, %edx
	movl	$.LC44, %esi
	movl	$.LC72, %edi
	call	__assert_fail
	.align 32
.L266:
	.loc 2 1161 0
	movl	$0, -20(%rbp)
	jmp	.L267
	.align 32
.L268:
	.loc 2 1162 0
	movl	-20(%rbp), %eax
	sall	$2, %eax
	addl	-28(%rbp), %eax
	mov	%eax, %eax
	movl	-20(%rbp), %edx
	sall	$2, %edx
	addl	-28(%rbp), %edx
	mov	%edx, %edx
	movl	%nacl:(%r15,%rdx), %edx
	sall	$8, %edx
	movzwl	%dx,%ecx
	movl	-20(%rbp), %edx
	sall	$2, %edx
	addl	-28(%rbp), %edx
	mov	%edx, %edx
	movl	%nacl:(%r15,%rdx), %edx
	shrl	$8, %edx
	andl	$255, %edx
	orl	%ecx, %edx
	movl	%edx, %ecx
	sall	$16, %ecx
	movl	-20(%rbp), %edx
	sall	$2, %edx
	addl	-28(%rbp), %edx
	mov	%edx, %edx
	movl	%nacl:(%r15,%rdx), %edx
	shrl	$16, %edx
	sall	$8, %edx
	movzwl	%dx,%ebx
	movl	-20(%rbp), %edx
	sall	$2, %edx
	addl	-28(%rbp), %edx
	mov	%edx, %edx
	movl	%nacl:(%r15,%rdx), %edx
	shrl	$24, %edx
	orl	%ebx, %edx
	orl	%ecx, %edx
	movl	%edx, %nacl:(%r15,%rax)
	.loc 2 1161 0
	addl	$1, -20(%rbp)
	.align 32
.L267:
	movl	-20(%rbp), %eax
	cmpl	-24(%rbp), %eax
	jb	.L268
	movq	8(%rbp), %rsi
	movl	$byteswap_uint32_array, %edi
	call	__cyg_profile_func_exit
	.loc 2 1163 0
	naclaspq	$40, %r15
	popq	%rbx
	popq	%r11
	naclrestbp	%r11d, %r15
	popq	%r11
	nacljmp	%r11d,%r15
	.cfi_endproc
.LFE33:
	.size	byteswap_uint32_array, .-byteswap_uint32_array
	.section	.rodata
.LC73:
	.string	"(size & 1) == 0"
	.text
	.align 32
.globl byteswap_uint16_array
	.type	byteswap_uint16_array, @function
byteswap_uint16_array:
.LFB34:
	.loc 2 1167 0
	.cfi_startproc
	pushq	%rbp
.LCFI62:
	.cfi_def_cfa_offset 16
	movq	%rsp, %rbp
	.cfi_offset 6, -16
.LCFI63:
	.cfi_def_cfa_register 6
	naclsspq	$32, %r15
	movl	%edi, -20(%rbp)
	movl	%esi, -24(%rbp)
	.loc 2 1167 0
	movq	8(%rbp), %rsi
	movl	$byteswap_uint16_array, %edi
	call	__cyg_profile_func_enter
	.loc 2 1168 0
	movl	-20(%rbp), %eax
	movl	%eax, -12(%rbp)
	.loc 2 1169 0
	movl	-24(%rbp), %eax
	shrl	%eax
	movl	%eax, -8(%rbp)
	.loc 2 1172 0
	movl	-24(%rbp), %eax
	andl	$1, %eax
	testl	%eax, %eax
	je	.L271
	movl	$__PRETTY_FUNCTION__.12866, %ecx
	movl	$1172, %edx
	movl	$.LC44, %esi
	movl	$.LC73, %edi
	call	__assert_fail
	.align 32
.L271:
	.loc 2 1174 0
	movl	$0, -4(%rbp)
	jmp	.L272
	.align 32
.L273:
	.loc 2 1175 0
	movl	-4(%rbp), %eax
	addl	%eax, %eax
	addl	-12(%rbp), %eax
	mov	%eax, %eax
	movl	-4(%rbp), %edx
	addl	%edx, %edx
	addl	-12(%rbp), %edx
	mov	%edx, %edx
	movzwl	%nacl:(%r15,%rdx), %edx
	movzwl	%dx, %edx
	sall	$8, %edx
	movl	%edx, %ecx
	movl	-4(%rbp), %edx
	addl	%edx, %edx
	addl	-12(%rbp), %edx
	mov	%edx, %edx
	movzwl	%nacl:(%r15,%rdx), %edx
	shrw	$8, %dx
	orl	%ecx, %edx
	movw	%dx, %nacl:(%r15,%rax)
	.loc 2 1174 0
	addl	$1, -4(%rbp)
	.align 32
.L272:
	movl	-4(%rbp), %eax
	cmpl	-8(%rbp), %eax
	jb	.L273
	movq	8(%rbp), %rsi
	movl	$byteswap_uint16_array, %edi
	call	__cyg_profile_func_exit
	.loc 2 1176 0
	movq	%rbp, %rsp
	popq	%r11
	naclrestbp	%r11d, %r15
	popq	%r11
	nacljmp	%r11d,%r15
	.cfi_endproc
.LFE34:
	.size	byteswap_uint16_array, .-byteswap_uint16_array
	.align 32
.globl byteswap_uint8_array
	.type	byteswap_uint8_array, @function
byteswap_uint8_array:
.LFB35:
	.loc 2 1181 0
	.cfi_startproc
	pushq	%rbp
.LCFI64:
	.cfi_def_cfa_offset 16
	movq	%rsp, %rbp
	.cfi_offset 6, -16
.LCFI65:
	.cfi_def_cfa_register 6
	naclsspq	$16, %r15
	movl	%edi, -4(%rbp)
	movl	%esi, -8(%rbp)
	.loc 2 1181 0
	movq	8(%rbp), %rsi
	movl	$byteswap_uint8_array, %edi
	call	__cyg_profile_func_enter
	movq	8(%rbp), %rsi
	movl	$byteswap_uint8_array, %edi
	call	__cyg_profile_func_exit
	.loc 2 1182 0
	movq	%rbp, %rsp
	popq	%r11
	naclrestbp	%r11d, %r15
	popq	%r11
	nacljmp	%r11d,%r15
	.cfi_endproc
.LFE35:
	.size	byteswap_uint8_array, .-byteswap_uint8_array
	.align 32
.globl dmu_init
	.type	dmu_init, @function
dmu_init:
.LFB36:
	.loc 2 1186 0
	.cfi_startproc
	pushq	%rbp
.LCFI66:
	.cfi_def_cfa_offset 16
	movq	%rsp, %rbp
	.cfi_offset 6, -16
.LCFI67:
	.cfi_def_cfa_register 6
	.loc 2 1186 0
	movq	8(%rbp), %rsi
	movl	$dmu_init, %edi
	call	__cyg_profile_func_enter
	.loc 2 1187 0
	call	dbuf_init
	.loc 2 1188 0
	call	dnode_init
	movq	8(%rbp), %rsi
	movl	$dmu_init, %edi
	call	__cyg_profile_func_exit
	.loc 2 1194 0
	popq	%r11
	naclrestbp	%r11d, %r15
	popq	%r11
	nacljmp	%r11d,%r15
	.cfi_endproc
.LFE36:
	.size	dmu_init, .-dmu_init
	.align 32
.globl dmu_fini
	.type	dmu_fini, @function
dmu_fini:
.LFB37:
	.loc 2 1198 0
	.cfi_startproc
	pushq	%rbp
.LCFI68:
	.cfi_def_cfa_offset 16
	movq	%rsp, %rbp
	.cfi_offset 6, -16
.LCFI69:
	.cfi_def_cfa_register 6
	.loc 2 1198 0
	movq	8(%rbp), %rsi
	movl	$dmu_fini, %edi
	call	__cyg_profile_func_enter
	.loc 2 1203 0
	call	dnode_fini
	.loc 2 1204 0
	call	dbuf_fini
	movq	8(%rbp), %rsi
	movl	$dmu_fini, %edi
	call	__cyg_profile_func_exit
	.loc 2 1209 0
	popq	%r11
	naclrestbp	%r11d, %r15
	popq	%r11
	nacljmp	%r11d,%r15
	.cfi_endproc
.LFE37:
	.size	dmu_fini, .-dmu_fini
	.section	.rodata
	.align 16
	.type	__PRETTY_FUNCTION__.12866, @object
	.size	__PRETTY_FUNCTION__.12866, 22
__PRETTY_FUNCTION__.12866:
	.string	"byteswap_uint16_array"
	.align 16
	.type	__PRETTY_FUNCTION__.12820, @object
	.size	__PRETTY_FUNCTION__.12820, 22
__PRETTY_FUNCTION__.12820:
	.string	"byteswap_uint32_array"
	.align 16
	.type	__PRETTY_FUNCTION__.12742, @object
	.size	__PRETTY_FUNCTION__.12742, 22
__PRETTY_FUNCTION__.12742:
	.string	"byteswap_uint64_array"
	.align 16
	.type	__func__.12693, @object
	.size	__func__.12693, 16
__func__.12693:
	.string	"dmu_object_info"
	.align 16
	.type	__func__.12614, @object
	.size	__func__.12614, 16
__func__.12614:
	.string	"dmu_offset_next"
	.align 16
	.type	__func__.12597, @object
	.size	__func__.12597, 24
__func__.12597:
	.string	"dmu_object_set_compress"
	.align 16
	.type	__PRETTY_FUNCTION__.12598, @object
	.size	__PRETTY_FUNCTION__.12598, 24
__PRETTY_FUNCTION__.12598:
	.string	"dmu_object_set_compress"
	.align 16
	.type	__func__.12582, @object
	.size	__func__.12582, 24
__func__.12582:
	.string	"dmu_object_set_checksum"
	.align 16
	.type	__PRETTY_FUNCTION__.12583, @object
	.size	__PRETTY_FUNCTION__.12583, 24
__PRETTY_FUNCTION__.12583:
	.string	"dmu_object_set_checksum"
	.align 16
	.type	__func__.12566, @object
	.size	__func__.12566, 25
__func__.12566:
	.string	"dmu_object_set_blocksize"
	.type	__PRETTY_FUNCTION__.12415, @object
	.size	__PRETTY_FUNCTION__.12415, 9
__PRETTY_FUNCTION__.12415:
	.string	"dmu_sync"
	.type	__func__.12416, @object
	.size	__func__.12416, 9
__func__.12416:
	.string	"dmu_sync"
	.type	__PRETTY_FUNCTION__.12362, @object
	.size	__PRETTY_FUNCTION__.12362, 14
__PRETTY_FUNCTION__.12362:
	.string	"dmu_sync_done"
	.type	__func__.12287, @object
	.size	__func__.12287, 14
__func__.12287:
	.string	"dmu_write_uio"
	.type	__PRETTY_FUNCTION__.12291, @object
	.size	__PRETTY_FUNCTION__.12291, 14
__PRETTY_FUNCTION__.12291:
	.string	"dmu_write_uio"
	.type	__func__.12236, @object
	.size	__func__.12236, 13
__func__.12236:
	.string	"dmu_read_uio"
	.type	__PRETTY_FUNCTION__.12240, @object
	.size	__PRETTY_FUNCTION__.12240, 13
__PRETTY_FUNCTION__.12240:
	.string	"dmu_read_uio"
	.type	__func__.12167, @object
	.size	__func__.12167, 10
__func__.12167:
	.string	"dmu_write"
	.type	__PRETTY_FUNCTION__.12168, @object
	.size	__PRETTY_FUNCTION__.12168, 10
__PRETTY_FUNCTION__.12168:
	.string	"dmu_write"
	.type	__func__.12088, @object
	.size	__func__.12088, 9
__func__.12088:
	.string	"dmu_read"
	.type	__PRETTY_FUNCTION__.12095, @object
	.size	__PRETTY_FUNCTION__.12095, 9
__PRETTY_FUNCTION__.12095:
	.string	"dmu_read"
	.type	__func__.12060, @object
	.size	__func__.12060, 15
__func__.12060:
	.string	"dmu_free_range"
	.type	__PRETTY_FUNCTION__.12061, @object
	.size	__PRETTY_FUNCTION__.12061, 15
__PRETTY_FUNCTION__.12061:
	.string	"dmu_free_range"
	.align 16
	.type	__func__.12028, @object
	.size	__func__.12028, 16
__func__.12028:
	.string	"dmu_free_object"
	.align 16
	.type	__func__.12012, @object
	.size	__func__.12012, 20
__func__.12012:
	.string	"dmu_free_long_range"
	.align 16
	.type	__PRETTY_FUNCTION__.11953, @object
	.size	__PRETTY_FUNCTION__.11953, 25
__PRETTY_FUNCTION__.11953:
	.string	"dmu_free_long_range_impl"
	.type	__PRETTY_FUNCTION__.11864, @object
	.size	__PRETTY_FUNCTION__.11864, 15
__PRETTY_FUNCTION__.11864:
	.string	"get_next_chunk"
	.type	__func__.11794, @object
	.size	__func__.11794, 13
__func__.11794:
	.string	"dmu_prefetch"
	.align 16
	.type	__func__.11736, @object
	.size	__func__.11736, 19
__func__.11736:
	.string	"dmu_buf_hold_array"
	.align 16
	.type	__PRETTY_FUNCTION__.11607, @object
	.size	__PRETTY_FUNCTION__.11607, 28
__PRETTY_FUNCTION__.11607:
	.string	"dmu_buf_hold_array_by_dnode"
	.type	__func__.11545, @object
	.size	__func__.11545, 15
__func__.11545:
	.string	"dmu_bonus_hold"
	.type	__PRETTY_FUNCTION__.11546, @object
	.size	__PRETTY_FUNCTION__.11546, 15
__PRETTY_FUNCTION__.11546:
	.string	"dmu_bonus_hold"
	.type	__func__.11493, @object
	.size	__func__.11493, 13
__func__.11493:
	.string	"dmu_buf_hold"
	.text
.Letext0:
	.section	.note.GNU-stack,"",@progbits
