	.file	"zio.c"
	.text
.Ltext0:
.globl __cyg_profile_func_enter
	.section	.rodata
	.align 8
.LC0:
	.string	"Error: clock_gettime(CLOCK_MONOTONIC) failed\n"
	.align 8
.LC1:
	.string	"Make sure you are are running kernel 2.6.x and have glibc 2.3.3 or newer installed\n"
.LC2:
	.string	"Aborting...\n"
.globl __cyg_profile_func_exit
	.text
	.align 32
	.type	gethrtime, @function
gethrtime:
.LFB0:
	.file 1 "../../lib/libsolcompat/include/sys/time.h"
	.loc 1 48 0
	.cfi_startproc
	pushq	%rbp
.LCFI0:
	.cfi_def_cfa_offset 16
	movq	%rsp, %rbp
	.cfi_offset 6, -16
.LCFI1:
	.cfi_def_cfa_register 6
	pushq	%rbx
	naclsspq	$24, %r15
	.loc 1 48 0
	movq	8(%rbp), %rsi
	movl	$gethrtime, %edi
	.cfi_offset 3, -24
	call	__cyg_profile_func_enter
	.loc 1 51 0
	leal	-32(%rbp), %eax
	movl	%eax, %esi
	movl	$1, %edi
	call	clock_gettime
	testl	%eax, %eax
	je	.L2
	.loc 1 52 0
	mov	stderr(%rip), %eax
	movq	%rax, %rdx
	movl	$.LC0, %eax
	mov	%eax, %eax
	movl	%edx, %ecx
	movl	$45, %edx
	movl	$1, %esi
	movl	%eax, %edi
	call	fwrite
	.loc 1 53 0
	mov	stderr(%rip), %eax
	movq	%rax, %rdx
	movl	$.LC1, %eax
	mov	%eax, %eax
	movl	%edx, %ecx
	movl	$83, %edx
	movl	$1, %esi
	movl	%eax, %edi
	call	fwrite
	.loc 1 54 0
	mov	stderr(%rip), %eax
	movq	%rax, %rdx
	movl	$.LC2, %eax
	mov	%eax, %eax
	movl	%edx, %ecx
	movl	$12, %edx
	movl	$1, %esi
	movl	%eax, %edi
	call	fwrite
	.loc 1 55 0
	call	abort
	.align 32
.L2:
	.loc 1 58 0
	movq	-32(%rbp), %rax
	imulq	$1000000000, %rax, %rdx
	movl	-24(%rbp), %eax
	cltq
	leaq	(%rdx,%rax), %rax
	movq	%rax, %rbx
	movq	8(%rbp), %rsi
	movl	$gethrtime, %edi
	call	__cyg_profile_func_exit
	movq	%rbx, %rax
	.loc 1 59 0
	naclaspq	$24, %r15
	popq	%rbx
	popq	%r11
	naclrestbp	%r11d, %r15
	popq	%r11
	nacljmp	%r11d,%r15
	.cfi_endproc
.LFE0:
	.size	gethrtime, .-gethrtime
.globl zio_priority_table
	.data
	.type	zio_priority_table, @object
	.size	zio_priority_table, 10
zio_priority_table:
	.byte	0
	.byte	0
	.byte	0
	.byte	6
	.byte	4
	.byte	4
	.byte	0
	.byte	0
	.byte	10
	.byte	20
.globl zio_type_name
	.section	.rodata
.LC3:
	.string	"null"
.LC4:
	.string	"read"
.LC5:
	.string	"write"
.LC6:
	.string	"free"
.LC7:
	.string	"claim"
.LC8:
	.string	"ioctl"
	.data
	.align 16
	.type	zio_type_name, @object
	.size	zio_type_name, 24
zio_type_name:
	.long	.LC3
	.long	.LC4
	.long	.LC5
	.long	.LC6
	.long	.LC7
	.long	.LC8
.globl zio_zil_fail_shift
	.bss
	.align 2
	.type	zio_zil_fail_shift, @object
	.size	zio_zil_fail_shift, 2
zio_zil_fail_shift:
	.zero	2
.globl zio_io_fail_shift
	.align 2
	.type	zio_io_fail_shift, @object
	.size	zio_io_fail_shift, 2
zio_io_fail_shift:
	.zero	2
.globl zio_write_retry
	.data
	.align 4
	.type	zio_write_retry, @object
	.size	zio_write_retry, 4
zio_write_retry:
	.long	1
	.comm	zio_taskq,4,4
.globl zio_resume_threads
	.align 4
	.type	zio_resume_threads, @object
	.size	zio_resume_threads, 4
zio_resume_threads:
	.long	4
.globl zio_sync_pass
	.align 4
	.type	zio_sync_pass, @object
	.size	zio_sync_pass, 12
zio_sync_pass:
	.long	1
	.long	4
	.long	1
	.comm	zio_cache,4,4
	.comm	zio_buf_cache,1024,32
	.comm	zio_data_buf_cache,1024,32
	.section	.rodata
.LC9:
	.string	"zio_cache"
.LC10:
	.string	"zio_buf_%lu"
.LC11:
	.string	"zio_data_buf_%lu"
	.align 8
.LC12:
	.string	"/home/yarik/git/zfs-fuse-0.5.0/src/lib/libzpool/zio.c"
	.align 8
.LC13:
	.string	"zio_buf_cache[c] != ((void *)0)"
	.align 8
.LC14:
	.string	"zio_data_buf_cache[c] != ((void *)0)"
	.text
	.align 32
.globl zio_init
	.type	zio_init, @function
zio_init:
.LFB77:
	.file 2 "/home/yarik/git/zfs-fuse-0.5.0/src/lib/libzpool/zio.c"
	.loc 2 132 0
	.cfi_startproc
	pushq	%rbp
.LCFI2:
	.cfi_def_cfa_offset 16
	movq	%rsp, %rbp
	.cfi_offset 6, -16
.LCFI3:
	.cfi_def_cfa_register 6
	pushq	%rbx
	naclsspq	$104, %r15
	.loc 2 132 0
	movq	8(%rbp), %rsi
	movl	$zio_init, %edi
	.cfi_offset 3, -24
	call	__cyg_profile_func_enter
	.loc 2 134 0
	movl	$0, -32(%rbp)
	.loc 2 140 0
	movl	$0, 16(%rsp)
	movl	$0, 8(%rsp)
	movl	$0, (%rsp)
	movl	$0, %r9d
	movl	$0, %r8d
	movl	$0, %ecx
	movl	$0, %edx
	movl	$672, %esi
	movl	$.LC9, %edi
	call	umem_cache_create
	mov	%eax, %eax
	movl	%eax, zio_cache(%rip)
	.loc 2 149 0
	movl	$0, -36(%rbp)
	jmp	.L5
	.align 32
.L12:
.LBB2:
	.loc 2 150 0
	movl	-36(%rbp), %eax
	addl	$1, %eax
	sall	$9, %eax
	movl	%eax, -28(%rbp)
	.loc 2 151 0
	movl	-28(%rbp), %eax
	movl	%eax, -24(%rbp)
	.loc 2 152 0
	movl	$0, -20(%rbp)
	.loc 2 154 0
	jmp	.L6
	.align 32
.L7:
	.loc 2 155 0
	movl	-24(%rbp), %eax
	subl	$1, %eax
	andl	%eax, -24(%rbp)
	.align 32
.L6:
	.loc 2 154 0
	movl	-24(%rbp), %eax
	subl	$1, %eax
	andl	-24(%rbp), %eax
	testl	%eax, %eax
	jne	.L7
	.loc 2 157 0
	cmpl	$2048, -28(%rbp)
	ja	.L8
	.loc 2 158 0
	movl	$512, -20(%rbp)
	jmp	.L9
	.align 32
.L8:
	.loc 2 159 0
	movl	$30, %edi
	call	sysconf
	subl	$1, %eax
	andl	-28(%rbp), %eax
	testl	%eax, %eax
	jne	.L10
	.loc 2 160 0
	movl	$30, %edi
	call	sysconf
	movl	%eax, -20(%rbp)
	jmp	.L9
	.align 32
.L10:
	.loc 2 161 0
	movl	-24(%rbp), %eax
	shrl	$2, %eax
	subl	$1, %eax
	andl	-28(%rbp), %eax
	testl	%eax, %eax
	jne	.L9
	.loc 2 162 0
	movl	-24(%rbp), %eax
	shrl	$2, %eax
	movl	%eax, -20(%rbp)
	.align 32
.L9:
	.loc 2 165 0
	cmpl	$0, -20(%rbp)
	je	.L11
.LBB3:
	.loc 2 167 0
	movl	$.LC10, %eax
	mov	%eax, %ebx
	movl	-28(%rbp), %eax
	leal	-80(%rbp), %ecx
	movl	%eax, %edx
	movl	%ebx, %esi
	movl	%ecx, %edi
	movl	$0, %eax
	call	sprintf
	.loc 2 168 0
	movl	-36(%rbp), %ebx
	movl	-20(%rbp), %edx
	movl	-28(%rbp), %eax
	leal	-80(%rbp), %edi
	movl	$131072, 16(%rsp)
	movl	$0, 8(%rsp)
	movl	$0, (%rsp)
	movl	$0, %r9d
	movl	$0, %r8d
	movl	$0, %ecx
	movl	%eax, %esi
	call	umem_cache_create
	mov	%eax, %edx
	leal	0(,%rbx,4), %eax
	cltq
	movl	%edx, %nacl:zio_buf_cache(%r15,%rax)
	.loc 2 171 0
	movl	$.LC11, %eax
	mov	%eax, %ebx
	movl	-28(%rbp), %eax
	leal	-80(%rbp), %ecx
	movl	%eax, %edx
	movl	%ebx, %esi
	movl	%ecx, %edi
	movl	$0, %eax
	call	sprintf
	.loc 2 172 0
	movl	-36(%rbp), %ebx
	movl	-20(%rbp), %edx
	movl	-28(%rbp), %eax
	leal	-80(%rbp), %edi
	movl	$131072, 16(%rsp)
	movl	-32(%rbp), %ecx
	movl	%ecx, 8(%rsp)
	movl	$0, (%rsp)
	movl	$0, %r9d
	movl	$0, %r8d
	movl	$0, %ecx
	movl	%eax, %esi
	call	umem_cache_create
	mov	%eax, %edx
	leal	0(,%rbx,4), %eax
	cltq
	movl	%edx, %nacl:zio_data_buf_cache(%r15,%rax)
	.align 32
.L11:
.LBE3:
.LBE2:
	.loc 2 149 0
	addl	$1, -36(%rbp)
	.align 32
.L5:
	cmpl	$255, -36(%rbp)
	jbe	.L12
	.loc 2 179 0
	jmp	.L13
	.align 32
.L17:
	.loc 2 180 0
	movl	-36(%rbp), %eax
	sall	$2, %eax
	cltq
	mov	%nacl:zio_buf_cache(%r15,%rax), %eax
	testq	%rax, %rax
	jne	.L14
	movl	$__PRETTY_FUNCTION__.9273, %ecx
	movl	$180, %edx
	movl	$.LC12, %esi
	movl	$.LC13, %edi
	call	__assert_fail
	.align 32
.L14:
	.loc 2 181 0
	movl	-36(%rbp), %eax
	subl	$1, %eax
	sall	$2, %eax
	cltq
	mov	%nacl:zio_buf_cache(%r15,%rax), %eax
	testq	%rax, %rax
	jne	.L15
	.loc 2 182 0
	movl	-36(%rbp), %eax
	leal	-1(%rax), %ecx
	movl	-36(%rbp), %eax
	sall	$2, %eax
	cltq
	mov	%nacl:zio_buf_cache(%r15,%rax), %edx
	leal	0(,%rcx,4), %eax
	cltq
	movl	%edx, %nacl:zio_buf_cache(%r15,%rax)
	.align 32
.L15:
	.loc 2 184 0
	movl	-36(%rbp), %eax
	sall	$2, %eax
	cltq
	mov	%nacl:zio_data_buf_cache(%r15,%rax), %eax
	testq	%rax, %rax
	jne	.L16
	movl	$__PRETTY_FUNCTION__.9273, %ecx
	movl	$184, %edx
	movl	$.LC12, %esi
	movl	$.LC14, %edi
	call	__assert_fail
	.align 32
.L16:
	.loc 2 185 0
	movl	-36(%rbp), %eax
	subl	$1, %eax
	sall	$2, %eax
	cltq
	mov	%nacl:zio_data_buf_cache(%r15,%rax), %eax
	testq	%rax, %rax
	jne	.L13
	.loc 2 186 0
	movl	-36(%rbp), %eax
	leal	-1(%rax), %ecx
	movl	-36(%rbp), %eax
	sall	$2, %eax
	cltq
	mov	%nacl:zio_data_buf_cache(%r15,%rax), %edx
	leal	0(,%rcx,4), %eax
	cltq
	movl	%edx, %nacl:zio_data_buf_cache(%r15,%rax)
	.align 32
.L13:
	.loc 2 179 0
	subl	$1, -36(%rbp)
	cmpl	$0, -36(%rbp)
	jne	.L17
	.loc 2 192 0
	call	zio_inject_init
	movq	8(%rbp), %rsi
	movl	$zio_init, %edi
	call	__cyg_profile_func_exit
	.loc 2 193 0
	naclaspq	$104, %r15
	popq	%rbx
	popq	%r11
	naclrestbp	%r11d, %r15
	popq	%r11
	nacljmp	%r11d,%r15
	.cfi_endproc
.LFE77:
	.size	zio_init, .-zio_init
	.align 32
.globl zio_fini
	.type	zio_fini, @function
zio_fini:
.LFB78:
	.loc 2 197 0
	.cfi_startproc
	pushq	%rbp
.LCFI4:
	.cfi_def_cfa_offset 16
	movq	%rsp, %rbp
	.cfi_offset 6, -16
.LCFI5:
	.cfi_def_cfa_register 6
	naclsspq	$16, %r15
	.loc 2 197 0
	movq	8(%rbp), %rsi
	movl	$zio_fini, %edi
	call	__cyg_profile_func_enter
	.loc 2 199 0
	movl	$0, -8(%rbp)
	.loc 2 200 0
	movl	$0, -4(%rbp)
	.loc 2 202 0
	movl	$0, -12(%rbp)
	jmp	.L20
	.align 32
.L23:
	.loc 2 203 0
	movl	-12(%rbp), %eax
	sall	$2, %eax
	cltq
	mov	%nacl:zio_buf_cache(%r15,%rax), %eax
	cmpl	%eax, -8(%rbp)
	je	.L21
	.loc 2 204 0
	movl	-12(%rbp), %eax
	sall	$2, %eax
	cltq
	movl	%nacl:zio_buf_cache(%r15,%rax), %eax
	movl	%eax, -8(%rbp)
	.loc 2 205 0
	movl	-12(%rbp), %eax
	sall	$2, %eax
	cltq
	mov	%nacl:zio_buf_cache(%r15,%rax), %eax
	movl	%eax, %edi
	call	umem_cache_destroy
	.align 32
.L21:
	.loc 2 207 0
	movl	-12(%rbp), %eax
	sall	$2, %eax
	cltq
	movl	$0, %nacl:zio_buf_cache(%r15,%rax)
	.loc 2 209 0
	movl	-12(%rbp), %eax
	sall	$2, %eax
	cltq
	mov	%nacl:zio_data_buf_cache(%r15,%rax), %eax
	cmpl	%eax, -4(%rbp)
	je	.L22
	.loc 2 210 0
	movl	-12(%rbp), %eax
	sall	$2, %eax
	cltq
	movl	%nacl:zio_data_buf_cache(%r15,%rax), %eax
	movl	%eax, -4(%rbp)
	.loc 2 211 0
	movl	-12(%rbp), %eax
	sall	$2, %eax
	cltq
	mov	%nacl:zio_data_buf_cache(%r15,%rax), %eax
	movl	%eax, %edi
	call	umem_cache_destroy
	.align 32
.L22:
	.loc 2 213 0
	movl	-12(%rbp), %eax
	sall	$2, %eax
	cltq
	movl	$0, %nacl:zio_data_buf_cache(%r15,%rax)
	.loc 2 202 0
	addl	$1, -12(%rbp)
	.align 32
.L20:
	cmpl	$255, -12(%rbp)
	jbe	.L23
	.loc 2 218 0
	mov	zio_cache(%rip), %eax
	movl	%eax, %edi
	call	umem_cache_destroy
	.loc 2 220 0
	call	zio_inject_fini
	movq	8(%rbp), %rsi
	movl	$zio_fini, %edi
	call	__cyg_profile_func_exit
	.loc 2 221 0
	movq	%rbp, %rsp
	popq	%r11
	naclrestbp	%r11d, %r15
	popq	%r11
	nacljmp	%r11d,%r15
	.cfi_endproc
.LFE78:
	.size	zio_fini, .-zio_fini
	.section	.rodata
.LC15:
	.string	"c < (1ULL << 17) >> 9"
	.text
	.align 32
.globl zio_buf_alloc
	.type	zio_buf_alloc, @function
zio_buf_alloc:
.LFB79:
	.loc 2 237 0
	.cfi_startproc
	pushq	%rbp
.LCFI6:
	.cfi_def_cfa_offset 16
	movq	%rsp, %rbp
	.cfi_offset 6, -16
.LCFI7:
	.cfi_def_cfa_register 6
	pushq	%rbx
	naclsspq	$40, %r15
	movl	%edi, -36(%rbp)
	.loc 2 237 0
	movq	8(%rbp), %rsi
	movl	$zio_buf_alloc, %edi
	.cfi_offset 3, -24
	call	__cyg_profile_func_enter
	.loc 2 238 0
	movl	-36(%rbp), %eax
	subl	$1, %eax
	shrl	$9, %eax
	movl	%eax, -20(%rbp)
	.loc 2 240 0
	cmpl	$255, -20(%rbp)
	jbe	.L26
	movl	$__PRETTY_FUNCTION__.9358, %ecx
	movl	$240, %edx
	movl	$.LC12, %esi
	movl	$.LC15, %edi
	call	__assert_fail
	.align 32
.L26:
	.loc 2 242 0
	movl	-20(%rbp), %eax
	sall	$2, %eax
	cltq
	mov	%nacl:zio_buf_cache(%r15,%rax), %eax
	movl	$256, %esi
	movl	%eax, %edi
	call	umem_cache_alloc
	mov	%eax, %eax
	movq	%rax, %rbx
	movq	8(%rbp), %rsi
	movl	$zio_buf_alloc, %edi
	call	__cyg_profile_func_exit
	movl	%ebx, %eax
	.loc 2 243 0
	naclaspq	$40, %r15
	popq	%rbx
	popq	%r11
	naclrestbp	%r11d, %r15
	popq	%r11
	nacljmp	%r11d,%r15
	.cfi_endproc
.LFE79:
	.size	zio_buf_alloc, .-zio_buf_alloc
	.align 32
.globl zio_data_buf_alloc
	.type	zio_data_buf_alloc, @function
zio_data_buf_alloc:
.LFB80:
	.loc 2 253 0
	.cfi_startproc
	pushq	%rbp
.LCFI8:
	.cfi_def_cfa_offset 16
	movq	%rsp, %rbp
	.cfi_offset 6, -16
.LCFI9:
	.cfi_def_cfa_register 6
	pushq	%rbx
	naclsspq	$40, %r15
	movl	%edi, -36(%rbp)
	.loc 2 253 0
	movq	8(%rbp), %rsi
	movl	$zio_data_buf_alloc, %edi
	.cfi_offset 3, -24
	call	__cyg_profile_func_enter
	.loc 2 254 0
	movl	-36(%rbp), %eax
	subl	$1, %eax
	shrl	$9, %eax
	movl	%eax, -20(%rbp)
	.loc 2 256 0
	cmpl	$255, -20(%rbp)
	jbe	.L29
	movl	$__PRETTY_FUNCTION__.9370, %ecx
	movl	$256, %edx
	movl	$.LC12, %esi
	movl	$.LC15, %edi
	call	__assert_fail
	.align 32
.L29:
	.loc 2 258 0
	movl	-20(%rbp), %eax
	sall	$2, %eax
	cltq
	mov	%nacl:zio_data_buf_cache(%r15,%rax), %eax
	movl	$256, %esi
	movl	%eax, %edi
	call	umem_cache_alloc
	mov	%eax, %eax
	movq	%rax, %rbx
	movq	8(%rbp), %rsi
	movl	$zio_data_buf_alloc, %edi
	call	__cyg_profile_func_exit
	movl	%ebx, %eax
	.loc 2 259 0
	naclaspq	$40, %r15
	popq	%rbx
	popq	%r11
	naclrestbp	%r11d, %r15
	popq	%r11
	nacljmp	%r11d,%r15
	.cfi_endproc
.LFE80:
	.size	zio_data_buf_alloc, .-zio_data_buf_alloc
	.align 32
.globl zio_buf_free
	.type	zio_buf_free, @function
zio_buf_free:
.LFB81:
	.loc 2 263 0
	.cfi_startproc
	pushq	%rbp
.LCFI10:
	.cfi_def_cfa_offset 16
	movq	%rsp, %rbp
	.cfi_offset 6, -16
.LCFI11:
	.cfi_def_cfa_register 6
	naclsspq	$32, %r15
	movl	%edi, -20(%rbp)
	movl	%esi, -24(%rbp)
	.loc 2 263 0
	movq	8(%rbp), %rsi
	movl	$zio_buf_free, %edi
	call	__cyg_profile_func_enter
	.loc 2 264 0
	movl	-24(%rbp), %eax
	subl	$1, %eax
	shrl	$9, %eax
	movl	%eax, -4(%rbp)
	.loc 2 266 0
	cmpl	$255, -4(%rbp)
	jbe	.L32
	movl	$__PRETTY_FUNCTION__.9383, %ecx
	movl	$266, %edx
	movl	$.LC12, %esi
	movl	$.LC15, %edi
	call	__assert_fail
	.align 32
.L32:
	.loc 2 268 0
	movl	-4(%rbp), %eax
	sall	$2, %eax
	cltq
	mov	%nacl:zio_buf_cache(%r15,%rax), %edx
	movl	-20(%rbp), %eax
	movl	%eax, %esi
	movl	%edx, %edi
	call	umem_cache_free
	movq	8(%rbp), %rsi
	movl	$zio_buf_free, %edi
	call	__cyg_profile_func_exit
	.loc 2 269 0
	movq	%rbp, %rsp
	popq	%r11
	naclrestbp	%r11d, %r15
	popq	%r11
	nacljmp	%r11d,%r15
	.cfi_endproc
.LFE81:
	.size	zio_buf_free, .-zio_buf_free
	.align 32
.globl zio_data_buf_free
	.type	zio_data_buf_free, @function
zio_data_buf_free:
.LFB82:
	.loc 2 273 0
	.cfi_startproc
	pushq	%rbp
.LCFI12:
	.cfi_def_cfa_offset 16
	movq	%rsp, %rbp
	.cfi_offset 6, -16
.LCFI13:
	.cfi_def_cfa_register 6
	naclsspq	$32, %r15
	movl	%edi, -20(%rbp)
	movl	%esi, -24(%rbp)
	.loc 2 273 0
	movq	8(%rbp), %rsi
	movl	$zio_data_buf_free, %edi
	call	__cyg_profile_func_enter
	.loc 2 274 0
	movl	-24(%rbp), %eax
	subl	$1, %eax
	shrl	$9, %eax
	movl	%eax, -4(%rbp)
	.loc 2 276 0
	cmpl	$255, -4(%rbp)
	jbe	.L35
	movl	$__PRETTY_FUNCTION__.9394, %ecx
	movl	$276, %edx
	movl	$.LC12, %esi
	movl	$.LC15, %edi
	call	__assert_fail
	.align 32
.L35:
	.loc 2 278 0
	movl	-4(%rbp), %eax
	sall	$2, %eax
	cltq
	mov	%nacl:zio_data_buf_cache(%r15,%rax), %edx
	movl	-20(%rbp), %eax
	movl	%eax, %esi
	movl	%edx, %edi
	call	umem_cache_free
	movq	8(%rbp), %rsi
	movl	$zio_data_buf_free, %edi
	call	__cyg_profile_func_exit
	.loc 2 279 0
	movq	%rbp, %rsp
	popq	%r11
	naclrestbp	%r11d, %r15
	popq	%r11
	nacljmp	%r11d,%r15
	.cfi_endproc
.LFE82:
	.size	zio_data_buf_free, .-zio_data_buf_free
	.align 32
	.type	zio_push_transform, @function
zio_push_transform:
.LFB83:
	.loc 2 288 0
	.cfi_startproc
	pushq	%rbp
.LCFI14:
	.cfi_def_cfa_offset 16
	movq	%rsp, %rbp
	.cfi_offset 6, -16
.LCFI15:
	.cfi_def_cfa_register 6
	naclsspq	$48, %r15
	movl	%edi, -20(%rbp)
	movl	%esi, -24(%rbp)
	movq	%rdx, -32(%rbp)
	movq	%rcx, -40(%rbp)
	.loc 2 288 0
	movq	8(%rbp), %rsi
	movl	$zio_push_transform, %edi
	call	__cyg_profile_func_enter
	.loc 2 289 0
	movl	$256, %esi
	movl	$32, %edi
	call	umem_alloc
	mov	%eax, %eax
	movl	%eax, -4(%rbp)
	.loc 2 291 0
	mov	-4(%rbp), %eax
	movl	-24(%rbp), %edx
	movl	%edx, %nacl:(%r15,%rax)
	.loc 2 292 0
	mov	-4(%rbp), %eax
	movq	-32(%rbp), %rdx
	movq	%rdx, %nacl:8(%r15,%rax)
	.loc 2 293 0
	mov	-4(%rbp), %eax
	movq	-40(%rbp), %rdx
	movq	%rdx, %nacl:16(%r15,%rax)
	.loc 2 295 0
	mov	-20(%rbp), %eax
	mov	%nacl:220(%r15,%rax), %edx
	mov	-4(%rbp), %eax
	movl	%edx, %nacl:24(%r15,%rax)
	.loc 2 296 0
	mov	-20(%rbp), %eax
	movl	-4(%rbp), %edx
	movl	%edx, %nacl:220(%r15,%rax)
	.loc 2 298 0
	mov	-20(%rbp), %eax
	movl	-24(%rbp), %edx
	movl	%edx, %nacl:376(%r15,%rax)
	.loc 2 299 0
	mov	-20(%rbp), %eax
	movq	-32(%rbp), %rdx
	movq	%rdx, %nacl:384(%r15,%rax)
	movq	8(%rbp), %rsi
	movl	$zio_push_transform, %edi
	call	__cyg_profile_func_exit
	.loc 2 300 0
	movq	%rbp, %rsp
	popq	%r11
	naclrestbp	%r11d, %r15
	popq	%r11
	nacljmp	%r11d,%r15
	.cfi_endproc
.LFE83:
	.size	zio_push_transform, .-zio_push_transform
	.align 32
	.type	zio_pop_transform, @function
zio_pop_transform:
.LFB84:
	.loc 2 304 0
	.cfi_startproc
	pushq	%rbp
.LCFI16:
	.cfi_def_cfa_offset 16
	movq	%rsp, %rbp
	.cfi_offset 6, -16
.LCFI17:
	.cfi_def_cfa_register 6
	naclsspq	$32, %r15
	movl	%edi, -20(%rbp)
	movl	%esi, -24(%rbp)
	movl	%edx, -28(%rbp)
	movl	%ecx, -32(%rbp)
	.loc 2 304 0
	movq	8(%rbp), %rsi
	movl	$zio_pop_transform, %edi
	call	__cyg_profile_func_enter
	.loc 2 305 0
	mov	-20(%rbp), %eax
	movl	%nacl:220(%r15,%rax), %eax
	movl	%eax, -4(%rbp)
	.loc 2 307 0
	mov	-4(%rbp), %eax
	mov	%nacl:(%r15,%rax), %edx
	mov	-24(%rbp), %eax
	movl	%edx, %nacl:(%r15,%rax)
	.loc 2 308 0
	mov	-4(%rbp), %eax
	movq	%nacl:8(%r15,%rax), %rdx
	mov	-28(%rbp), %eax
	movq	%rdx, %nacl:(%r15,%rax)
	.loc 2 309 0
	mov	-4(%rbp), %eax
	movq	%nacl:16(%r15,%rax), %rdx
	mov	-32(%rbp), %eax
	movq	%rdx, %nacl:(%r15,%rax)
	.loc 2 311 0
	mov	-4(%rbp), %eax
	mov	%nacl:24(%r15,%rax), %edx
	mov	-20(%rbp), %eax
	movl	%edx, %nacl:220(%r15,%rax)
	.loc 2 312 0
	movl	-4(%rbp), %eax
	movl	$32, %esi
	movl	%eax, %edi
	call	umem_free
	.loc 2 314 0
	mov	-20(%rbp), %eax
	movl	%nacl:220(%r15,%rax), %eax
	movl	%eax, -4(%rbp)
	cmpl	$0, -4(%rbp)
	je	.L40
	.loc 2 315 0
	mov	-4(%rbp), %eax
	mov	%nacl:(%r15,%rax), %edx
	mov	-20(%rbp), %eax
	movl	%edx, %nacl:376(%r15,%rax)
	.loc 2 316 0
	mov	-4(%rbp), %eax
	movq	%nacl:8(%r15,%rax), %rdx
	mov	-20(%rbp), %eax
	movq	%rdx, %nacl:384(%r15,%rax)
	.align 32
.L40:
	movq	8(%rbp), %rsi
	movl	$zio_pop_transform, %edi
	call	__cyg_profile_func_exit
	.loc 2 318 0
	movq	%rbp, %rsp
	popq	%r11
	naclrestbp	%r11d, %r15
	popq	%r11
	nacljmp	%r11d,%r15
	.cfi_endproc
.LFE84:
	.size	zio_pop_transform, .-zio_pop_transform
	.section	.rodata
	.align 8
.LC16:
	.string	"zio->io_transform_stack != ((void *)0)"
	.text
	.align 32
	.type	zio_clear_transform_stack, @function
zio_clear_transform_stack:
.LFB85:
	.loc 2 322 0
	.cfi_startproc
	pushq	%rbp
.LCFI18:
	.cfi_def_cfa_offset 16
	movq	%rsp, %rbp
	.cfi_offset 6, -16
.LCFI19:
	.cfi_def_cfa_register 6
	pushq	%rbx
	naclsspq	$56, %r15
	movl	%edi, -52(%rbp)
	.loc 2 322 0
	movq	8(%rbp), %rsi
	movl	$zio_clear_transform_stack, %edi
	.cfi_offset 3, -24
	call	__cyg_profile_func_enter
	.loc 2 326 0
	mov	-52(%rbp), %eax
	mov	%nacl:220(%r15,%rax), %eax
	testq	%rax, %rax
	jne	.L43
	movl	$__PRETTY_FUNCTION__.9430, %ecx
	movl	$326, %edx
	movl	$.LC12, %esi
	movl	$.LC16, %edi
	call	__assert_fail
	.align 32
.L43:
	.loc 2 328 0
	leal	-40(%rbp), %ecx
	leal	-32(%rbp), %edx
	leal	-20(%rbp), %ebx
	movl	-52(%rbp), %eax
	movl	%ebx, %esi
	movl	%eax, %edi
	call	zio_pop_transform
	.loc 2 329 0
	jmp	.L44
	.align 32
.L45:
	.loc 2 330 0
	movq	-40(%rbp), %rax
	mov	-20(%rbp), %edx
	movl	%eax, %esi
	movl	%edx, %edi
	call	zio_buf_free
	.loc 2 331 0
	leal	-40(%rbp), %ecx
	leal	-32(%rbp), %edx
	leal	-20(%rbp), %ebx
	movl	-52(%rbp), %eax
	movl	%ebx, %esi
	movl	%eax, %edi
	call	zio_pop_transform
	.align 32
.L44:
	.loc 2 329 0
	mov	-52(%rbp), %eax
	mov	%nacl:220(%r15,%rax), %eax
	testq	%rax, %rax
	jne	.L45
	movq	8(%rbp), %rsi
	movl	$zio_clear_transform_stack, %edi
	call	__cyg_profile_func_exit
	.loc 2 333 0
	naclaspq	$56, %r15
	popq	%rbx
	popq	%r11
	naclrestbp	%r11d, %r15
	popq	%r11
	nacljmp	%r11d,%r15
	.cfi_endproc
.LFE85:
	.size	zio_clear_transform_stack, .-zio_clear_transform_stack
	.section	.rodata
.LC17:
	.string	"%s %s %s (0x%llx %s 0x%llx)"
.LC18:
	.string	"(1ULL << 17)"
.LC19:
	.string	"<="
.LC20:
	.string	"size"
	.align 8
.LC21:
	.string	"((size) & (((1ULL << 9)) - 1)) == 0"
.LC22:
	.string	"!(flags & 0x00008)"
	.align 8
.LC23:
	.string	"(zio->io_root->io_flags & 0x00004) || zio->io_type == ZIO_TYPE_NULL || (zio->io_root->io_flags & 0x00008)"
	.align 8
.LC24:
	.string	"zio->io_root == zio || !(zio->io_flags & 0x00008)"
	.text
	.align 32
	.type	zio_create, @function
zio_create:
.LFB86:
	.loc 2 344 0
	.cfi_startproc
	pushq	%rbp
.LCFI20:
	.cfi_def_cfa_offset 16
	movq	%rsp, %rbp
	.cfi_offset 6, -16
.LCFI21:
	.cfi_def_cfa_register 6
	pushq	%rbx
	naclsspq	$120, %r15
	movl	%edi, -52(%rbp)
	movl	%esi, -56(%rbp)
	movq	%rdx, -64(%rbp)
	movl	%ecx, -68(%rbp)
	movl	%r8d, -72(%rbp)
	movq	%r9, -80(%rbp)
	movl	56(%rbp), %eax
	movb	%al, -84(%rbp)
	.loc 2 344 0
	movq	8(%rbp), %rsi
	movl	$zio_create, %edi
	.cfi_offset 3, -24
	call	__cyg_profile_func_enter
.LBB4:
	.loc 2 347 0
	movq	-80(%rbp), %rax
	movq	%rax, -40(%rbp)
	movq	$131072, -32(%rbp)
	movq	-40(%rbp), %rax
	cmpq	-32(%rbp), %rax
	jbe	.L48
.LBB5:
	naclsspq	$272, %r15
	leal	24(%rsp), %eax
	addq	$15, %rax
	shrq	$4, %rax
	salq	$4, %rax
	mov	%eax, %eax
	movl	%eax, -20(%rbp)
	movl	$.LC17, %eax
	mov	%eax, %ebx
	movl	-20(%rbp), %eax
	movq	-32(%rbp), %rdx
	movq	%rdx, 16(%rsp)
	movl	$.LC19, 8(%rsp)
	movq	-40(%rbp), %rdx
	movq	%rdx, (%rsp)
	movl	$.LC18, %r9d
	movl	$.LC19, %r8d
	movl	$.LC20, %ecx
	movl	%ebx, %edx
	movl	$256, %esi
	movl	%eax, %edi
	movl	$0, %eax
	call	snprintf
	movl	-20(%rbp), %eax
	movl	$347, %edx
	movl	$.LC12, %esi
	movl	%eax, %edi
	call	__assert
	.align 32
.L48:
.LBE5:
.LBE4:
	.loc 2 348 0
	movq	-80(%rbp), %rax
	andl	$511, %eax
	testq	%rax, %rax
	je	.L49
	movl	$__PRETTY_FUNCTION__.9460, %ecx
	movl	$348, %edx
	movl	$.LC12, %esi
	movl	$.LC21, %edi
	call	__assert_fail
	.align 32
.L49:
	.loc 2 351 0
	movl	48(%rbp), %eax
	andl	$8, %eax
	testl	%eax, %eax
	je	.L50
	movl	$__PRETTY_FUNCTION__.9460, %ecx
	movl	$351, %edx
	movl	$.LC12, %esi
	movl	$.LC22, %edi
	call	__assert_fail
	.align 32
.L50:
	.loc 2 353 0
	mov	zio_cache(%rip), %eax
	movl	$256, %esi
	movl	%eax, %edi
	call	umem_cache_alloc
	mov	%eax, %eax
	movl	%eax, -44(%rbp)
	.loc 2 354 0
	movl	-44(%rbp), %eax
	movl	$672, %esi
	movl	%eax, %edi
	call	bzero
	.loc 2 355 0
	mov	-44(%rbp), %eax
	movl	-52(%rbp), %edx
	movl	%edx, %nacl:(%r15,%rax)
	.loc 2 356 0
	mov	-44(%rbp), %eax
	movl	-56(%rbp), %edx
	movl	%edx, %nacl:8(%r15,%rax)
	.loc 2 357 0
	mov	-44(%rbp), %eax
	movq	-64(%rbp), %rdx
	movq	%rdx, %nacl:64(%r15,%rax)
	.loc 2 358 0
	mov	-44(%rbp), %eax
	movl	48(%rbp), %edx
	movl	%edx, %nacl:484(%r15,%rax)
	.loc 2 359 0
	cmpl	$0, -68(%rbp)
	je	.L51
	.loc 2 360 0
	mov	-44(%rbp), %eax
	movl	-68(%rbp), %edx
	movl	%edx, %nacl:72(%r15,%rax)
	.loc 2 361 0
	mov	-44(%rbp), %eax
	mov	-68(%rbp), %edx
	movq	%nacl:(%r15,%rdx), %rcx
	movq	%rcx, %nacl:80(%r15,%rax)
	movq	%nacl:8(%r15,%rdx), %rcx
	movq	%rcx, %nacl:88(%r15,%rax)
	movq	%nacl:16(%r15,%rdx), %rcx
	movq	%rcx, %nacl:96(%r15,%rax)
	movq	%nacl:24(%r15,%rdx), %rcx
	movq	%rcx, %nacl:104(%r15,%rax)
	movq	%nacl:32(%r15,%rdx), %rcx
	movq	%rcx, %nacl:112(%r15,%rax)
	movq	%nacl:40(%r15,%rdx), %rcx
	movq	%rcx, %nacl:120(%r15,%rax)
	movq	%nacl:48(%r15,%rdx), %rcx
	movq	%rcx, %nacl:128(%r15,%rax)
	movq	%nacl:56(%r15,%rdx), %rcx
	movq	%rcx, %nacl:136(%r15,%rax)
	movq	%nacl:64(%r15,%rdx), %rcx
	movq	%rcx, %nacl:144(%r15,%rax)
	movq	%nacl:72(%r15,%rdx), %rcx
	movq	%rcx, %nacl:152(%r15,%rax)
	movq	%nacl:80(%r15,%rdx), %rcx
	movq	%rcx, %nacl:160(%r15,%rax)
	movq	%nacl:88(%r15,%rdx), %rcx
	movq	%rcx, %nacl:168(%r15,%rax)
	movq	%nacl:96(%r15,%rdx), %rcx
	movq	%rcx, %nacl:176(%r15,%rax)
	movq	%nacl:104(%r15,%rdx), %rcx
	movq	%rcx, %nacl:184(%r15,%rax)
	movq	%nacl:112(%r15,%rdx), %rcx
	movq	%rcx, %nacl:192(%r15,%rax)
	movq	%nacl:120(%r15,%rdx), %rdx
	movq	%rdx, %nacl:200(%r15,%rax)
	.loc 2 362 0
	mov	-44(%rbp), %eax
	mov	-68(%rbp), %edx
	movq	%nacl:(%r15,%rdx), %rcx
	movq	%rcx, %nacl:248(%r15,%rax)
	movq	%nacl:8(%r15,%rdx), %rcx
	movq	%rcx, %nacl:256(%r15,%rax)
	movq	%nacl:16(%r15,%rdx), %rcx
	movq	%rcx, %nacl:264(%r15,%rax)
	movq	%nacl:24(%r15,%rdx), %rcx
	movq	%rcx, %nacl:272(%r15,%rax)
	movq	%nacl:32(%r15,%rdx), %rcx
	movq	%rcx, %nacl:280(%r15,%rax)
	movq	%nacl:40(%r15,%rdx), %rcx
	movq	%rcx, %nacl:288(%r15,%rax)
	movq	%nacl:48(%r15,%rdx), %rcx
	movq	%rcx, %nacl:296(%r15,%rax)
	movq	%nacl:56(%r15,%rdx), %rcx
	movq	%rcx, %nacl:304(%r15,%rax)
	movq	%nacl:64(%r15,%rdx), %rcx
	movq	%rcx, %nacl:312(%r15,%rax)
	movq	%nacl:72(%r15,%rdx), %rcx
	movq	%rcx, %nacl:320(%r15,%rax)
	movq	%nacl:80(%r15,%rdx), %rcx
	movq	%rcx, %nacl:328(%r15,%rax)
	movq	%nacl:88(%r15,%rdx), %rcx
	movq	%rcx, %nacl:336(%r15,%rax)
	movq	%nacl:96(%r15,%rdx), %rcx
	movq	%rcx, %nacl:344(%r15,%rax)
	movq	%nacl:104(%r15,%rdx), %rcx
	movq	%rcx, %nacl:352(%r15,%rax)
	movq	%nacl:112(%r15,%rdx), %rcx
	movq	%rcx, %nacl:360(%r15,%rax)
	movq	%nacl:120(%r15,%rdx), %rdx
	movq	%rdx, %nacl:368(%r15,%rax)
	.align 32
.L51:
	.loc 2 364 0
	mov	-44(%rbp), %eax
	movl	16(%rbp), %edx
	movl	%edx, %nacl:240(%r15,%rax)
	.loc 2 365 0
	mov	-44(%rbp), %eax
	movl	24(%rbp), %edx
	movl	%edx, %nacl:244(%r15,%rax)
	.loc 2 366 0
	mov	-44(%rbp), %eax
	movl	32(%rbp), %edx
	movl	%edx, %nacl:492(%r15,%rax)
	.loc 2 367 0
	movl	40(%rbp), %eax
	movl	%eax, %edx
	mov	-44(%rbp), %eax
	movb	%dl, %nacl:505(%r15,%rax)
	.loc 2 368 0
	movzbl	-84(%rbp), %edx
	mov	-44(%rbp), %eax
	movl	%edx, %nacl:496(%r15,%rax)
	.loc 2 369 0
	mov	-44(%rbp), %eax
	movl	64(%rbp), %edx
	movl	%edx, %nacl:536(%r15,%rax)
	.loc 2 370 0
	call	gethrtime
	sarq	$23, %rax
	movq	%rax, %rdx
	mov	-44(%rbp), %eax
	movq	%rdx, %nacl:432(%r15,%rax)
	.loc 2 374 0
	movl	-44(%rbp), %eax
	addl	$564, %eax
	mov	%eax, %eax
	movl	%eax, %edi
	call	zmutex_init
	.loc 2 375 0
	movl	-44(%rbp), %eax
	addl	$616, %eax
	mov	%eax, %eax
	movl	$0, %ecx
	movl	$0, %edx
	movl	$0, %esi
	movl	%eax, %edi
	call	cv_init
	.loc 2 376 0
	movq	-80(%rbp), %rcx
	movq	-80(%rbp), %rdx
	movl	-72(%rbp), %ebx
	movl	-44(%rbp), %eax
	movl	%ebx, %esi
	movl	%eax, %edi
	call	zio_push_transform
	.loc 2 396 0
	cmpl	$0, -52(%rbp)
	jne	.L52
	.loc 2 397 0
	cmpl	$0, 32(%rbp)
	je	.L53
	.loc 2 398 0
	movl	48(%rbp), %eax
	andl	$4, %eax
	.loc 2 397 0
	testl	%eax, %eax
	jne	.L53
	.loc 2 399 0
	movl	-44(%rbp), %edx
	movl	-56(%rbp), %eax
	movl	$0, %esi
	movl	%eax, %edi
	call	spa_config_enter
	.loc 2 400 0
	mov	-44(%rbp), %eax
	movl	%nacl:484(%r15,%rax), %eax
	movl	%eax, %edx
	orl	$8, %edx
	mov	-44(%rbp), %eax
	movl	%edx, %nacl:484(%r15,%rax)
	.align 32
.L53:
	.loc 2 402 0
	mov	-44(%rbp), %eax
	movl	-44(%rbp), %edx
	movl	%edx, %nacl:4(%r15,%rax)
	jmp	.L54
	.align 32
.L52:
	.loc 2 404 0
	mov	-52(%rbp), %eax
	mov	%nacl:4(%r15,%rax), %edx
	mov	-44(%rbp), %eax
	movl	%edx, %nacl:4(%r15,%rax)
	.loc 2 405 0
	movl	48(%rbp), %eax
	andl	$65536, %eax
	testl	%eax, %eax
	jne	.L55
	.loc 2 406 0
	mov	-52(%rbp), %eax
	mov	%nacl:224(%r15,%rax), %edx
	mov	-44(%rbp), %eax
	movl	%edx, %nacl:224(%r15,%rax)
	.align 32
.L55:
	.loc 2 407 0
	movl	-52(%rbp), %eax
	addl	$564, %eax
	mov	%eax, %eax
	movl	%eax, %edi
	call	mutex_enter
	.loc 2 408 0
	mov	-52(%rbp), %eax
	mov	%nacl:(%r15,%rax), %eax
	testq	%rax, %rax
	jne	.L56
	.loc 2 409 0
	mov	-52(%rbp), %eax
	movl	%nacl:492(%r15,%rax), %eax
	.loc 2 408 0
	testl	%eax, %eax
	jne	.L56
	.loc 2 410 0
	mov	-52(%rbp), %eax
	movl	%nacl:484(%r15,%rax), %eax
	andl	$8, %eax
	.loc 2 408 0
	testl	%eax, %eax
	jne	.L56
	.loc 2 411 0
	mov	-52(%rbp), %eax
	movl	%nacl:484(%r15,%rax), %eax
	andl	$4, %eax
	.loc 2 408 0
	testl	%eax, %eax
	jne	.L56
	.loc 2 412 0
	mov	-52(%rbp), %eax
	movl	%nacl:484(%r15,%rax), %eax
	movl	%eax, %edx
	orl	$8, %edx
	mov	-52(%rbp), %eax
	movl	%edx, %nacl:484(%r15,%rax)
	.loc 2 413 0
	movl	-52(%rbp), %edx
	movl	-56(%rbp), %eax
	movl	$0, %esi
	movl	%eax, %edi
	call	spa_config_enter
	.align 32
.L56:
	.loc 2 415 0
	cmpb	$13, -84(%rbp)
	ja	.L57
	.loc 2 416 0
	mov	-52(%rbp), %eax
	movq	%nacl:544(%r15,%rax), %rax
	leaq	1(%rax), %rdx
	mov	-52(%rbp), %eax
	movq	%rdx, %nacl:544(%r15,%rax)
	.align 32
.L57:
	.loc 2 417 0
	mov	-52(%rbp), %eax
	movq	%nacl:552(%r15,%rax), %rax
	leaq	1(%rax), %rdx
	mov	-52(%rbp), %eax
	movq	%rdx, %nacl:552(%r15,%rax)
	.loc 2 418 0
	mov	-52(%rbp), %eax
	mov	%nacl:208(%r15,%rax), %edx
	mov	-44(%rbp), %eax
	movl	%edx, %nacl:216(%r15,%rax)
	.loc 2 419 0
	mov	-44(%rbp), %eax
	movl	$0, %nacl:212(%r15,%rax)
	.loc 2 420 0
	mov	-52(%rbp), %eax
	mov	%nacl:208(%r15,%rax), %eax
	testq	%rax, %rax
	je	.L58
	.loc 2 421 0
	mov	-52(%rbp), %eax
	mov	%nacl:208(%r15,%rax), %eax
	movl	-44(%rbp), %edx
	movl	%edx, %nacl:212(%r15,%rax)
	.align 32
.L58:
	.loc 2 422 0
	mov	-52(%rbp), %eax
	movl	-44(%rbp), %edx
	movl	%edx, %nacl:208(%r15,%rax)
	.loc 2 423 0
	mov	-52(%rbp), %eax
	movl	%nacl:56(%r15,%rax), %edx
	mov	-44(%rbp), %eax
	movl	%edx, %nacl:56(%r15,%rax)
	.loc 2 424 0
	movl	-52(%rbp), %eax
	addl	$564, %eax
	mov	%eax, %eax
	movl	%eax, %edi
	call	mutex_exit
	.align 32
.L54:
	.loc 2 430 0
	mov	-44(%rbp), %eax
	movl	%nacl:496(%r15,%rax), %edx
	mov	-44(%rbp), %eax
	movl	%edx, %nacl:500(%r15,%rax)
	.loc 2 431 0
	mov	-44(%rbp), %eax
	movl	%nacl:536(%r15,%rax), %edx
	mov	-44(%rbp), %eax
	movl	%edx, %nacl:540(%r15,%rax)
	.loc 2 432 0
	mov	-44(%rbp), %eax
	movl	%nacl:484(%r15,%rax), %edx
	mov	-44(%rbp), %eax
	movl	%edx, %nacl:488(%r15,%rax)
	.loc 2 440 0
	mov	-44(%rbp), %eax
	mov	%nacl:4(%r15,%rax), %eax
	movl	%nacl:484(%r15,%rax), %eax
	andl	$4, %eax
	testl	%eax, %eax
	jne	.L59
	mov	-44(%rbp), %eax
	movl	%nacl:492(%r15,%rax), %eax
	testl	%eax, %eax
	je	.L59
	mov	-44(%rbp), %eax
	mov	%nacl:4(%r15,%rax), %eax
	movl	%nacl:484(%r15,%rax), %eax
	andl	$8, %eax
	testl	%eax, %eax
	jne	.L59
	movl	$__PRETTY_FUNCTION__.9460, %ecx
	movl	$442, %edx
	movl	$.LC12, %esi
	movl	$.LC23, %edi
	call	__assert_fail
	.align 32
.L59:
	.loc 2 443 0
	mov	-44(%rbp), %eax
	mov	%nacl:4(%r15,%rax), %eax
	cmpl	%eax, -44(%rbp)
	je	.L60
	mov	-44(%rbp), %eax
	movl	%nacl:484(%r15,%rax), %eax
	andl	$8, %eax
	testl	%eax, %eax
	je	.L60
	movl	$__PRETTY_FUNCTION__.9460, %ecx
	movl	$444, %edx
	movl	$.LC12, %esi
	movl	$.LC24, %edi
	call	__assert_fail
	.align 32
.L60:
	.loc 2 446 0
	mov	-44(%rbp), %ebx
	movq	8(%rbp), %rsi
	movl	$zio_create, %edi
	call	__cyg_profile_func_exit
	movl	%ebx, %eax
	.loc 2 447 0
	movq	-8(%rbp), %rbx
	movq	%rbp, %rsp
	popq	%r11
	naclrestbp	%r11d, %r15
	popq	%r11
	nacljmp	%r11d,%r15
	.cfi_endproc
.LFE86:
	.size	zio_create, .-zio_create
	.align 32
	.type	zio_reset, @function
zio_reset:
.LFB87:
	.loc 2 451 0
	.cfi_startproc
	pushq	%rbp
.LCFI22:
	.cfi_def_cfa_offset 16
	movq	%rsp, %rbp
	.cfi_offset 6, -16
.LCFI23:
	.cfi_def_cfa_register 6
	pushq	%rbx
	naclsspq	$24, %r15
	movl	%edi, -20(%rbp)
	.loc 2 451 0
	movq	8(%rbp), %rsi
	movl	$zio_reset, %edi
	.cfi_offset 3, -24
	call	__cyg_profile_func_enter
	.loc 2 452 0
	movl	-20(%rbp), %eax
	movl	%eax, %edi
	call	zio_clear_transform_stack
	.loc 2 454 0
	mov	-20(%rbp), %eax
	movl	%nacl:488(%r15,%rax), %edx
	mov	-20(%rbp), %eax
	movl	%edx, %nacl:484(%r15,%rax)
	.loc 2 455 0
	mov	-20(%rbp), %eax
	movl	%nacl:500(%r15,%rax), %edx
	mov	-20(%rbp), %eax
	movl	%edx, %nacl:496(%r15,%rax)
	.loc 2 456 0
	mov	-20(%rbp), %eax
	movl	%nacl:540(%r15,%rax), %edx
	mov	-20(%rbp), %eax
	movl	%edx, %nacl:536(%r15,%rax)
	.loc 2 457 0
	mov	-20(%rbp), %eax
	movq	%nacl:384(%r15,%rax), %rcx
	mov	-20(%rbp), %eax
	movq	%nacl:384(%r15,%rax), %rdx
	mov	-20(%rbp), %eax
	mov	%nacl:376(%r15,%rax), %ebx
	movl	-20(%rbp), %eax
	movl	%ebx, %esi
	movl	%eax, %edi
	call	zio_push_transform
	movq	8(%rbp), %rsi
	movl	$zio_reset, %edi
	call	__cyg_profile_func_exit
	.loc 2 458 0
	naclaspq	$24, %r15
	popq	%rbx
	popq	%r11
	naclrestbp	%r11d, %r15
	popq	%r11
	nacljmp	%r11d,%r15
	.cfi_endproc
.LFE87:
	.size	zio_reset, .-zio_reset
	.align 32
.globl zio_null
	.type	zio_null, @function
zio_null:
.LFB88:
	.loc 2 463 0
	.cfi_startproc
	pushq	%rbp
.LCFI24:
	.cfi_def_cfa_offset 16
	movq	%rsp, %rbp
	.cfi_offset 6, -16
.LCFI25:
	.cfi_def_cfa_register 6
	pushq	%rbx
	naclsspq	$120, %r15
	movl	%edi, -36(%rbp)
	movl	%esi, -40(%rbp)
	movl	%edx, -44(%rbp)
	movl	%ecx, -48(%rbp)
	movl	%r8d, -52(%rbp)
	.loc 2 463 0
	movq	8(%rbp), %rsi
	movl	$zio_null, %edi
	.cfi_offset 3, -24
	call	__cyg_profile_func_enter
	.loc 2 467 0
	movzbl	zio_priority_table(%rip), %eax
	.loc 2 466 0
	movzbl	%al, %edx
	movl	-40(%rbp), %ebx
	movl	-36(%rbp), %eax
	movl	$12861442, 48(%rsp)
	movl	$0, 40(%rsp)
	movl	-52(%rbp), %ecx
	movl	%ecx, 32(%rsp)
	movl	%edx, 24(%rsp)
	movl	$0, 16(%rsp)
	movl	-48(%rbp), %edx
	movl	%edx, 8(%rsp)
	movl	-44(%rbp), %edx
	movl	%edx, (%rsp)
	movl	$0, %r9d
	movl	$0, %r8d
	movl	$0, %ecx
	movl	$0, %edx
	movl	%ebx, %esi
	movl	%eax, %edi
	call	zio_create
	mov	%eax, %eax
	movl	%eax, -20(%rbp)
	.loc 2 470 0
	mov	-20(%rbp), %ebx
	movq	8(%rbp), %rsi
	movl	$zio_null, %edi
	call	__cyg_profile_func_exit
	movl	%ebx, %eax
	.loc 2 471 0
	naclaspq	$120, %r15
	popq	%rbx
	popq	%r11
	naclrestbp	%r11d, %r15
	popq	%r11
	nacljmp	%r11d,%r15
	.cfi_endproc
.LFE88:
	.size	zio_null, .-zio_null
	.align 32
.globl zio_root
	.type	zio_root, @function
zio_root:
.LFB89:
	.loc 2 475 0
	.cfi_startproc
	pushq	%rbp
.LCFI26:
	.cfi_def_cfa_offset 16
	movq	%rsp, %rbp
	.cfi_offset 6, -16
.LCFI27:
	.cfi_def_cfa_register 6
	pushq	%rbx
	naclsspq	$24, %r15
	movl	%edi, -20(%rbp)
	movl	%esi, -24(%rbp)
	movl	%edx, -28(%rbp)
	movl	%ecx, -32(%rbp)
	.loc 2 475 0
	movq	8(%rbp), %rsi
	movl	$zio_root, %edi
	.cfi_offset 3, -24
	call	__cyg_profile_func_enter
	.loc 2 476 0
	movl	-32(%rbp), %ebx
	movl	-28(%rbp), %ecx
	movl	-24(%rbp), %edx
	movl	-20(%rbp), %eax
	movl	%ebx, %r8d
	movl	%eax, %esi
	movl	$0, %edi
	call	zio_null
	mov	%eax, %eax
	movq	%rax, %rbx
	movq	8(%rbp), %rsi
	movl	$zio_root, %edi
	call	__cyg_profile_func_exit
	movl	%ebx, %eax
	.loc 2 477 0
	naclaspq	$24, %r15
	popq	%rbx
	popq	%r11
	naclrestbp	%r11d, %r15
	popq	%r11
	nacljmp	%r11d,%r15
	.cfi_endproc
.LFE89:
	.size	zio_root, .-zio_root
	.section	.rodata
	.align 8
.LC25:
	.string	"(((bp)->blk_birth == 0) ? 0 : ((((((bp)->blk_prop) >> (0)) & ((1ULL << (16)) - 1)) + (1)) << (9)))"
.LC26:
	.string	"=="
	.text
	.align 32
.globl zio_read
	.type	zio_read, @function
zio_read:
.LFB90:
	.loc 2 483 0
	.cfi_startproc
	pushq	%rbp
.LCFI28:
	.cfi_def_cfa_offset 16
	movq	%rsp, %rbp
	.cfi_offset 6, -16
.LCFI29:
	.cfi_def_cfa_register 6
	pushq	%rbx
	naclsspq	$136, %r15
	movl	%edi, -52(%rbp)
	movl	%esi, -56(%rbp)
	movl	%edx, -60(%rbp)
	movl	%ecx, -64(%rbp)
	movq	%r8, -72(%rbp)
	movl	%r9d, -76(%rbp)
	.loc 2 483 0
	movq	8(%rbp), %rsi
	movl	$zio_read, %edi
	.cfi_offset 3, -24
	call	__cyg_profile_func_enter
.LBB6:
	.loc 2 486 0
	movq	-72(%rbp), %rax
	movq	%rax, -40(%rbp)
	mov	-60(%rbp), %eax
	movq	%nacl:80(%r15,%rax), %rax
	testq	%rax, %rax
	je	.L69
	mov	-60(%rbp), %eax
	movq	%nacl:48(%r15,%rax), %rax
	andl	$65535, %eax
	addq	$1, %rax
	salq	$9, %rax
	jmp	.L70
	.align 32
.L69:
	movl	$0, %eax
	.align 32
.L70:
	movq	%rax, -32(%rbp)
	movq	-40(%rbp), %rax
	cmpq	-32(%rbp), %rax
	je	.L71
.LBB7:
	naclsspq	$272, %r15
	leal	56(%rsp), %eax
	addq	$15, %rax
	shrq	$4, %rax
	salq	$4, %rax
	mov	%eax, %eax
	movl	%eax, -20(%rbp)
	movl	$.LC17, %eax
	mov	%eax, %ebx
	movl	-20(%rbp), %eax
	movq	-32(%rbp), %rdx
	movq	%rdx, 16(%rsp)
	movl	$.LC26, 8(%rsp)
	movq	-40(%rbp), %rdx
	movq	%rdx, (%rsp)
	movl	$.LC25, %r9d
	movl	$.LC26, %r8d
	movl	$.LC20, %ecx
	movl	%ebx, %edx
	movl	$256, %esi
	movl	%eax, %edi
	movl	$0, %eax
	call	snprintf
	movl	-20(%rbp), %eax
	movl	$486, %edx
	movl	$.LC12, %esi
	movl	%eax, %edi
	call	__assert
	.align 32
.L71:
.LBE7:
.LBE6:
	.loc 2 492 0
	movl	-56(%rbp), %eax
	movl	%eax, %edi
	call	spa_get_failmode
	cmpb	$1, %al
	je	.L72
	.loc 2 493 0
	mov	-56(%rbp), %eax
	movl	%nacl:92(%r15,%rax), %eax
	cmpl	$6, %eax
	jne	.L72
	movl	-56(%rbp), %eax
	addl	$1608, %eax
	mov	%eax, %eax
	movl	%eax, %edi
	call	mutex_enter
	jmp	.L73
	.align 32
.L74:
	movl	-56(%rbp), %eax
	addl	$1608, %eax
	mov	%eax, %edx
	movl	-56(%rbp), %eax
	addl	$1560, %eax
	mov	%eax, %eax
	movl	%edx, %esi
	movl	%eax, %edi
	call	cv_wait
	.align 32
.L73:
	mov	-56(%rbp), %eax
	movl	%nacl:92(%r15,%rax), %eax
	cmpl	$6, %eax
	je	.L74
	movl	-56(%rbp), %eax
	addl	$1608, %eax
	mov	%eax, %eax
	movl	%eax, %edi
	call	mutex_exit
	.align 32
.L72:
	.loc 2 495 0
	movl	32(%rbp), %eax
	movl	%eax, %esi
	orl	$131072, %esi
	mov	-60(%rbp), %eax
	movq	%nacl:80(%r15,%rax), %rdx
	movq	-72(%rbp), %r8
	movl	-64(%rbp), %edi
	movl	-60(%rbp), %ecx
	movl	-56(%rbp), %ebx
	movl	-52(%rbp), %eax
	movl	$13615110, 48(%rsp)
	movl	$0, 40(%rsp)
	movl	%esi, 32(%rsp)
	movl	24(%rbp), %esi
	movl	%esi, 24(%rsp)
	movl	$1, 16(%rsp)
	movl	16(%rbp), %esi
	movl	%esi, 8(%rsp)
	movl	-76(%rbp), %esi
	movl	%esi, (%rsp)
	movq	%r8, %r9
	movl	%edi, %r8d
	movl	%ebx, %esi
	movl	%eax, %edi
	call	zio_create
	mov	%eax, %eax
	movl	%eax, -44(%rbp)
	.loc 2 499 0
	mov	-44(%rbp), %eax
	mov	40(%rbp), %edx
	movq	%nacl:(%r15,%rdx), %rcx
	movq	%rcx, %nacl:16(%r15,%rax)
	movq	%nacl:8(%r15,%rdx), %rcx
	movq	%rcx, %nacl:24(%r15,%rax)
	movq	%nacl:16(%r15,%rdx), %rcx
	movq	%rcx, %nacl:32(%r15,%rax)
	movq	%nacl:24(%r15,%rdx), %rdx
	movq	%rdx, %nacl:40(%r15,%rax)
	.loc 2 501 0
	mov	-44(%rbp), %eax
	movl	-44(%rbp), %edx
	movl	%edx, %nacl:224(%r15,%rax)
	.loc 2 506 0
	movl	-44(%rbp), %eax
	addl	$80, %eax
	mov	%eax, %edx
	mov	-44(%rbp), %eax
	movl	%edx, %nacl:72(%r15,%rax)
	.loc 2 508 0
	mov	-44(%rbp), %ebx
	movq	8(%rbp), %rsi
	movl	$zio_read, %edi
	call	__cyg_profile_func_exit
	movl	%ebx, %eax
	.loc 2 509 0
	movq	-8(%rbp), %rbx
	movq	%rbp, %rsp
	popq	%r11
	naclrestbp	%r11d, %r15
	popq	%r11
	nacljmp	%r11d,%r15
	.cfi_endproc
.LFE90:
	.size	zio_read, .-zio_read
	.section	.rodata
	.align 8
.LC27:
	.string	"checksum >= ZIO_CHECKSUM_OFF && checksum < ZIO_CHECKSUM_FUNCTIONS"
	.align 8
.LC28:
	.string	"compress >= ZIO_COMPRESS_OFF && compress < ZIO_COMPRESS_FUNCTIONS"
	.align 8
.LC29:
	.ascii	"(((zio->io_ndvas + (((((&(bp)->blk_dva[0]))->dva_word[1]) >>"
	.ascii	" (63)) & ((1ULL << (1)) - 1)))<(spa_max_replication(spa)))?("
	.ascii	"zio->io_ndvas + (((((&(bp)->blk_dva[0]))->dva_word[1]) >> (6"
	.ascii	"3)) & ((1ULL << (1)) - 1))):(spa_max_replication(spa))) == ("
	.ascii	"!!((((((&(bp"
	.string	")->blk_dva[0])->dva_word[0]) >> (0)) & ((1ULL << (24)) - 1)) + (0)) << (9)) + !!((((((&(bp)->blk_dva[1])->dva_word[0]) >> (0)) & ((1ULL << (24)) - 1)) + (0)) << (9)) + !!((((((&(bp)->blk_dva[2])->dva_word[0]) >> (0)) & ((1ULL << (24)) - 1)) + (0)) << (9)))"
	.text
	.align 32
.globl zio_write
	.type	zio_write, @function
zio_write:
.LFB91:
	.loc 2 516 0
	.cfi_startproc
	pushq	%rbp
.LCFI30:
	.cfi_def_cfa_offset 16
	movq	%rsp, %rbp
	.cfi_offset 6, -16
.LCFI31:
	.cfi_def_cfa_register 6
	pushq	%rbx
	naclsspq	$120, %r15
	movl	%edi, -36(%rbp)
	movl	%esi, -40(%rbp)
	movl	%edx, -44(%rbp)
	movl	%ecx, -48(%rbp)
	movl	%r8d, -52(%rbp)
	movq	%r9, -64(%rbp)
	.loc 2 516 0
	movq	8(%rbp), %rsi
	movl	$zio_write, %edi
	.cfi_offset 3, -24
	call	__cyg_profile_func_enter
	.loc 2 519 0
	cmpl	$1, -44(%rbp)
	jle	.L77
	cmpl	$8, -44(%rbp)
	jle	.L78
	.align 32
.L77:
	movl	$__PRETTY_FUNCTION__.9645, %ecx
	movl	$520, %edx
	movl	$.LC12, %esi
	movl	$.LC27, %edi
	call	__assert_fail
	.align 32
.L78:
	.loc 2 522 0
	cmpl	$1, -48(%rbp)
	jle	.L79
	cmpl	$13, -48(%rbp)
	jle	.L80
	.align 32
.L79:
	movl	$__PRETTY_FUNCTION__.9645, %ecx
	movl	$523, %edx
	movl	$.LC12, %esi
	movl	$.LC28, %edi
	call	__assert_fail
	.align 32
.L80:
	.loc 2 525 0
	mov	-40(%rbp), %eax
	movl	%nacl:92(%r15,%rax), %eax
	cmpl	$6, %eax
	jne	.L81
	movl	-40(%rbp), %eax
	addl	$1608, %eax
	mov	%eax, %eax
	movl	%eax, %edi
	call	mutex_enter
	jmp	.L82
	.align 32
.L83:
	movl	-40(%rbp), %eax
	addl	$1608, %eax
	mov	%eax, %edx
	movl	-40(%rbp), %eax
	addl	$1560, %eax
	mov	%eax, %eax
	movl	%edx, %esi
	movl	%eax, %edi
	call	cv_wait
	.align 32
.L82:
	mov	-40(%rbp), %eax
	movl	%nacl:92(%r15,%rax), %eax
	cmpl	$6, %eax
	je	.L83
	movl	-40(%rbp), %eax
	addl	$1608, %eax
	mov	%eax, %eax
	movl	%eax, %edi
	call	mutex_exit
	.align 32
.L81:
	.loc 2 527 0
	movl	72(%rbp), %eax
	movl	%eax, %ecx
	orl	$131072, %ecx
	movq	32(%rbp), %rdi
	movl	24(%rbp), %esi
	movq	-64(%rbp), %rdx
	movl	-40(%rbp), %ebx
	movl	-36(%rbp), %eax
	movl	$13091898, 48(%rsp)
	movl	$0, 40(%rsp)
	movl	%ecx, 32(%rsp)
	movl	64(%rbp), %ecx
	movl	%ecx, 24(%rsp)
	movl	$2, 16(%rsp)
	movl	56(%rbp), %ecx
	movl	%ecx, 8(%rsp)
	movl	48(%rbp), %ecx
	movl	%ecx, (%rsp)
	movq	%rdi, %r9
	movl	%esi, %r8d
	movl	16(%rbp), %ecx
	movl	%ebx, %esi
	movl	%eax, %edi
	call	zio_create
	mov	%eax, %eax
	movl	%eax, -20(%rbp)
	.loc 2 531 0
	mov	-20(%rbp), %eax
	movl	40(%rbp), %edx
	movl	%edx, %nacl:236(%r15,%rax)
	.loc 2 533 0
	mov	-20(%rbp), %eax
	mov	80(%rbp), %edx
	movq	%nacl:(%r15,%rdx), %rcx
	movq	%rcx, %nacl:16(%r15,%rax)
	movq	%nacl:8(%r15,%rdx), %rcx
	movq	%rcx, %nacl:24(%r15,%rax)
	movq	%nacl:16(%r15,%rdx), %rcx
	movq	%rcx, %nacl:32(%r15,%rax)
	movq	%nacl:24(%r15,%rdx), %rdx
	movq	%rdx, %nacl:40(%r15,%rax)
	.loc 2 535 0
	mov	-20(%rbp), %eax
	movl	-20(%rbp), %edx
	movl	%edx, %nacl:224(%r15,%rax)
	.loc 2 537 0
	movl	-44(%rbp), %edx
	mov	-20(%rbp), %eax
	movl	%edx, %nacl:48(%r15,%rax)
	.loc 2 538 0
	movl	-48(%rbp), %edx
	mov	-20(%rbp), %eax
	movl	%edx, %nacl:52(%r15,%rax)
	.loc 2 539 0
	mov	-20(%rbp), %eax
	movl	-52(%rbp), %edx
	movl	%edx, %nacl:56(%r15,%rax)
	.loc 2 541 0
	mov	16(%rbp), %eax
	movq	%nacl:80(%r15,%rax), %rax
	cmpq	-64(%rbp), %rax
	je	.L84
	.loc 2 543 0
	mov	16(%rbp), %eax
	movq	$0, %nacl:(%r15,%rax)
	mov	16(%rbp), %eax
	movq	$0, %nacl:8(%r15,%rax)
	mov	16(%rbp), %eax
	movq	$0, %nacl:16(%r15,%rax)
	mov	16(%rbp), %eax
	movq	$0, %nacl:24(%r15,%rax)
	mov	16(%rbp), %eax
	movq	$0, %nacl:32(%r15,%rax)
	mov	16(%rbp), %eax
	movq	$0, %nacl:40(%r15,%rax)
	mov	16(%rbp), %eax
	movq	$0, %nacl:80(%r15,%rax)
	mov	16(%rbp), %eax
	movq	$0, %nacl:48(%r15,%rax)
	mov	16(%rbp), %eax
	movq	$0, %nacl:56(%r15,%rax)
	mov	16(%rbp), %eax
	movq	$0, %nacl:64(%r15,%rax)
	mov	16(%rbp), %eax
	movq	$0, %nacl:72(%r15,%rax)
	mov	16(%rbp), %eax
	movq	$0, %nacl:88(%r15,%rax)
	mov	16(%rbp), %eax
	movq	$0, %nacl:96(%r15,%rax)
	mov	16(%rbp), %eax
	movq	$0, %nacl:104(%r15,%rax)
	mov	16(%rbp), %eax
	movq	$0, %nacl:112(%r15,%rax)
	mov	16(%rbp), %eax
	movq	$0, %nacl:120(%r15,%rax)
	.loc 2 544 0
	mov	16(%rbp), %eax
	movq	%nacl:48(%r15,%rax), %rdx
	mov	16(%rbp), %eax
	movq	%nacl:48(%r15,%rax), %rax
	movq	32(%rbp), %rcx
	shrq	$9, %rcx
	subq	$1, %rcx
	xorq	%rcx, %rax
	andl	$65535, %eax
	xorq	%rax, %rdx
	mov	16(%rbp), %eax
	movq	%rdx, %nacl:48(%r15,%rax)
	.loc 2 545 0
	mov	16(%rbp), %eax
	movq	%nacl:48(%r15,%rax), %rdx
	mov	16(%rbp), %eax
	movq	%nacl:48(%r15,%rax), %rax
	movq	%rax, %rcx
	shrq	$16, %rcx
	movq	32(%rbp), %rax
	shrq	$9, %rax
	subq	$1, %rax
	xorq	%rcx, %rax
	salq	$16, %rax
	andl	$4294967295, %eax
	xorq	%rax, %rdx
	mov	16(%rbp), %eax
	movq	%rdx, %nacl:48(%r15,%rax)
	jmp	.L85
	.align 32
.L84:
	.loc 2 548 0
	mov	-20(%rbp), %eax
	movl	%nacl:56(%r15,%rax), %eax
	movslq	%eax,%rdx
	mov	16(%rbp), %eax
	movq	%nacl:8(%r15,%rax), %rax
	shrq	$63, %rax
	leaq	(%rdx,%rax), %rbx
	movl	-40(%rbp), %eax
	movl	%eax, %edi
	call	spa_max_replication
	cltq
	cmpq	%rax, %rbx
	jae	.L86
	mov	-20(%rbp), %eax
	movl	%nacl:56(%r15,%rax), %eax
	movslq	%eax,%rdx
	mov	16(%rbp), %eax
	movq	%nacl:8(%r15,%rax), %rax
	shrq	$63, %rax
	leaq	(%rdx,%rax), %rax
	jmp	.L87
	.align 32
.L86:
	movl	-40(%rbp), %eax
	movl	%eax, %edi
	call	spa_max_replication
	cltq
	.align 32
.L87:
	mov	16(%rbp), %edx
	movq	%nacl:(%r15,%rdx), %rdx
	andl	$16777215, %edx
	salq	$9, %rdx
	testq	%rdx, %rdx
	setne	%dl
	movzbl	%dl, %ecx
	movl	16(%rbp), %edx
	addl	$16, %edx
	mov	%edx, %edx
	movq	%nacl:(%r15,%rdx), %rdx
	andl	$16777215, %edx
	salq	$9, %rdx
	testq	%rdx, %rdx
	setne	%dl
	movzbl	%dl, %edx
	addl	%edx, %ecx
	movl	16(%rbp), %edx
	addl	$32, %edx
	mov	%edx, %edx
	movq	%nacl:(%r15,%rdx), %rdx
	andl	$16777215, %edx
	salq	$9, %rdx
	testq	%rdx, %rdx
	setne	%dl
	movzbl	%dl, %edx
	leal	(%rcx,%rdx), %edx
	movslq	%edx,%rdx
	cmpq	%rdx, %rax
	je	.L85
	movl	$__PRETTY_FUNCTION__.9645, %ecx
	movl	$549, %edx
	movl	$.LC12, %esi
	movl	$.LC29, %edi
	call	__assert_fail
	.align 32
.L85:
	.loc 2 552 0
	mov	-20(%rbp), %ebx
	movq	8(%rbp), %rsi
	movl	$zio_write, %edi
	call	__cyg_profile_func_exit
	movl	%ebx, %eax
	.loc 2 553 0
	naclaspq	$120, %r15
	popq	%rbx
	popq	%r11
	naclrestbp	%r11d, %r15
	popq	%r11
	nacljmp	%r11d,%r15
	.cfi_endproc
.LFE91:
	.size	zio_write, .-zio_write
	.section	.rodata
	.align 8
.LC30:
	.ascii	"(!!((((((&(bp"
	.string	")->blk_dva[0])->dva_word[0]) >> (0)) & ((1ULL << (24)) - 1)) + (0)) << (9)) + !!((((((&(bp)->blk_dva[1])->dva_word[0]) >> (0)) & ((1ULL << (24)) - 1)) + (0)) << (9)) + !!((((((&(bp)->blk_dva[2])->dva_word[0]) >> (0)) & ((1ULL << (24)) - 1)) + (0)) << (9)))"
.LC31:
	.string	"zio->io_ndvas"
	.text
	.align 32
.globl zio_rewrite
	.type	zio_rewrite, @function
zio_rewrite:
.LFB92:
	.loc 2 559 0
	.cfi_startproc
	pushq	%rbp
.LCFI32:
	.cfi_def_cfa_offset 16
	movq	%rsp, %rbp
	.cfi_offset 6, -16
.LCFI33:
	.cfi_def_cfa_register 6
	pushq	%rbx
	naclsspq	$136, %r15
	movl	%edi, -52(%rbp)
	movl	%esi, -56(%rbp)
	movl	%edx, -60(%rbp)
	movq	%rcx, -72(%rbp)
	movl	%r8d, -76(%rbp)
	movl	%r9d, -80(%rbp)
	.loc 2 559 0
	movq	8(%rbp), %rsi
	movl	$zio_rewrite, %edi
	.cfi_offset 3, -24
	call	__cyg_profile_func_enter
	.loc 2 564 0
	mov	-76(%rbp), %eax
	movq	%nacl:8(%r15,%rax), %rax
	.loc 2 562 0
	testq	%rax, %rax
	jns	.L90
	movl	$13099242, %eax
	jmp	.L91
	.align 32
.L90:
	movl	$13090858, %eax
	.align 32
.L91:
	movl	48(%rbp), %edx
	movl	%edx, %r8d
	orl	$131072, %r8d
	movl	-80(%rbp), %edi
	movl	-76(%rbp), %ecx
	movq	-72(%rbp), %rdx
	movl	-56(%rbp), %esi
	movl	-52(%rbp), %ebx
	movl	%eax, 48(%rsp)
	movl	$0, 40(%rsp)
	movl	%r8d, 32(%rsp)
	movl	40(%rbp), %eax
	movl	%eax, 24(%rsp)
	movl	$2, 16(%rsp)
	movl	32(%rbp), %eax
	movl	%eax, 8(%rsp)
	movl	24(%rbp), %eax
	movl	%eax, (%rsp)
	movq	16(%rbp), %r9
	movl	%edi, %r8d
	movl	%ebx, %edi
	call	zio_create
	mov	%eax, %eax
	movl	%eax, -44(%rbp)
	.loc 2 566 0
	mov	-44(%rbp), %eax
	mov	56(%rbp), %edx
	movq	%nacl:(%r15,%rdx), %rcx
	movq	%rcx, %nacl:16(%r15,%rax)
	movq	%nacl:8(%r15,%rdx), %rcx
	movq	%rcx, %nacl:24(%r15,%rax)
	movq	%nacl:16(%r15,%rdx), %rcx
	movq	%rcx, %nacl:32(%r15,%rax)
	movq	%nacl:24(%r15,%rdx), %rdx
	movq	%rdx, %nacl:40(%r15,%rax)
	.loc 2 567 0
	movl	-60(%rbp), %edx
	mov	-44(%rbp), %eax
	movl	%edx, %nacl:48(%r15,%rax)
	.loc 2 568 0
	mov	-44(%rbp), %eax
	movl	$2, %nacl:52(%r15,%rax)
	.loc 2 570 0
	cmpl	$0, -52(%rbp)
	je	.L92
.LBB8:
	.loc 2 571 0
	mov	-44(%rbp), %eax
	movl	%nacl:56(%r15,%rax), %eax
	cltq
	movq	%rax, -40(%rbp)
	mov	-76(%rbp), %eax
	movq	%nacl:(%r15,%rax), %rax
	andl	$16777215, %eax
	salq	$9, %rax
	testq	%rax, %rax
	setne	%al
	movzbl	%al, %edx
	movl	-76(%rbp), %eax
	addl	$16, %eax
	mov	%eax, %eax
	movq	%nacl:(%r15,%rax), %rax
	andl	$16777215, %eax
	salq	$9, %rax
	testq	%rax, %rax
	setne	%al
	movzbl	%al, %eax
	addl	%eax, %edx
	movl	-76(%rbp), %eax
	addl	$32, %eax
	mov	%eax, %eax
	movq	%nacl:(%r15,%rax), %rax
	andl	$16777215, %eax
	salq	$9, %rax
	testq	%rax, %rax
	setne	%al
	movzbl	%al, %eax
	leal	(%rdx,%rax), %eax
	cltq
	movq	%rax, -32(%rbp)
	movq	-40(%rbp), %rax
	cmpq	-32(%rbp), %rax
	jbe	.L92
.LBB9:
	naclsspq	$272, %r15
	leal	56(%rsp), %eax
	addq	$15, %rax
	shrq	$4, %rax
	salq	$4, %rax
	mov	%eax, %eax
	movl	%eax, -20(%rbp)
	movl	$.LC17, %eax
	mov	%eax, %ebx
	movl	-20(%rbp), %eax
	movq	-32(%rbp), %rdx
	movq	%rdx, 16(%rsp)
	movl	$.LC19, 8(%rsp)
	movq	-40(%rbp), %rdx
	movq	%rdx, (%rsp)
	movl	$.LC30, %r9d
	movl	$.LC19, %r8d
	movl	$.LC31, %ecx
	movl	%ebx, %edx
	movl	$256, %esi
	movl	%eax, %edi
	movl	$0, %eax
	call	snprintf
	movl	-20(%rbp), %eax
	movl	$571, %edx
	movl	$.LC12, %esi
	movl	%eax, %edi
	call	__assert
	.align 32
.L92:
.LBE9:
.LBE8:
	.loc 2 573 0
	mov	-44(%rbp), %ebx
	movq	8(%rbp), %rsi
	movl	$zio_rewrite, %edi
	call	__cyg_profile_func_exit
	movl	%ebx, %eax
	.loc 2 574 0
	movq	-8(%rbp), %rbx
	movq	%rbp, %rsp
	popq	%r11
	naclrestbp	%r11d, %r15
	popq	%r11
	nacljmp	%r11d,%r15
	.cfi_endproc
.LFE92:
	.size	zio_rewrite, .-zio_rewrite
	.align 32
	.type	zio_write_allocate_ready, @function
zio_write_allocate_ready:
.LFB93:
	.loc 2 578 0
	.cfi_startproc
	pushq	%rbp
.LCFI34:
	.cfi_def_cfa_offset 16
	movq	%rsp, %rbp
	.cfi_offset 6, -16
.LCFI35:
	.cfi_def_cfa_register 6
	pushq	%rbx
	naclsspq	$24, %r15
	movl	%edi, -20(%rbp)
	.loc 2 578 0
	movq	8(%rbp), %rsi
	movl	$zio_write_allocate_ready, %edi
	.cfi_offset 3, -24
	call	__cyg_profile_func_enter
	.loc 2 580 0
	mov	-20(%rbp), %eax
	movq	%nacl:328(%r15,%rax), %rax
	testq	%rax, %rax
	je	.L95
	.loc 2 581 0
	movl	-20(%rbp), %eax
	addl	$248, %eax
	mov	%eax, %ecx
	mov	-20(%rbp), %eax
	movq	%nacl:64(%r15,%rax), %rdx
	mov	-20(%rbp), %eax
	mov	%nacl:8(%r15,%rax), %ebx
	movl	-20(%rbp), %eax
	movl	$0, %r9d
	movl	$0, %r8d
	movl	%ebx, %esi
	movl	%eax, %edi
	call	zio_free
	mov	%eax, %eax
	movl	%eax, %edi
	call	zio_nowait
	.align 32
.L95:
	movq	8(%rbp), %rsi
	movl	$zio_write_allocate_ready, %edi
	call	__cyg_profile_func_exit
	.loc 2 584 0
	naclaspq	$24, %r15
	popq	%rbx
	popq	%r11
	naclrestbp	%r11d, %r15
	popq	%r11
	nacljmp	%r11d,%r15
	.cfi_endproc
.LFE93:
	.size	zio_write_allocate_ready, .-zio_write_allocate_ready
	.align 32
	.type	zio_write_allocate, @function
zio_write_allocate:
.LFB94:
	.loc 2 590 0
	.cfi_startproc
	pushq	%rbp
.LCFI36:
	.cfi_def_cfa_offset 16
	movq	%rsp, %rbp
	.cfi_offset 6, -16
.LCFI37:
	.cfi_def_cfa_register 6
	pushq	%rbx
	naclsspq	$120, %r15
	movl	%edi, -36(%rbp)
	movl	%esi, -40(%rbp)
	movl	%edx, -44(%rbp)
	movq	%rcx, -56(%rbp)
	movl	%r8d, -60(%rbp)
	movl	%r9d, -64(%rbp)
	.loc 2 590 0
	movq	8(%rbp), %rsi
	movl	$zio_write_allocate, %edi
	.cfi_offset 3, -24
	call	__cyg_profile_func_enter
	.loc 2 593 0
	mov	-60(%rbp), %eax
	movq	$0, %nacl:(%r15,%rax)
	mov	-60(%rbp), %eax
	movq	$0, %nacl:8(%r15,%rax)
	mov	-60(%rbp), %eax
	movq	$0, %nacl:16(%r15,%rax)
	mov	-60(%rbp), %eax
	movq	$0, %nacl:24(%r15,%rax)
	mov	-60(%rbp), %eax
	movq	$0, %nacl:32(%r15,%rax)
	mov	-60(%rbp), %eax
	movq	$0, %nacl:40(%r15,%rax)
	mov	-60(%rbp), %eax
	movq	$0, %nacl:80(%r15,%rax)
	mov	-60(%rbp), %eax
	movq	$0, %nacl:48(%r15,%rax)
	mov	-60(%rbp), %eax
	movq	$0, %nacl:56(%r15,%rax)
	mov	-60(%rbp), %eax
	movq	$0, %nacl:64(%r15,%rax)
	mov	-60(%rbp), %eax
	movq	$0, %nacl:72(%r15,%rax)
	mov	-60(%rbp), %eax
	movq	$0, %nacl:88(%r15,%rax)
	mov	-60(%rbp), %eax
	movq	$0, %nacl:96(%r15,%rax)
	mov	-60(%rbp), %eax
	movq	$0, %nacl:104(%r15,%rax)
	mov	-60(%rbp), %eax
	movq	$0, %nacl:112(%r15,%rax)
	mov	-60(%rbp), %eax
	movq	$0, %nacl:120(%r15,%rax)
	.loc 2 594 0
	mov	-60(%rbp), %eax
	movq	%nacl:48(%r15,%rax), %rdx
	mov	-60(%rbp), %eax
	movq	%nacl:48(%r15,%rax), %rax
	movq	16(%rbp), %rcx
	shrq	$9, %rcx
	subq	$1, %rcx
	xorq	%rcx, %rax
	andl	$65535, %eax
	xorq	%rax, %rdx
	mov	-60(%rbp), %eax
	movq	%rdx, %nacl:48(%r15,%rax)
	.loc 2 595 0
	mov	-60(%rbp), %eax
	movq	%nacl:48(%r15,%rax), %rdx
	mov	-60(%rbp), %eax
	movq	%nacl:48(%r15,%rax), %rax
	movq	%rax, %rcx
	shrq	$16, %rcx
	movq	16(%rbp), %rax
	shrq	$9, %rax
	subq	$1, %rax
	xorq	%rcx, %rax
	salq	$16, %rax
	andl	$4294967295, %eax
	xorq	%rax, %rdx
	mov	-60(%rbp), %eax
	movq	%rdx, %nacl:48(%r15,%rax)
	.loc 2 596 0
	mov	-60(%rbp), %eax
	movq	%nacl:48(%r15,%rax), %rdx
	mov	-60(%rbp), %eax
	movq	%nacl:48(%r15,%rax), %rax
	shrq	$32, %rax
	xorq	$2, %rax
	andl	$255, %eax
	salq	$32, %rax
	xorq	%rax, %rdx
	mov	-60(%rbp), %eax
	movq	%rdx, %nacl:48(%r15,%rax)
	.loc 2 598 0
	movl	-64(%rbp), %edi
	movl	-60(%rbp), %ecx
	movq	-56(%rbp), %rdx
	movl	-40(%rbp), %ebx
	movl	-36(%rbp), %eax
	movl	$13091882, 48(%rsp)
	movl	$0, 40(%rsp)
	movl	48(%rbp), %esi
	movl	%esi, 32(%rsp)
	movl	40(%rbp), %esi
	movl	%esi, 24(%rsp)
	movl	$2, 16(%rsp)
	movl	32(%rbp), %esi
	movl	%esi, 8(%rsp)
	movl	24(%rbp), %esi
	movl	%esi, (%rsp)
	movq	16(%rbp), %r9
	movl	%edi, %r8d
	movl	%ebx, %esi
	movl	%eax, %edi
	call	zio_create
	mov	%eax, %eax
	movl	%eax, -20(%rbp)
	.loc 2 602 0
	movl	-44(%rbp), %edx
	mov	-20(%rbp), %eax
	movl	%edx, %nacl:48(%r15,%rax)
	.loc 2 603 0
	mov	-20(%rbp), %eax
	movl	$2, %nacl:52(%r15,%rax)
	.loc 2 604 0
	mov	-20(%rbp), %eax
	movl	$zio_write_allocate_ready, %nacl:236(%r15,%rax)
	.loc 2 606 0
	mov	-20(%rbp), %ebx
	movq	8(%rbp), %rsi
	movl	$zio_write_allocate, %edi
	call	__cyg_profile_func_exit
	movl	%ebx, %eax
	.loc 2 607 0
	naclaspq	$120, %r15
	popq	%rbx
	popq	%r11
	naclrestbp	%r11d, %r15
	popq	%r11
	nacljmp	%r11d,%r15
	.cfi_endproc
.LFE94:
	.size	zio_write_allocate, .-zio_write_allocate
	.section	.rodata
.LC32:
	.string	"!((bp)->blk_birth == 0)"
	.text
	.align 32
.globl zio_free
	.type	zio_free, @function
zio_free:
.LFB95:
	.loc 2 612 0
	.cfi_startproc
	pushq	%rbp
.LCFI38:
	.cfi_def_cfa_offset 16
	movq	%rsp, %rbp
	.cfi_offset 6, -16
.LCFI39:
	.cfi_def_cfa_register 6
	pushq	%rbx
	naclsspq	$120, %r15
	movl	%edi, -36(%rbp)
	movl	%esi, -40(%rbp)
	movq	%rdx, -48(%rbp)
	movl	%ecx, -52(%rbp)
	movl	%r8d, -56(%rbp)
	movl	%r9d, -60(%rbp)
	.loc 2 612 0
	movq	8(%rbp), %rsi
	movl	$zio_free, %edi
	.cfi_offset 3, -24
	call	__cyg_profile_func_enter
	.loc 2 615 0
	mov	-52(%rbp), %eax
	movq	%nacl:80(%r15,%rax), %rax
	testq	%rax, %rax
	jne	.L100
	movl	$__PRETTY_FUNCTION__.9833, %ecx
	movl	$615, %edx
	movl	$.LC12, %esi
	movl	$.LC32, %edi
	call	__assert_fail
	.align 32
.L100:
	.loc 2 617 0
	mov	-40(%rbp), %eax
	movq	%nacl:368(%r15,%rax), %rax
	cmpq	-48(%rbp), %rax
	jne	.L101
	.loc 2 618 0
	mov	-40(%rbp), %eax
	movl	%nacl:88(%r15,%rax), %edx
	movl	zio_sync_pass(%rip), %eax
	.loc 2 617 0
	cmpl	%eax, %edx
	jle	.L101
	.loc 2 619 0
	movl	-40(%rbp), %eax
	addl	$384, %eax
	mov	%eax, %edx
	movl	-52(%rbp), %eax
	movl	%eax, %esi
	movl	%edx, %edi
	call	bplist_enqueue_deferred
	.loc 2 620 0
	movl	-40(%rbp), %ebx
	movl	-36(%rbp), %eax
	movl	$0, %r8d
	movl	$0, %ecx
	movl	$0, %edx
	movl	%ebx, %esi
	movl	%eax, %edi
	call	zio_null
	mov	%eax, %eax
	movq	%rax, %rbx
	jmp	.L102
	.align 32
.L101:
	.loc 2 625 0
	mov	-52(%rbp), %eax
	movq	%nacl:8(%r15,%rax), %rax
	.loc 2 623 0
	testq	%rax, %rax
	jns	.L103
	movl	$12863810, %eax
	jmp	.L104
	.align 32
.L103:
	movl	$12863490, %eax
	.align 32
.L104:
	.loc 2 624 0
	movzbl	zio_priority_table+5(%rip), %edx
	.loc 2 623 0
	movzbl	%dl, %edi
	movl	-52(%rbp), %ecx
	movq	-48(%rbp), %rdx
	movl	-40(%rbp), %esi
	movl	-36(%rbp), %ebx
	movl	%eax, 48(%rsp)
	movl	$0, 40(%rsp)
	movl	$131072, 32(%rsp)
	movl	%edi, 24(%rsp)
	movl	$3, 16(%rsp)
	movl	-60(%rbp), %eax
	movl	%eax, 8(%rsp)
	movl	-56(%rbp), %eax
	movl	%eax, (%rsp)
	movl	$0, %r9d
	movl	$0, %r8d
	movl	%ebx, %edi
	call	zio_create
	mov	%eax, %eax
	movl	%eax, -20(%rbp)
	.loc 2 627 0
	movl	-20(%rbp), %eax
	addl	$80, %eax
	mov	%eax, %edx
	mov	-20(%rbp), %eax
	movl	%edx, %nacl:72(%r15,%rax)
	.loc 2 629 0
	mov	-20(%rbp), %ebx
	.align 32
.L102:
	movq	8(%rbp), %rsi
	movl	$zio_free, %edi
	call	__cyg_profile_func_exit
	movl	%ebx, %eax
	.loc 2 630 0
	naclaspq	$120, %r15
	popq	%rbx
	popq	%r11
	naclrestbp	%r11d, %r15
	popq	%r11
	nacljmp	%r11d,%r15
	.cfi_endproc
.LFE95:
	.size	zio_free, .-zio_free
	.section	.rodata
.LC33:
	.string	"spa_first_txg(spa)"
.LC34:
	.string	"<"
	.align 8
.LC35:
	.string	"spa->spa_uberblock.ub_rootbp.blk_birth"
.LC36:
	.string	"txg"
	.text
	.align 32
.globl zio_claim
	.type	zio_claim, @function
zio_claim:
.LFB96:
	.loc 2 635 0
	.cfi_startproc
	pushq	%rbp
.LCFI40:
	.cfi_def_cfa_offset 16
	movq	%rsp, %rbp
	.cfi_offset 6, -16
.LCFI41:
	.cfi_def_cfa_register 6
	pushq	%rbx
	naclsspq	$168, %r15
	movl	%edi, -84(%rbp)
	movl	%esi, -88(%rbp)
	movq	%rdx, -96(%rbp)
	movl	%ecx, -100(%rbp)
	movl	%r8d, -104(%rbp)
	movl	%r9d, -108(%rbp)
	.loc 2 635 0
	movq	8(%rbp), %rsi
	movl	$zio_claim, %edi
	.cfi_offset 3, -24
	call	__cyg_profile_func_enter
.LBB10:
	.loc 2 649 0
	mov	-88(%rbp), %eax
	movq	%nacl:880(%r15,%rax), %rax
	movq	%rax, -64(%rbp)
	movl	-88(%rbp), %eax
	movl	%eax, %edi
	call	spa_first_txg
	movq	%rax, -56(%rbp)
	movq	-64(%rbp), %rax
	cmpq	-56(%rbp), %rax
	jb	.L107
.LBB11:
	naclsspq	$272, %r15
	leal	56(%rsp), %eax
	addq	$15, %rax
	shrq	$4, %rax
	salq	$4, %rax
	mov	%eax, %eax
	movl	%eax, -44(%rbp)
	movl	$.LC17, %eax
	mov	%eax, %ebx
	movl	-44(%rbp), %eax
	movq	-56(%rbp), %rdx
	movq	%rdx, 16(%rsp)
	movl	$.LC34, 8(%rsp)
	movq	-64(%rbp), %rdx
	movq	%rdx, (%rsp)
	movl	$.LC33, %r9d
	movl	$.LC34, %r8d
	movl	$.LC35, %ecx
	movl	%ebx, %edx
	movl	$256, %esi
	movl	%eax, %edi
	movl	$0, %eax
	call	snprintf
	movl	-44(%rbp), %eax
	movl	$649, %edx
	movl	$.LC12, %esi
	movl	%eax, %edi
	call	__assert
	.align 32
.L107:
.LBE11:
.LBE10:
.LBB12:
	.loc 2 650 0
	movl	-88(%rbp), %eax
	movl	%eax, %edi
	call	spa_first_txg
	movq	%rax, -40(%rbp)
	movq	-96(%rbp), %rax
	movq	%rax, -32(%rbp)
	movq	-40(%rbp), %rax
	cmpq	-32(%rbp), %rax
	jbe	.L108
.LBB13:
	naclsspq	$272, %r15
	leal	56(%rsp), %eax
	addq	$15, %rax
	shrq	$4, %rax
	salq	$4, %rax
	mov	%eax, %eax
	movl	%eax, -20(%rbp)
	movl	$.LC17, %eax
	mov	%eax, %ebx
	movl	-20(%rbp), %eax
	movq	-32(%rbp), %rdx
	movq	%rdx, 16(%rsp)
	movl	$.LC19, 8(%rsp)
	movq	-40(%rbp), %rdx
	movq	%rdx, (%rsp)
	movl	$.LC36, %r9d
	movl	$.LC19, %r8d
	movl	$.LC33, %ecx
	movl	%ebx, %edx
	movl	$256, %esi
	movl	%eax, %edi
	movl	$0, %eax
	call	snprintf
	movl	-20(%rbp), %eax
	movl	$650, %edx
	movl	$.LC12, %esi
	movl	%eax, %edi
	call	__assert
	.align 32
.L108:
.LBE13:
.LBE12:
	.loc 2 654 0
	mov	-100(%rbp), %eax
	movq	%nacl:8(%r15,%rax), %rax
	.loc 2 652 0
	testq	%rax, %rax
	jns	.L109
	movl	$12866114, %eax
	jmp	.L110
	.align 32
.L109:
	movl	$12865538, %eax
	.align 32
.L110:
	.loc 2 653 0
	movzbl	zio_priority_table(%rip), %edx
	.loc 2 652 0
	movzbl	%dl, %edi
	movl	-100(%rbp), %ecx
	movq	-96(%rbp), %rdx
	movl	-88(%rbp), %esi
	movl	-84(%rbp), %ebx
	movl	%eax, 48(%rsp)
	movl	$0, 40(%rsp)
	movl	$0, 32(%rsp)
	movl	%edi, 24(%rsp)
	movl	$4, 16(%rsp)
	movl	-108(%rbp), %eax
	movl	%eax, 8(%rsp)
	movl	-104(%rbp), %eax
	movl	%eax, (%rsp)
	movl	$0, %r9d
	movl	$0, %r8d
	movl	%ebx, %edi
	call	zio_create
	mov	%eax, %eax
	movl	%eax, -68(%rbp)
	.loc 2 656 0
	movl	-68(%rbp), %eax
	addl	$80, %eax
	mov	%eax, %edx
	mov	-68(%rbp), %eax
	movl	%edx, %nacl:72(%r15,%rax)
	.loc 2 658 0
	mov	-68(%rbp), %ebx
	movq	8(%rbp), %rsi
	movl	$zio_claim, %edi
	call	__cyg_profile_func_exit
	movl	%ebx, %eax
	.loc 2 659 0
	movq	-8(%rbp), %rbx
	movq	%rbp, %rsp
	popq	%r11
	naclrestbp	%r11d, %r15
	popq	%r11
	nacljmp	%r11d,%r15
	.cfi_endproc
.LFE96:
	.size	zio_claim, .-zio_claim
	.align 32
.globl zio_ioctl
	.type	zio_ioctl, @function
zio_ioctl:
.LFB97:
	.loc 2 664 0
	.cfi_startproc
	pushq	%rbp
.LCFI42:
	.cfi_def_cfa_offset 16
	movq	%rsp, %rbp
	.cfi_offset 6, -16
.LCFI43:
	.cfi_def_cfa_register 6
	pushq	%rbx
	naclsspq	$120, %r15
	movl	%edi, -36(%rbp)
	movl	%esi, -40(%rbp)
	movl	%edx, -44(%rbp)
	movl	%ecx, -48(%rbp)
	movl	%r8d, -52(%rbp)
	movl	%r9d, -56(%rbp)
	.loc 2 664 0
	movq	8(%rbp), %rsi
	movl	$zio_ioctl, %edi
	.cfi_offset 3, -24
	call	__cyg_profile_func_enter
	.loc 2 668 0
	mov	-44(%rbp), %eax
	movq	%nacl:80(%r15,%rax), %rax
	testq	%rax, %rax
	jne	.L113
	.loc 2 669 0
	movl	-40(%rbp), %ebx
	movl	-36(%rbp), %eax
	movl	$13090818, 48(%rsp)
	movl	$0, 40(%rsp)
	movl	24(%rbp), %edx
	movl	%edx, 32(%rsp)
	movl	16(%rbp), %edx
	movl	%edx, 24(%rsp)
	movl	$5, 16(%rsp)
	movl	-56(%rbp), %edx
	movl	%edx, 8(%rsp)
	movl	-52(%rbp), %edx
	movl	%edx, (%rsp)
	movl	$0, %r9d
	movl	$0, %r8d
	movl	$0, %ecx
	movl	$0, %edx
	movl	%ebx, %esi
	movl	%eax, %edi
	call	zio_create
	mov	%eax, %eax
	movl	%eax, -24(%rbp)
	.loc 2 673 0
	mov	-24(%rbp), %eax
	movl	-44(%rbp), %edx
	movl	%edx, %nacl:392(%r15,%rax)
	.loc 2 674 0
	mov	-24(%rbp), %eax
	movl	-48(%rbp), %edx
	movl	%edx, %nacl:520(%r15,%rax)
	jmp	.L114
	.align 32
.L113:
	.loc 2 676 0
	movl	24(%rbp), %edx
	movl	-40(%rbp), %ebx
	movl	-36(%rbp), %eax
	movl	%edx, %r8d
	movl	$0, %ecx
	movl	$0, %edx
	movl	%ebx, %esi
	movl	%eax, %edi
	call	zio_null
	mov	%eax, %eax
	movl	%eax, -24(%rbp)
	.loc 2 678 0
	movl	$0, -20(%rbp)
	jmp	.L115
	.align 32
.L116:
	.loc 2 679 0
	mov	-44(%rbp), %eax
	mov	%nacl:76(%r15,%rax), %eax
	movl	-20(%rbp), %edx
	sall	$2, %edx
	leal	(%rdx,%rax), %eax
	mov	%eax, %eax
	mov	%nacl:(%r15,%rax), %esi
	movl	-56(%rbp), %r8d
	movl	-52(%rbp), %edi
	movl	-48(%rbp), %edx
	movl	-40(%rbp), %ebx
	movl	-24(%rbp), %eax
	movl	24(%rbp), %ecx
	movl	%ecx, 8(%rsp)
	movl	16(%rbp), %ecx
	movl	%ecx, (%rsp)
	movl	%r8d, %r9d
	movl	%edi, %r8d
	movl	%edx, %ecx
	movl	%esi, %edx
	movl	%ebx, %esi
	movl	%eax, %edi
	call	zio_ioctl
	mov	%eax, %eax
	movl	%eax, %edi
	call	zio_nowait
	.loc 2 678 0
	addl	$1, -20(%rbp)
	.align 32
.L115:
	movl	-20(%rbp), %eax
	movslq	%eax,%rdx
	mov	-44(%rbp), %eax
	movq	%nacl:80(%r15,%rax), %rax
	cmpq	%rax, %rdx
	jb	.L116
	.align 32
.L114:
	.loc 2 683 0
	mov	-24(%rbp), %ebx
	movq	8(%rbp), %rsi
	movl	$zio_ioctl, %edi
	call	__cyg_profile_func_exit
	movl	%ebx, %eax
	.loc 2 684 0
	naclaspq	$120, %r15
	popq	%rbx
	popq	%r11
	naclrestbp	%r11d, %r15
	popq	%r11
	nacljmp	%r11d,%r15
	.cfi_endproc
.LFE97:
	.size	zio_ioctl, .-zio_ioctl
	.section	.rodata
.LC37:
	.string	"vd->vdev_children == 0"
.LC38:
	.string	"size <= (1ULL << 17)"
	.align 8
.LC39:
	.string	"((offset) & (((1ULL << 9)) - 1)) == 0"
	.align 8
.LC40:
	.string	"offset + size <= (2 * sizeof (vdev_label_t) + (7ULL << 19)) || offset >= vd->vdev_psize - (2 * sizeof (vdev_label_t))"
.LC41:
	.string	"vd->vdev_psize"
.LC42:
	.string	"offset + size"
	.text
	.align 32
	.type	zio_phys_bp_init, @function
zio_phys_bp_init:
.LFB98:
	.loc 2 689 0
	.cfi_startproc
	pushq	%rbp
.LCFI44:
	.cfi_def_cfa_offset 16
	movq	%rsp, %rbp
	.cfi_offset 6, -16
.LCFI45:
	.cfi_def_cfa_register 6
	pushq	%rbx
	naclsspq	$104, %r15
	movl	%edi, -52(%rbp)
	movl	%esi, -56(%rbp)
	movq	%rdx, -64(%rbp)
	movq	%rcx, -72(%rbp)
	movl	%r8d, -76(%rbp)
	movl	%r9d, -80(%rbp)
	.loc 2 689 0
	movq	8(%rbp), %rsi
	movl	$zio_phys_bp_init, %edi
	.cfi_offset 3, -24
	call	__cyg_profile_func_enter
	.loc 2 690 0
	mov	-52(%rbp), %eax
	movq	%nacl:80(%r15,%rax), %rax
	testq	%rax, %rax
	je	.L119
	movl	$__PRETTY_FUNCTION__.9931, %ecx
	movl	$690, %edx
	movl	$.LC12, %esi
	movl	$.LC37, %edi
	call	__assert_fail
	.align 32
.L119:
	.loc 2 692 0
	cmpq	$131072, -72(%rbp)
	jbe	.L120
	movl	$__PRETTY_FUNCTION__.9931, %ecx
	movl	$692, %edx
	movl	$.LC12, %esi
	movl	$.LC38, %edi
	call	__assert_fail
	.align 32
.L120:
	.loc 2 693 0
	movq	-72(%rbp), %rax
	andl	$511, %eax
	testq	%rax, %rax
	je	.L121
	movl	$__PRETTY_FUNCTION__.9931, %ecx
	movl	$693, %edx
	movl	$.LC12, %esi
	movl	$.LC21, %edi
	call	__assert_fail
	.align 32
.L121:
	.loc 2 694 0
	movq	-64(%rbp), %rax
	andl	$511, %eax
	testq	%rax, %rax
	je	.L122
	movl	$__PRETTY_FUNCTION__.9931, %ecx
	movl	$694, %edx
	movl	$.LC12, %esi
	movl	$.LC39, %edi
	call	__assert_fail
	.align 32
.L122:
	.loc 2 697 0
	cmpl	$0, -80(%rbp)
	je	.L123
	.loc 2 698 0
	movq	-72(%rbp), %rax
	movq	-64(%rbp), %rdx
	leaq	(%rdx,%rax), %rax
	cmpq	$4194304, %rax
	jbe	.L123
	mov	-52(%rbp), %eax
	movq	%nacl:784(%r15,%rax), %rax
	subq	$524288, %rax
	cmpq	-64(%rbp), %rax
	jbe	.L123
	movl	$__PRETTY_FUNCTION__.9931, %ecx
	movl	$699, %edx
	movl	$.LC12, %esi
	movl	$.LC40, %edi
	call	__assert_fail
	.align 32
.L123:
.LBB14:
	.loc 2 702 0
	movq	-72(%rbp), %rax
	movq	-64(%rbp), %rdx
	leaq	(%rdx,%rax), %rax
	movq	%rax, -40(%rbp)
	mov	-52(%rbp), %eax
	movq	%nacl:784(%r15,%rax), %rax
	movq	%rax, -32(%rbp)
	movq	-40(%rbp), %rax
	cmpq	-32(%rbp), %rax
	jbe	.L124
.LBB15:
	naclsspq	$272, %r15
	leal	24(%rsp), %eax
	addq	$15, %rax
	shrq	$4, %rax
	salq	$4, %rax
	mov	%eax, %eax
	movl	%eax, -20(%rbp)
	movl	$.LC17, %eax
	mov	%eax, %ebx
	movl	-20(%rbp), %eax
	movq	-32(%rbp), %rdx
	movq	%rdx, 16(%rsp)
	movl	$.LC19, 8(%rsp)
	movq	-40(%rbp), %rdx
	movq	%rdx, (%rsp)
	movl	$.LC41, %r9d
	movl	$.LC19, %r8d
	movl	$.LC42, %ecx
	movl	%ebx, %edx
	movl	$256, %esi
	movl	%eax, %edi
	movl	$0, %eax
	call	snprintf
	movl	-20(%rbp), %eax
	movl	$702, %edx
	movl	$.LC12, %esi
	movl	%eax, %edi
	call	__assert
	.align 32
.L124:
.LBE15:
.LBE14:
	.loc 2 704 0
	mov	-56(%rbp), %eax
	movq	$0, %nacl:(%r15,%rax)
	mov	-56(%rbp), %eax
	movq	$0, %nacl:8(%r15,%rax)
	mov	-56(%rbp), %eax
	movq	$0, %nacl:16(%r15,%rax)
	mov	-56(%rbp), %eax
	movq	$0, %nacl:24(%r15,%rax)
	mov	-56(%rbp), %eax
	movq	$0, %nacl:32(%r15,%rax)
	mov	-56(%rbp), %eax
	movq	$0, %nacl:40(%r15,%rax)
	mov	-56(%rbp), %eax
	movq	$0, %nacl:80(%r15,%rax)
	mov	-56(%rbp), %eax
	movq	$0, %nacl:48(%r15,%rax)
	mov	-56(%rbp), %eax
	movq	$0, %nacl:56(%r15,%rax)
	mov	-56(%rbp), %eax
	movq	$0, %nacl:64(%r15,%rax)
	mov	-56(%rbp), %eax
	movq	$0, %nacl:72(%r15,%rax)
	mov	-56(%rbp), %eax
	movq	$0, %nacl:88(%r15,%rax)
	mov	-56(%rbp), %eax
	movq	$0, %nacl:96(%r15,%rax)
	mov	-56(%rbp), %eax
	movq	$0, %nacl:104(%r15,%rax)
	mov	-56(%rbp), %eax
	movq	$0, %nacl:112(%r15,%rax)
	mov	-56(%rbp), %eax
	movq	$0, %nacl:120(%r15,%rax)
	.loc 2 706 0
	mov	-56(%rbp), %eax
	movq	%nacl:48(%r15,%rax), %rdx
	mov	-56(%rbp), %eax
	movq	%nacl:48(%r15,%rax), %rax
	movq	-72(%rbp), %rcx
	shrq	$9, %rcx
	subq	$1, %rcx
	xorq	%rcx, %rax
	andl	$65535, %eax
	xorq	%rax, %rdx
	mov	-56(%rbp), %eax
	movq	%rdx, %nacl:48(%r15,%rax)
	.loc 2 707 0
	mov	-56(%rbp), %eax
	movq	%nacl:48(%r15,%rax), %rdx
	mov	-56(%rbp), %eax
	movq	%nacl:48(%r15,%rax), %rax
	movq	%rax, %rcx
	shrq	$16, %rcx
	movq	-72(%rbp), %rax
	shrq	$9, %rax
	subq	$1, %rax
	xorq	%rcx, %rax
	salq	$16, %rax
	andl	$4294967295, %eax
	xorq	%rax, %rdx
	mov	-56(%rbp), %eax
	movq	%rdx, %nacl:48(%r15,%rax)
	.loc 2 709 0
	mov	-56(%rbp), %eax
	movq	%nacl:48(%r15,%rax), %rdx
	mov	-56(%rbp), %eax
	movq	%nacl:48(%r15,%rax), %rax
	movq	%rax, %rcx
	shrq	$40, %rcx
	movl	-76(%rbp), %eax
	cltq
	xorq	%rcx, %rax
	andl	$255, %eax
	salq	$40, %rax
	xorq	%rax, %rdx
	mov	-56(%rbp), %eax
	movq	%rdx, %nacl:48(%r15,%rax)
	.loc 2 710 0
	mov	-56(%rbp), %eax
	movq	%nacl:48(%r15,%rax), %rdx
	mov	-56(%rbp), %eax
	movq	%nacl:48(%r15,%rax), %rax
	shrq	$32, %rax
	xorq	$2, %rax
	andl	$255, %eax
	salq	$32, %rax
	xorq	%rax, %rdx
	mov	-56(%rbp), %eax
	movq	%rdx, %nacl:48(%r15,%rax)
	.loc 2 711 0
	mov	-56(%rbp), %eax
	movq	%nacl:48(%r15,%rax), %rdx
	mov	-56(%rbp), %eax
	movq	%nacl:48(%r15,%rax), %rax
	testq	%rax, %rax
	js	.L125
	movabsq	$-9223372036854775808, %rax
	jmp	.L126
	.align 32
.L125:
	movl	$0, %eax
	.align 32
.L126:
	xorq	%rax, %rdx
	mov	-56(%rbp), %eax
	movq	%rdx, %nacl:48(%r15,%rax)
	.loc 2 713 0
	cmpl	$2, -76(%rbp)
	je	.L127
	.loc 2 714 0
	mov	-56(%rbp), %eax
	movq	-64(%rbp), %rdx
	movq	%rdx, %nacl:96(%r15,%rax)
	mov	-56(%rbp), %eax
	movq	$0, %nacl:104(%r15,%rax)
	mov	-56(%rbp), %eax
	movq	$0, %nacl:112(%r15,%rax)
	mov	-56(%rbp), %eax
	movq	$0, %nacl:120(%r15,%rax)
	.align 32
.L127:
	movq	8(%rbp), %rsi
	movl	$zio_phys_bp_init, %edi
	call	__cyg_profile_func_exit
	.loc 2 715 0
	movq	-8(%rbp), %rbx
	movq	%rbp, %rsp
	popq	%r11
	naclrestbp	%r11d, %r15
	popq	%r11
	nacljmp	%r11d,%r15
	.cfi_endproc
.LFE98:
	.size	zio_phys_bp_init, .-zio_phys_bp_init
	.align 32
.globl zio_read_phys
	.type	zio_read_phys, @function
zio_read_phys:
.LFB99:
	.loc 2 721 0
	.cfi_startproc
	pushq	%rbp
.LCFI46:
	.cfi_def_cfa_offset 16
	movq	%rsp, %rbp
	.cfi_offset 6, -16
.LCFI47:
	.cfi_def_cfa_register 6
	pushq	%rbx
	naclsspq	$248, %r15
	movl	%edi, -164(%rbp)
	movl	%esi, -168(%rbp)
	movq	%rdx, -176(%rbp)
	movq	%rcx, -184(%rbp)
	movl	%r8d, -188(%rbp)
	movl	%r9d, -192(%rbp)
	.loc 2 721 0
	movq	8(%rbp), %rsi
	movl	$zio_read_phys, %edi
	.cfi_offset 3, -24
	call	__cyg_profile_func_enter
	.loc 2 725 0
	mov	-168(%rbp), %eax
	mov	%nacl:60(%r15,%rax), %eax
	movl	%nacl:92(%r15,%rax), %eax
	cmpl	$6, %eax
	jne	.L130
	mov	-168(%rbp), %eax
	mov	%nacl:60(%r15,%rax), %eax
	addl	$1608, %eax
	mov	%eax, %eax
	movl	%eax, %edi
	call	mutex_enter
	jmp	.L131
	.align 32
.L132:
	mov	-168(%rbp), %eax
	mov	%nacl:60(%r15,%rax), %eax
	addl	$1608, %eax
	mov	%eax, %edx
	mov	-168(%rbp), %eax
	mov	%nacl:60(%r15,%rax), %eax
	addl	$1560, %eax
	mov	%eax, %eax
	movl	%edx, %esi
	movl	%eax, %edi
	call	cv_wait
	.align 32
.L131:
	mov	-168(%rbp), %eax
	mov	%nacl:60(%r15,%rax), %eax
	movl	%nacl:92(%r15,%rax), %eax
	cmpl	$6, %eax
	je	.L132
	mov	-168(%rbp), %eax
	mov	%nacl:60(%r15,%rax), %eax
	addl	$1608, %eax
	mov	%eax, %eax
	movl	%eax, %edi
	call	mutex_exit
	.align 32
.L130:
	.loc 2 727 0
	movl	48(%rbp), %edi
	movl	-192(%rbp), %esi
	movq	-184(%rbp), %rcx
	movq	-176(%rbp), %rdx
	leal	-160(%rbp), %ebx
	movl	-168(%rbp), %eax
	movl	%edi, %r9d
	movl	%esi, %r8d
	movl	%ebx, %esi
	movl	%eax, %edi
	call	zio_phys_bp_init
	.loc 2 729 0
	movl	40(%rbp), %eax
	movl	%eax, %edx
	orb	$1, %dh
	mov	-168(%rbp), %eax
	mov	%nacl:60(%r15,%rax), %ebx
	movq	-184(%rbp), %rdi
	movl	-188(%rbp), %esi
	leal	-160(%rbp), %ecx
	movl	-164(%rbp), %eax
	movl	$13615106, 48(%rsp)
	movl	$0, 40(%rsp)
	movl	%edx, 32(%rsp)
	movl	32(%rbp), %edx
	movl	%edx, 24(%rsp)
	movl	$1, 16(%rsp)
	movl	24(%rbp), %edx
	movl	%edx, 8(%rsp)
	movl	16(%rbp), %edx
	movl	%edx, (%rsp)
	movq	%rdi, %r9
	movl	%esi, %r8d
	movl	$0, %edx
	movl	%ebx, %esi
	movl	%eax, %edi
	call	zio_create
	mov	%eax, %eax
	movl	%eax, -20(%rbp)
	.loc 2 733 0
	mov	-20(%rbp), %eax
	movl	-168(%rbp), %edx
	movl	%edx, %nacl:392(%r15,%rax)
	.loc 2 734 0
	mov	-20(%rbp), %eax
	movq	-176(%rbp), %rdx
	movq	%rdx, %nacl:416(%r15,%rax)
	.loc 2 739 0
	movl	-20(%rbp), %eax
	addl	$80, %eax
	mov	%eax, %edx
	mov	-20(%rbp), %eax
	movl	%edx, %nacl:72(%r15,%rax)
	.loc 2 741 0
	mov	-20(%rbp), %ebx
	movq	8(%rbp), %rsi
	movl	$zio_read_phys, %edi
	call	__cyg_profile_func_exit
	movl	%ebx, %eax
	.loc 2 742 0
	naclaspq	$248, %r15
	popq	%rbx
	popq	%r11
	naclrestbp	%r11d, %r15
	popq	%r11
	nacljmp	%r11d,%r15
	.cfi_endproc
.LFE99:
	.size	zio_read_phys, .-zio_read_phys
	.align 32
.globl zio_write_phys
	.type	zio_write_phys, @function
zio_write_phys:
.LFB100:
	.loc 2 748 0
	.cfi_startproc
	pushq	%rbp
.LCFI48:
	.cfi_def_cfa_offset 16
	movq	%rsp, %rbp
	.cfi_offset 6, -16
.LCFI49:
	.cfi_def_cfa_register 6
	pushq	%rbx
	naclsspq	$248, %r15
	movl	%edi, -164(%rbp)
	movl	%esi, -168(%rbp)
	movq	%rdx, -176(%rbp)
	movq	%rcx, -184(%rbp)
	movl	%r8d, -188(%rbp)
	movl	%r9d, -192(%rbp)
	.loc 2 748 0
	movq	8(%rbp), %rsi
	movl	$zio_write_phys, %edi
	.cfi_offset 3, -24
	call	__cyg_profile_func_enter
	.loc 2 754 0
	mov	-168(%rbp), %eax
	mov	%nacl:60(%r15,%rax), %eax
	movl	%nacl:92(%r15,%rax), %eax
	cmpl	$6, %eax
	jne	.L135
	mov	-168(%rbp), %eax
	mov	%nacl:60(%r15,%rax), %eax
	addl	$1608, %eax
	mov	%eax, %eax
	movl	%eax, %edi
	call	mutex_enter
	jmp	.L136
	.align 32
.L137:
	mov	-168(%rbp), %eax
	mov	%nacl:60(%r15,%rax), %eax
	addl	$1608, %eax
	mov	%eax, %edx
	mov	-168(%rbp), %eax
	mov	%nacl:60(%r15,%rax), %eax
	addl	$1560, %eax
	mov	%eax, %eax
	movl	%edx, %esi
	movl	%eax, %edi
	call	cv_wait
	.align 32
.L136:
	mov	-168(%rbp), %eax
	mov	%nacl:60(%r15,%rax), %eax
	movl	%nacl:92(%r15,%rax), %eax
	cmpl	$6, %eax
	je	.L137
	mov	-168(%rbp), %eax
	mov	%nacl:60(%r15,%rax), %eax
	addl	$1608, %eax
	mov	%eax, %eax
	movl	%eax, %edi
	call	mutex_exit
	.align 32
.L135:
	.loc 2 756 0
	movl	48(%rbp), %edi
	movl	-192(%rbp), %esi
	movq	-184(%rbp), %rcx
	movq	-176(%rbp), %rdx
	leal	-160(%rbp), %ebx
	movl	-168(%rbp), %eax
	movl	%edi, %r9d
	movl	%esi, %r8d
	movl	%ebx, %esi
	movl	%eax, %edi
	call	zio_phys_bp_init
	.loc 2 758 0
	movl	40(%rbp), %eax
	movl	%eax, %edx
	orb	$1, %dh
	mov	-168(%rbp), %eax
	mov	%nacl:60(%r15,%rax), %ebx
	movq	-184(%rbp), %rdi
	movl	-188(%rbp), %esi
	leal	-160(%rbp), %ecx
	movl	-164(%rbp), %eax
	movl	$13090858, 48(%rsp)
	movl	$0, 40(%rsp)
	movl	%edx, 32(%rsp)
	movl	32(%rbp), %edx
	movl	%edx, 24(%rsp)
	movl	$2, 16(%rsp)
	movl	24(%rbp), %edx
	movl	%edx, 8(%rsp)
	movl	16(%rbp), %edx
	movl	%edx, (%rsp)
	movq	%rdi, %r9
	movl	%esi, %r8d
	movl	$0, %edx
	movl	%ebx, %esi
	movl	%eax, %edi
	call	zio_create
	mov	%eax, %eax
	movl	%eax, -20(%rbp)
	.loc 2 762 0
	mov	-20(%rbp), %eax
	movl	-168(%rbp), %edx
	movl	%edx, %nacl:392(%r15,%rax)
	.loc 2 763 0
	mov	-20(%rbp), %eax
	movq	-176(%rbp), %rdx
	movq	%rdx, %nacl:416(%r15,%rax)
	.loc 2 765 0
	movl	-20(%rbp), %eax
	addl	$80, %eax
	mov	%eax, %edx
	mov	-20(%rbp), %eax
	movl	%edx, %nacl:72(%r15,%rax)
	.loc 2 766 0
	movl	-192(%rbp), %edx
	mov	-20(%rbp), %eax
	movl	%edx, %nacl:48(%r15,%rax)
	.loc 2 768 0
	movl	-192(%rbp), %edx
	movl	%edx, %eax
	sall	$2, %eax
	addl	%edx, %eax
	sall	$2, %eax
	movslq	%eax,%rdx
	movl	$zio_checksum_table+12, %eax
	leaq	(%rdx,%rax), %rax
	movl	%nacl:(%r15,%rax), %eax
	testl	%eax, %eax
	je	.L138
	.loc 2 775 0
	movq	-184(%rbp), %rax
	movl	%eax, %edi
	call	zio_buf_alloc
	mov	%eax, %eax
	movl	%eax, -24(%rbp)
	.loc 2 776 0
	movq	-184(%rbp), %rax
	movl	%eax, %edx
	movl	-24(%rbp), %ecx
	movl	-188(%rbp), %eax
	movl	%ecx, %esi
	movl	%eax, %edi
	call	bcopy
	.loc 2 777 0
	movq	-184(%rbp), %rcx
	movq	-184(%rbp), %rdx
	movl	-24(%rbp), %ebx
	movl	-20(%rbp), %eax
	movl	%ebx, %esi
	movl	%eax, %edi
	call	zio_push_transform
	.loc 2 779 0
	mov	-24(%rbp), %eax
	movq	-184(%rbp), %rdx
	subl	$40, %edx
	leal	(%rdx,%rax), %eax
	movl	%eax, -28(%rbp)
	.loc 2 780 0
	mov	-28(%rbp), %eax
	movq	-64(%rbp), %rdx
	movq	%rdx, %nacl:8(%r15,%rax)
	movq	-56(%rbp), %rdx
	movq	%rdx, %nacl:16(%r15,%rax)
	movq	-48(%rbp), %rdx
	movq	%rdx, %nacl:24(%r15,%rax)
	movq	-40(%rbp), %rdx
	movq	%rdx, %nacl:32(%r15,%rax)
	.align 32
.L138:
	.loc 2 783 0
	mov	-20(%rbp), %ebx
	movq	8(%rbp), %rsi
	movl	$zio_write_phys, %edi
	call	__cyg_profile_func_exit
	movl	%ebx, %eax
	.loc 2 784 0
	naclaspq	$248, %r15
	popq	%rbx
	popq	%r11
	naclrestbp	%r11d, %r15
	popq	%r11
	nacljmp	%r11d,%r15
	.cfi_endproc
.LFE100:
	.size	zio_write_phys, .-zio_write_phys
	.align 32
.globl zio_vdev_child_io
	.type	zio_vdev_child_io, @function
zio_vdev_child_io:
.LFB101:
	.loc 2 793 0
	.cfi_startproc
	pushq	%rbp
.LCFI50:
	.cfi_def_cfa_offset 16
	movq	%rsp, %rbp
	.cfi_offset 6, -16
.LCFI51:
	.cfi_def_cfa_register 6
	pushq	%rbx
	naclsspq	$136, %r15
	movl	%edi, -36(%rbp)
	movl	%esi, -40(%rbp)
	movl	%edx, -44(%rbp)
	movq	%rcx, -56(%rbp)
	movl	%r8d, -60(%rbp)
	movq	%r9, -72(%rbp)
	.loc 2 793 0
	movq	8(%rbp), %rsi
	movl	$zio_vdev_child_io, %edi
	.cfi_offset 3, -24
	call	__cyg_profile_func_enter
	.loc 2 794 0
	movl	$13074432, -24(%rbp)
	.loc 2 797 0
	cmpl	$1, 16(%rbp)
	jne	.L141
	cmpl	$0, -40(%rbp)
	je	.L141
	.loc 2 804 0
	orl	$524288, -24(%rbp)
	.loc 2 805 0
	mov	-36(%rbp), %eax
	movl	%nacl:536(%r15,%rax), %eax
	movl	%eax, %edx
	andl	$-524289, %edx
	mov	-36(%rbp), %eax
	movl	%edx, %nacl:536(%r15,%rax)
	.align 32
.L141:
	.loc 2 810 0
	mov	-36(%rbp), %eax
	movl	%nacl:484(%r15,%rax), %eax
	andl	$425366, %eax
	orl	$1, %eax
	.loc 2 808 0
	movl	%eax, %esi
	orl	32(%rbp), %esi
	movl	16(%rbp), %ebx
	mov	-36(%rbp), %eax
	movq	%nacl:64(%r15,%rax), %rdx
	mov	-36(%rbp), %eax
	mov	%nacl:8(%r15,%rax), %r10d
	movq	-72(%rbp), %r9
	movl	-60(%rbp), %r8d
	movl	-40(%rbp), %ecx
	movl	-36(%rbp), %eax
	movl	-24(%rbp), %edi
	movl	%edi, 48(%rsp)
	movl	$14, 40(%rsp)
	movl	%esi, 32(%rsp)
	movl	24(%rbp), %esi
	movl	%esi, 24(%rsp)
	movl	%ebx, 16(%rsp)
	movl	48(%rbp), %ebx
	movl	%ebx, 8(%rsp)
	movl	40(%rbp), %ebx
	movl	%ebx, (%rsp)
	movl	%r10d, %esi
	movl	%eax, %edi
	call	zio_create
	mov	%eax, %eax
	movl	%eax, -20(%rbp)
	.loc 2 813 0
	mov	-20(%rbp), %eax
	movl	-44(%rbp), %edx
	movl	%edx, %nacl:392(%r15,%rax)
	.loc 2 814 0
	mov	-20(%rbp), %eax
	movq	-56(%rbp), %rdx
	movq	%rdx, %nacl:416(%r15,%rax)
	.loc 2 816 0
	mov	-20(%rbp), %ebx
	movq	8(%rbp), %rsi
	movl	$zio_vdev_child_io, %edi
	call	__cyg_profile_func_exit
	movl	%ebx, %eax
	.loc 2 817 0
	naclaspq	$136, %r15
	popq	%rbx
	popq	%r11
	naclrestbp	%r11d, %r15
	popq	%r11
	nacljmp	%r11d,%r15
	.cfi_endproc
.LFE101:
	.size	zio_vdev_child_io, .-zio_vdev_child_io
	.align 32
	.type	zio_destroy, @function
zio_destroy:
.LFB102:
	.loc 2 826 0
	.cfi_startproc
	pushq	%rbp
.LCFI52:
	.cfi_def_cfa_offset 16
	movq	%rsp, %rbp
	.cfi_offset 6, -16
.LCFI53:
	.cfi_def_cfa_register 6
	naclsspq	$16, %r15
	movl	%edi, -4(%rbp)
	.loc 2 826 0
	movq	8(%rbp), %rsi
	movl	$zio_destroy, %edi
	call	__cyg_profile_func_enter
	.loc 2 827 0
	movl	-4(%rbp), %eax
	addl	$564, %eax
	mov	%eax, %eax
	movl	%eax, %edi
	call	zmutex_destroy
	.loc 2 828 0
	movl	-4(%rbp), %eax
	addl	$616, %eax
	mov	%eax, %eax
	movl	%eax, %edi
	call	cv_destroy
	.loc 2 829 0
	mov	-4(%rbp), %eax
	mov	%nacl:396(%r15,%rax), %eax
	testq	%rax, %rax
	je	.L144
	.loc 2 830 0
	mov	-4(%rbp), %eax
	movq	%nacl:400(%r15,%rax), %rax
	leal	0(,%rax,4), %edx
	mov	-4(%rbp), %eax
	mov	%nacl:396(%r15,%rax), %eax
	movl	%edx, %esi
	movl	%eax, %edi
	call	umem_free
	.loc 2 832 0
	mov	-4(%rbp), %eax
	movl	$0, %nacl:396(%r15,%rax)
	.loc 2 833 0
	mov	-4(%rbp), %eax
	movq	$0, %nacl:400(%r15,%rax)
	.align 32
.L144:
	.loc 2 835 0
	mov	zio_cache(%rip), %edx
	movl	-4(%rbp), %eax
	movl	%eax, %esi
	movl	%edx, %edi
	call	umem_cache_free
	movq	8(%rbp), %rsi
	movl	$zio_destroy, %edi
	call	__cyg_profile_func_exit
	.loc 2 836 0
	movq	%rbp, %rsp
	popq	%r11
	naclrestbp	%r11d, %r15
	popq	%r11
	nacljmp	%r11d,%r15
	.cfi_endproc
.LFE102:
	.size	zio_destroy, .-zio_destroy
	.section	.rodata
	.align 8
.LC43:
	.string	"zio->io_stage == ZIO_STAGE_OPEN"
	.text
	.align 32
.globl zio_wait
	.type	zio_wait, @function
zio_wait:
.LFB103:
	.loc 2 840 0
	.cfi_startproc
	pushq	%rbp
.LCFI54:
	.cfi_def_cfa_offset 16
	movq	%rsp, %rbp
	.cfi_offset 6, -16
.LCFI55:
	.cfi_def_cfa_register 6
	pushq	%rbx
	naclsspq	$40, %r15
	movl	%edi, -36(%rbp)
	.loc 2 840 0
	movq	8(%rbp), %rsi
	movl	$zio_wait, %edi
	.cfi_offset 3, -24
	call	__cyg_profile_func_enter
	.loc 2 843 0
	mov	-36(%rbp), %eax
	movl	%nacl:496(%r15,%rax), %eax
	testl	%eax, %eax
	je	.L147
	movl	$__PRETTY_FUNCTION__.10134, %ecx
	movl	$843, %edx
	movl	$.LC12, %esi
	movl	$.LC43, %edi
	call	__assert_fail
	.align 32
.L147:
	.loc 2 844 0
	mov	-36(%rbp), %eax
	movl	$0, %nacl:560(%r15,%rax)
	.loc 2 846 0
	movl	-36(%rbp), %eax
	movl	%eax, %edi
	call	zio_execute
	.loc 2 854 0
	mov	-36(%rbp), %eax
	movl	%nacl:528(%r15,%rax), %eax
	movl	%eax, -20(%rbp)
	.loc 2 855 0
	movl	-36(%rbp), %eax
	movl	%eax, %edi
	call	zio_destroy
	.loc 2 857 0
	movl	-20(%rbp), %ebx
	movq	8(%rbp), %rsi
	movl	$zio_wait, %edi
	call	__cyg_profile_func_exit
	movl	%ebx, %eax
	.loc 2 858 0
	naclaspq	$40, %r15
	popq	%rbx
	popq	%r11
	naclrestbp	%r11d, %r15
	popq	%r11
	nacljmp	%r11d,%r15
	.cfi_endproc
.LFE103:
	.size	zio_wait, .-zio_wait
	.align 32
.globl zio_nowait
	.type	zio_nowait, @function
zio_nowait:
.LFB104:
	.loc 2 862 0
	.cfi_startproc
	pushq	%rbp
.LCFI56:
	.cfi_def_cfa_offset 16
	movq	%rsp, %rbp
	.cfi_offset 6, -16
.LCFI57:
	.cfi_def_cfa_register 6
	naclsspq	$16, %r15
	movl	%edi, -4(%rbp)
	.loc 2 862 0
	movq	8(%rbp), %rsi
	movl	$zio_nowait, %edi
	call	__cyg_profile_func_enter
	.loc 2 863 0
	movl	-4(%rbp), %eax
	movl	%eax, %edi
	call	zio_execute
	movq	8(%rbp), %rsi
	movl	$zio_nowait, %edi
	call	__cyg_profile_func_exit
	.loc 2 864 0
	movq	%rbp, %rsp
	popq	%r11
	naclrestbp	%r11d, %r15
	popq	%r11
	nacljmp	%r11d,%r15
	.cfi_endproc
.LFE104:
	.size	zio_nowait, .-zio_nowait
	.align 32
.globl zio_interrupt
	.type	zio_interrupt, @function
zio_interrupt:
.LFB105:
	.loc 2 868 0
	.cfi_startproc
	pushq	%rbp
.LCFI58:
	.cfi_def_cfa_offset 16
	movq	%rsp, %rbp
	.cfi_offset 6, -16
.LCFI59:
	.cfi_def_cfa_register 6
	pushq	%rbx
	naclsspq	$24, %r15
	movl	%edi, -20(%rbp)
	.loc 2 868 0
	movq	8(%rbp), %rsi
	movl	$zio_interrupt, %edi
	.cfi_offset 3, -24
	call	__cyg_profile_func_enter
	.loc 2 870 0
	movl	$zio_execute, %eax
	mov	%eax, %esi
	mov	-20(%rbp), %eax
	mov	%nacl:8(%r15,%rax), %edx
	mov	-20(%rbp), %eax
	movl	%nacl:492(%r15,%rax), %eax
	addl	$32, %eax
	sall	$2, %eax
	cltq
	leaq	(%rdx,%rax), %rax
	mov	%nacl:4(%r15,%rax), %ebx
	movl	-20(%rbp), %eax
	movl	$256, %ecx
	movl	%eax, %edx
	movl	%ebx, %edi
	call	taskq_dispatch
	movq	8(%rbp), %rsi
	movl	$zio_interrupt, %edi
	call	__cyg_profile_func_exit
	.loc 2 873 0
	naclaspq	$24, %r15
	popq	%rbx
	popq	%r11
	naclrestbp	%r11d, %r15
	popq	%r11
	nacljmp	%r11d,%r15
	.cfi_endproc
.LFE105:
	.size	zio_interrupt, .-zio_interrupt
	.align 32
	.type	zio_issue_async, @function
zio_issue_async:
.LFB106:
	.loc 2 877 0
	.cfi_startproc
	pushq	%rbp
.LCFI60:
	.cfi_def_cfa_offset 16
	movq	%rsp, %rbp
	.cfi_offset 6, -16
.LCFI61:
	.cfi_def_cfa_register 6
	pushq	%rbx
	naclsspq	$24, %r15
	movl	%edi, -20(%rbp)
	.loc 2 877 0
	movq	8(%rbp), %rsi
	movl	$zio_issue_async, %edi
	.cfi_offset 3, -24
	call	__cyg_profile_func_enter
	.loc 2 879 0
	movl	$zio_execute, %eax
	mov	%eax, %esi
	mov	-20(%rbp), %eax
	mov	%nacl:8(%r15,%rax), %edx
	mov	-20(%rbp), %eax
	movl	%nacl:492(%r15,%rax), %eax
	addl	$24, %eax
	sall	$2, %eax
	cltq
	leaq	(%rdx,%rax), %rax
	mov	%nacl:12(%r15,%rax), %ebx
	movl	-20(%rbp), %eax
	movl	$256, %ecx
	movl	%eax, %edx
	movl	%ebx, %edi
	call	taskq_dispatch
	.loc 2 882 0
	movl	$257, %ebx
	movq	8(%rbp), %rsi
	movl	$zio_issue_async, %edi
	call	__cyg_profile_func_exit
	movl	%ebx, %eax
	.loc 2 883 0
	naclaspq	$24, %r15
	popq	%rbx
	popq	%r11
	naclrestbp	%r11d, %r15
	popq	%r11
	nacljmp	%r11d,%r15
	.cfi_endproc
.LFE106:
	.size	zio_issue_async, .-zio_issue_async
	.section	.rodata
.LC44:
	.string	"zio->io_stalled == 0"
	.text
	.align 32
	.type	zio_wait_for_children, @function
zio_wait_for_children:
.LFB107:
	.loc 2 892 0
	.cfi_startproc
	pushq	%rbp
.LCFI62:
	.cfi_def_cfa_offset 16
	movq	%rsp, %rbp
	.cfi_offset 6, -16
.LCFI63:
	.cfi_def_cfa_register 6
	pushq	%rbx
	naclsspq	$40, %r15
	movl	%edi, -36(%rbp)
	movl	%esi, -40(%rbp)
	movl	%edx, -44(%rbp)
	.loc 2 892 0
	movq	8(%rbp), %rsi
	movl	$zio_wait_for_children, %edi
	.cfi_offset 3, -24
	call	__cyg_profile_func_enter
	.loc 2 893 0
	movl	$256, -20(%rbp)
	.loc 2 895 0
	movl	-36(%rbp), %eax
	addl	$564, %eax
	mov	%eax, %eax
	movl	%eax, %edi
	call	mutex_enter
	.loc 2 896 0
	mov	-36(%rbp), %eax
	movzbl	%nacl:504(%r15,%rax), %eax
	testb	%al, %al
	je	.L156
	movl	$__PRETTY_FUNCTION__.10163, %ecx
	movl	$896, %edx
	movl	$.LC12, %esi
	movl	$.LC44, %edi
	call	__assert_fail
	.align 32
.L156:
	.loc 2 897 0
	mov	-44(%rbp), %eax
	movq	%nacl:(%r15,%rax), %rax
	testq	%rax, %rax
	je	.L157
	.loc 2 898 0
	movl	-40(%rbp), %eax
	movl	%eax, %edx
	mov	-36(%rbp), %eax
	movb	%dl, %nacl:504(%r15,%rax)
	.loc 2 899 0
	movl	$257, -20(%rbp)
	.align 32
.L157:
	.loc 2 901 0
	movl	-36(%rbp), %eax
	addl	$564, %eax
	mov	%eax, %eax
	movl	%eax, %edi
	call	mutex_exit
	.loc 2 903 0
	movl	-20(%rbp), %ebx
	movq	8(%rbp), %rsi
	movl	$zio_wait_for_children, %edi
	call	__cyg_profile_func_exit
	movl	%ebx, %eax
	.loc 2 904 0
	naclaspq	$40, %r15
	popq	%rbx
	popq	%r11
	naclrestbp	%r11d, %r15
	popq	%r11
	nacljmp	%r11d,%r15
	.cfi_endproc
.LFE107:
	.size	zio_wait_for_children, .-zio_wait_for_children
	.align 32
	.type	zio_add_failed_vdev, @function
zio_add_failed_vdev:
.LFB108:
	.loc 2 908 0
	.cfi_startproc
	pushq	%rbp
.LCFI64:
	.cfi_def_cfa_offset 16
	movq	%rsp, %rbp
	.cfi_offset 6, -16
.LCFI65:
	.cfi_def_cfa_register 6
	pushq	%rbx
	naclsspq	$40, %r15
	movl	%edi, -36(%rbp)
	movl	%esi, -40(%rbp)
	.loc 2 908 0
	movq	8(%rbp), %rsi
	movl	$zio_add_failed_vdev, %edi
	.cfi_offset 3, -24
	call	__cyg_profile_func_enter
	.loc 2 909 0
	mov	-36(%rbp), %eax
	movq	%nacl:400(%r15,%rax), %rax
	movq	%rax, -32(%rbp)
	.loc 2 915 0
	mov	-40(%rbp), %eax
	mov	%nacl:392(%r15,%rax), %eax
	testq	%rax, %rax
	jne	.L160
	movl	$0, %ebx
	jmp	.L161
	.align 32
.L160:
	.loc 2 918 0
	movl	$0, -20(%rbp)
	jmp	.L162
	.align 32
.L164:
	.loc 2 919 0
	mov	-36(%rbp), %eax
	mov	%nacl:396(%r15,%rax), %eax
	movl	-20(%rbp), %edx
	sall	$2, %edx
	leal	(%rdx,%rax), %eax
	mov	%eax, %eax
	mov	%nacl:(%r15,%rax), %edx
	mov	-40(%rbp), %eax
	mov	%nacl:392(%r15,%rax), %eax
	cmpl	%eax, %edx
	jne	.L163
	movl	$0, %ebx
	jmp	.L161
	.align 32
.L163:
	.loc 2 918 0
	addl	$1, -20(%rbp)
	.align 32
.L162:
	movl	-20(%rbp), %eax
	cltq
	cmpq	-32(%rbp), %rax
	jb	.L164
	.loc 2 923 0
	movq	-32(%rbp), %rax
	addq	$1, %rax
	sall	$2, %eax
	movl	$256, %esi
	movl	%eax, %edi
	call	umem_zalloc
	mov	%eax, %eax
	movl	%eax, -24(%rbp)
	.loc 2 924 0
	mov	-36(%rbp), %eax
	mov	%nacl:396(%r15,%rax), %eax
	testq	%rax, %rax
	je	.L165
	.loc 2 925 0
	movq	-32(%rbp), %rax
	leal	0(,%rax,4), %edx
	mov	-36(%rbp), %eax
	mov	%nacl:396(%r15,%rax), %ecx
	movl	-24(%rbp), %eax
	movl	%eax, %esi
	movl	%ecx, %edi
	call	bcopy
	.loc 2 927 0
	movq	-32(%rbp), %rax
	leal	0(,%rax,4), %edx
	mov	-36(%rbp), %eax
	mov	%nacl:396(%r15,%rax), %eax
	movl	%edx, %esi
	movl	%eax, %edi
	call	umem_free
	.align 32
.L165:
	.loc 2 929 0
	mov	-36(%rbp), %eax
	movl	-24(%rbp), %edx
	movl	%edx, %nacl:396(%r15,%rax)
	.loc 2 930 0
	mov	-36(%rbp), %eax
	mov	%nacl:396(%r15,%rax), %eax
	movq	-32(%rbp), %rdx
	sall	$2, %edx
	leal	(%rdx,%rax), %eax
	mov	%eax, %eax
	mov	-40(%rbp), %edx
	mov	%nacl:392(%r15,%rdx), %edx
	movl	%edx, %nacl:(%r15,%rax)
	.loc 2 931 0
	mov	-36(%rbp), %eax
	movq	%nacl:400(%r15,%rax), %rax
	leaq	1(%rax), %rdx
	mov	-36(%rbp), %eax
	movq	%rdx, %nacl:400(%r15,%rax)
	movl	$1, %ebx
	.align 32
.L161:
	movq	8(%rbp), %rsi
	movl	$zio_add_failed_vdev, %edi
	call	__cyg_profile_func_exit
	cmpl	$1, %ebx
	.loc 2 932 0
	naclaspq	$40, %r15
	popq	%rbx
	popq	%r11
	naclrestbp	%r11d, %r15
	popq	%r11
	nacljmp	%r11d,%r15
	.cfi_endproc
.LFE108:
	.size	zio_add_failed_vdev, .-zio_add_failed_vdev
	.section	.rodata
.LC45:
	.string	"0"
.LC46:
	.string	">"
.LC47:
	.string	"*countp"
	.text
	.align 32
	.type	zio_notify_parent, @function
zio_notify_parent:
.LFB109:
	.loc 2 936 0
	.cfi_startproc
	pushq	%rbp
.LCFI66:
	.cfi_def_cfa_offset 16
	movq	%rsp, %rbp
	.cfi_offset 6, -16
.LCFI67:
	.cfi_def_cfa_register 6
	pushq	%rbx
	naclsspq	$88, %r15
	movl	%edi, -52(%rbp)
	movl	%esi, -56(%rbp)
	movl	%edx, -60(%rbp)
	.loc 2 936 0
	movq	8(%rbp), %rsi
	movl	$zio_notify_parent, %edi
	.cfi_offset 3, -24
	call	__cyg_profile_func_enter
	.loc 2 937 0
	mov	-52(%rbp), %eax
	movl	%nacl:(%r15,%rax), %eax
	movl	%eax, -44(%rbp)
	.loc 2 939 0
	movl	-44(%rbp), %eax
	addl	$564, %eax
	mov	%eax, %eax
	movl	%eax, %edi
	call	mutex_enter
	.loc 2 940 0
	mov	-44(%rbp), %eax
	movl	%nacl:528(%r15,%rax), %eax
	testl	%eax, %eax
	jne	.L171
	mov	-52(%rbp), %eax
	movl	%nacl:484(%r15,%rax), %eax
	andl	$64, %eax
	testl	%eax, %eax
	jne	.L171
	.loc 2 941 0
	mov	-52(%rbp), %eax
	movl	%nacl:528(%r15,%rax), %edx
	mov	-44(%rbp), %eax
	movl	%edx, %nacl:528(%r15,%rax)
	.loc 2 942 0
	mov	-52(%rbp), %eax
	movl	%nacl:528(%r15,%rax), %eax
	testl	%eax, %eax
	je	.L171
	mov	-52(%rbp), %eax
	movl	%nacl:528(%r15,%rax), %eax
	cmpl	$95, %eax
	je	.L171
	.loc 2 943 0
	movl	-52(%rbp), %edx
	movl	-44(%rbp), %eax
	movl	%edx, %esi
	movl	%eax, %edi
	call	zio_add_failed_vdev
	.align 32
.L171:
.LBB16:
	.loc 2 945 0
	mov	-60(%rbp), %eax
	movq	%nacl:(%r15,%rax), %rax
	movq	%rax, -40(%rbp)
	movq	$0, -32(%rbp)
	movq	-40(%rbp), %rax
	cmpq	-32(%rbp), %rax
	ja	.L172
.LBB17:
	naclsspq	$272, %r15
	leal	24(%rsp), %eax
	addq	$15, %rax
	shrq	$4, %rax
	salq	$4, %rax
	mov	%eax, %eax
	movl	%eax, -20(%rbp)
	movl	$.LC17, %eax
	mov	%eax, %ebx
	movl	-20(%rbp), %eax
	movq	-32(%rbp), %rdx
	movq	%rdx, 16(%rsp)
	movl	$.LC46, 8(%rsp)
	movq	-40(%rbp), %rdx
	movq	%rdx, (%rsp)
	movl	$.LC45, %r9d
	movl	$.LC46, %r8d
	movl	$.LC47, %ecx
	movl	%ebx, %edx
	movl	$256, %esi
	movl	%eax, %edi
	movl	$0, %eax
	call	snprintf
	movl	-20(%rbp), %eax
	movl	$945, %edx
	movl	$.LC12, %esi
	movl	%eax, %edi
	call	__assert
	.align 32
.L172:
.LBE17:
.LBE16:
	.loc 2 946 0
	mov	-60(%rbp), %eax
	movq	%nacl:(%r15,%rax), %rax
	leaq	-1(%rax), %rdx
	mov	-60(%rbp), %eax
	movq	%rdx, %nacl:(%r15,%rax)
	mov	-60(%rbp), %eax
	movq	%nacl:(%r15,%rax), %rax
	testq	%rax, %rax
	jne	.L173
	mov	-44(%rbp), %eax
	movzbl	%nacl:504(%r15,%rax), %eax
	movzbl	%al, %eax
	cmpl	-56(%rbp), %eax
	jne	.L173
	.loc 2 947 0
	mov	-44(%rbp), %eax
	movb	$0, %nacl:504(%r15,%rax)
	.loc 2 948 0
	movl	-44(%rbp), %eax
	addl	$564, %eax
	mov	%eax, %eax
	movl	%eax, %edi
	call	mutex_exit
	.loc 2 949 0
	movl	-44(%rbp), %eax
	movl	%eax, %edi
	call	zio_execute
	.loc 2 946 0
	jmp	.L174
	.align 32
.L173:
	.loc 2 951 0
	movl	-44(%rbp), %eax
	addl	$564, %eax
	mov	%eax, %eax
	movl	%eax, %edi
	call	mutex_exit
	.align 32
.L174:
	movq	8(%rbp), %rsi
	movl	$zio_notify_parent, %edi
	call	__cyg_profile_func_exit
	.loc 2 953 0
	movq	-8(%rbp), %rbx
	movq	%rbp, %rsp
	popq	%r11
	naclrestbp	%r11d, %r15
	popq	%r11
	nacljmp	%r11d,%r15
	.cfi_endproc
.LFE109:
	.size	zio_notify_parent, .-zio_notify_parent
	.align 32
.globl zio_wait_for_children_ready
	.type	zio_wait_for_children_ready, @function
zio_wait_for_children_ready:
.LFB110:
	.loc 2 957 0
	.cfi_startproc
	pushq	%rbp
.LCFI68:
	.cfi_def_cfa_offset 16
	movq	%rsp, %rbp
	.cfi_offset 6, -16
.LCFI69:
	.cfi_def_cfa_register 6
	pushq	%rbx
	naclsspq	$24, %r15
	movl	%edi, -20(%rbp)
	.loc 2 957 0
	movq	8(%rbp), %rsi
	movl	$zio_wait_for_children_ready, %edi
	.cfi_offset 3, -24
	call	__cyg_profile_func_enter
	.loc 2 958 0
	movl	-20(%rbp), %eax
	addl	$544, %eax
	mov	%eax, %edx
	movl	-20(%rbp), %eax
	movl	$1, %esi
	movl	%eax, %edi
	call	zio_wait_for_children
	movl	%eax, %ebx
	movq	8(%rbp), %rsi
	movl	$zio_wait_for_children_ready, %edi
	call	__cyg_profile_func_exit
	movl	%ebx, %eax
	.loc 2 960 0
	naclaspq	$24, %r15
	popq	%rbx
	popq	%r11
	naclrestbp	%r11d, %r15
	popq	%r11
	nacljmp	%r11d,%r15
	.cfi_endproc
.LFE110:
	.size	zio_wait_for_children_ready, .-zio_wait_for_children_ready
	.align 32
.globl zio_wait_for_children_done
	.type	zio_wait_for_children_done, @function
zio_wait_for_children_done:
.LFB111:
	.loc 2 964 0
	.cfi_startproc
	pushq	%rbp
.LCFI70:
	.cfi_def_cfa_offset 16
	movq	%rsp, %rbp
	.cfi_offset 6, -16
.LCFI71:
	.cfi_def_cfa_register 6
	pushq	%rbx
	naclsspq	$24, %r15
	movl	%edi, -20(%rbp)
	.loc 2 964 0
	movq	8(%rbp), %rsi
	movl	$zio_wait_for_children_done, %edi
	.cfi_offset 3, -24
	call	__cyg_profile_func_enter
	.loc 2 965 0
	movl	-20(%rbp), %eax
	addl	$552, %eax
	mov	%eax, %edx
	movl	-20(%rbp), %eax
	movl	$18, %esi
	movl	%eax, %edi
	call	zio_wait_for_children
	movl	%eax, %ebx
	movq	8(%rbp), %rsi
	movl	$zio_wait_for_children_done, %edi
	call	__cyg_profile_func_exit
	movl	%ebx, %eax
	.loc 2 967 0
	naclaspq	$24, %r15
	popq	%rbx
	popq	%r11
	naclrestbp	%r11d, %r15
	popq	%r11
	nacljmp	%r11d,%r15
	.cfi_endproc
.LFE111:
	.size	zio_wait_for_children_done, .-zio_wait_for_children_done
	.align 32
	.type	zio_read_init, @function
zio_read_init:
.LFB112:
	.loc 2 971 0
	.cfi_startproc
	pushq	%rbp
.LCFI72:
	.cfi_def_cfa_offset 16
	movq	%rsp, %rbp
	.cfi_offset 6, -16
.LCFI73:
	.cfi_def_cfa_register 6
	pushq	%rbx
	naclsspq	$72, %r15
	movl	%edi, -68(%rbp)
	.loc 2 971 0
	movq	8(%rbp), %rsi
	movl	$zio_read_init, %edi
	.cfi_offset 3, -24
	call	__cyg_profile_func_enter
	.loc 2 972 0
	mov	-68(%rbp), %eax
	movl	%nacl:72(%r15,%rax), %eax
	movl	%eax, -52(%rbp)
	.loc 2 974 0
	mov	-52(%rbp), %eax
	movq	%nacl:48(%r15,%rax), %rax
	shrq	$32, %rax
	andl	$255, %eax
	cmpq	$2, %rax
	je	.L181
.LBB18:
	.loc 2 975 0
	mov	-52(%rbp), %eax
	movq	%nacl:48(%r15,%rax), %rax
	shrq	$16, %rax
	andl	$65535, %eax
	addq	$1, %rax
	salq	$9, %rax
	movq	%rax, -48(%rbp)
	.loc 2 976 0
	movq	-48(%rbp), %rax
	movl	%eax, %edi
	call	zio_buf_alloc
	mov	%eax, %eax
	movl	%eax, -36(%rbp)
	.loc 2 978 0
	movq	-48(%rbp), %rcx
	movq	-48(%rbp), %rdx
	movl	-36(%rbp), %ebx
	movl	-68(%rbp), %eax
	movl	%ebx, %esi
	movl	%eax, %edi
	call	zio_push_transform
	.loc 2 979 0
	mov	-68(%rbp), %eax
	movl	%nacl:536(%r15,%rax), %eax
	movl	%eax, %edx
	orl	$2097152, %edx
	mov	-68(%rbp), %eax
	movl	%edx, %nacl:536(%r15,%rax)
	.align 32
.L181:
.LBE18:
	.loc 2 982 0
	mov	-52(%rbp), %eax
	movq	%nacl:8(%r15,%rax), %rax
	testq	%rax, %rax
	jns	.L182
.LBB19:
	.loc 2 983 0
	movq	$512, -32(%rbp)
	.loc 2 984 0
	movq	-32(%rbp), %rax
	movl	%eax, %edi
	call	zio_buf_alloc
	mov	%eax, %eax
	movl	%eax, -20(%rbp)
	.loc 2 986 0
	movq	-32(%rbp), %rcx
	movq	-32(%rbp), %rdx
	movl	-20(%rbp), %ebx
	movl	-68(%rbp), %eax
	movl	%ebx, %esi
	movl	%eax, %edi
	call	zio_push_transform
	.loc 2 987 0
	mov	-68(%rbp), %eax
	movl	%nacl:536(%r15,%rax), %eax
	movl	%eax, %edx
	orl	$1048576, %edx
	mov	-68(%rbp), %eax
	movl	%edx, %nacl:536(%r15,%rax)
	.align 32
.L182:
.LBE19:
	.loc 2 990 0
	mov	-52(%rbp), %eax
	movq	%nacl:48(%r15,%rax), %rax
	shrq	$48, %rax
	andl	$255, %eax
	movl	%eax, %edx
	movl	%edx, %eax
	addl	%eax, %eax
	addl	%edx, %eax
	sall	$2, %eax
	movslq	%eax,%rdx
	movl	$dmu_ot+4, %eax
	leaq	(%rdx,%rax), %rax
	movl	%nacl:(%r15,%rax), %eax
	testl	%eax, %eax
	jne	.L183
	mov	-52(%rbp), %eax
	movq	%nacl:48(%r15,%rax), %rax
	shrq	$56, %rax
	andl	$31, %eax
	testq	%rax, %rax
	jne	.L183
	.loc 2 991 0
	mov	-68(%rbp), %eax
	movl	%nacl:484(%r15,%rax), %eax
	movl	%eax, %edx
	orl	$16, %edx
	mov	-68(%rbp), %eax
	movl	%edx, %nacl:484(%r15,%rax)
	.align 32
.L183:
	.loc 2 993 0
	movl	$256, %ebx
	movq	8(%rbp), %rsi
	movl	$zio_read_init, %edi
	call	__cyg_profile_func_exit
	movl	%ebx, %eax
	.loc 2 994 0
	naclaspq	$72, %r15
	popq	%rbx
	popq	%r11
	naclrestbp	%r11d, %r15
	popq	%r11
	nacljmp	%r11d,%r15
	.cfi_endproc
.LFE112:
	.size	zio_read_init, .-zio_read_init
	.align 32
	.type	zio_ready, @function
zio_ready:
.LFB113:
	.loc 2 998 0
	.cfi_startproc
	pushq	%rbp
.LCFI74:
	.cfi_def_cfa_offset 16
	movq	%rsp, %rbp
	.cfi_offset 6, -16
.LCFI75:
	.cfi_def_cfa_register 6
	pushq	%rbx
	naclsspq	$40, %r15
	movl	%edi, -36(%rbp)
	.loc 2 998 0
	movq	8(%rbp), %rsi
	movl	$zio_ready, %edi
	.cfi_offset 3, -24
	call	__cyg_profile_func_enter
	.loc 2 999 0
	mov	-36(%rbp), %eax
	movl	%nacl:(%r15,%rax), %eax
	movl	%eax, -20(%rbp)
	.loc 2 1001 0
	mov	-36(%rbp), %eax
	mov	%nacl:236(%r15,%rax), %eax
	testq	%rax, %rax
	je	.L186
	.loc 2 1002 0
	mov	-36(%rbp), %eax
	mov	%nacl:236(%r15,%rax), %eax
	movl	-36(%rbp), %edx
	movl	%edx, %edi
	naclcall	%eax,%r15
	.align 32
.L186:
	.loc 2 1004 0
	cmpl	$0, -20(%rbp)
	je	.L187
	.loc 2 1005 0
	movl	-20(%rbp), %eax
	addl	$544, %eax
	mov	%eax, %edx
	movl	-36(%rbp), %eax
	movl	$1, %esi
	movl	%eax, %edi
	call	zio_notify_parent
	.align 32
.L187:
	.loc 2 1008 0
	mov	-36(%rbp), %eax
	mov	%nacl:72(%r15,%rax), %eax
	testq	%rax, %rax
	je	.L188
	mov	-36(%rbp), %eax
	mov	%nacl:72(%r15,%rax), %edx
	movl	-36(%rbp), %eax
	addl	$80, %eax
	mov	%eax, %eax
	cmpl	%eax, %edx
	je	.L188
	.loc 2 1009 0
	mov	-36(%rbp), %eax
	mov	%nacl:72(%r15,%rax), %edx
	mov	-36(%rbp), %eax
	movq	%nacl:(%r15,%rdx), %rcx
	movq	%rcx, %nacl:80(%r15,%rax)
	movq	%nacl:8(%r15,%rdx), %rcx
	movq	%rcx, %nacl:88(%r15,%rax)
	movq	%nacl:16(%r15,%rdx), %rcx
	movq	%rcx, %nacl:96(%r15,%rax)
	movq	%nacl:24(%r15,%rdx), %rcx
	movq	%rcx, %nacl:104(%r15,%rax)
	movq	%nacl:32(%r15,%rdx), %rcx
	movq	%rcx, %nacl:112(%r15,%rax)
	movq	%nacl:40(%r15,%rdx), %rcx
	movq	%rcx, %nacl:120(%r15,%rax)
	movq	%nacl:48(%r15,%rdx), %rcx
	movq	%rcx, %nacl:128(%r15,%rax)
	movq	%nacl:56(%r15,%rdx), %rcx
	movq	%rcx, %nacl:136(%r15,%rax)
	movq	%nacl:64(%r15,%rdx), %rcx
	movq	%rcx, %nacl:144(%r15,%rax)
	movq	%nacl:72(%r15,%rdx), %rcx
	movq	%rcx, %nacl:152(%r15,%rax)
	movq	%nacl:80(%r15,%rdx), %rcx
	movq	%rcx, %nacl:160(%r15,%rax)
	movq	%nacl:88(%r15,%rdx), %rcx
	movq	%rcx, %nacl:168(%r15,%rax)
	movq	%nacl:96(%r15,%rdx), %rcx
	movq	%rcx, %nacl:176(%r15,%rax)
	movq	%nacl:104(%r15,%rdx), %rcx
	movq	%rcx, %nacl:184(%r15,%rax)
	movq	%nacl:112(%r15,%rdx), %rcx
	movq	%rcx, %nacl:192(%r15,%rax)
	movq	%nacl:120(%r15,%rdx), %rdx
	movq	%rdx, %nacl:200(%r15,%rax)
	.align 32
.L188:
	.loc 2 1011 0
	movl	$256, %ebx
	movq	8(%rbp), %rsi
	movl	$zio_ready, %edi
	call	__cyg_profile_func_exit
	movl	%ebx, %eax
	.loc 2 1012 0
	naclaspq	$40, %r15
	popq	%rbx
	popq	%r11
	naclrestbp	%r11d, %r15
	popq	%r11
	nacljmp	%r11d,%r15
	.cfi_endproc
.LFE113:
	.size	zio_ready, .-zio_ready
	.section	.rodata
	.align 8
.LC48:
	.string	"pio->io_stage <= ZIO_STAGE_WAIT_FOR_CHILDREN_DONE"
	.text
	.align 32
	.type	zio_vdev_retry_io, @function
zio_vdev_retry_io:
.LFB114:
	.loc 2 1016 0
	.cfi_startproc
	pushq	%rbp
.LCFI76:
	.cfi_def_cfa_offset 16
	movq	%rsp, %rbp
	.cfi_offset 6, -16
.LCFI77:
	.cfi_def_cfa_register 6
	pushq	%rbx
	naclsspq	$40, %r15
	movl	%edi, -36(%rbp)
	.loc 2 1016 0
	movq	8(%rbp), %rsi
	movl	$zio_vdev_retry_io, %edi
	.cfi_offset 3, -24
	call	__cyg_profile_func_enter
	.loc 2 1017 0
	mov	-36(%rbp), %eax
	movl	%nacl:(%r15,%rax), %eax
	movl	%eax, -20(%rbp)
	.loc 2 1025 0
	mov	-36(%rbp), %eax
	mov	%nacl:72(%r15,%rax), %edx
	mov	-36(%rbp), %eax
	movq	%nacl:(%r15,%rdx), %rcx
	movq	%rcx, %nacl:248(%r15,%rax)
	movq	%nacl:8(%r15,%rdx), %rcx
	movq	%rcx, %nacl:256(%r15,%rax)
	movq	%nacl:16(%r15,%rdx), %rcx
	movq	%rcx, %nacl:264(%r15,%rax)
	movq	%nacl:24(%r15,%rdx), %rcx
	movq	%rcx, %nacl:272(%r15,%rax)
	movq	%nacl:32(%r15,%rdx), %rcx
	movq	%rcx, %nacl:280(%r15,%rax)
	movq	%nacl:40(%r15,%rdx), %rcx
	movq	%rcx, %nacl:288(%r15,%rax)
	movq	%nacl:48(%r15,%rdx), %rcx
	movq	%rcx, %nacl:296(%r15,%rax)
	movq	%nacl:56(%r15,%rdx), %rcx
	movq	%rcx, %nacl:304(%r15,%rax)
	movq	%nacl:64(%r15,%rdx), %rcx
	movq	%rcx, %nacl:312(%r15,%rax)
	movq	%nacl:72(%r15,%rdx), %rcx
	movq	%rcx, %nacl:320(%r15,%rax)
	movq	%nacl:80(%r15,%rdx), %rcx
	movq	%rcx, %nacl:328(%r15,%rax)
	movq	%nacl:88(%r15,%rdx), %rcx
	movq	%rcx, %nacl:336(%r15,%rax)
	movq	%nacl:96(%r15,%rdx), %rcx
	movq	%rcx, %nacl:344(%r15,%rax)
	movq	%nacl:104(%r15,%rdx), %rcx
	movq	%rcx, %nacl:352(%r15,%rax)
	movq	%nacl:112(%r15,%rdx), %rcx
	movq	%rcx, %nacl:360(%r15,%rax)
	movq	%nacl:120(%r15,%rdx), %rdx
	movq	%rdx, %nacl:368(%r15,%rax)
	.loc 2 1031 0
	mov	-36(%rbp), %eax
	mov	%nacl:72(%r15,%rax), %eax
	movq	$0, %nacl:(%r15,%rax)
	mov	-36(%rbp), %eax
	mov	%nacl:72(%r15,%rax), %eax
	movq	$0, %nacl:8(%r15,%rax)
	mov	-36(%rbp), %eax
	mov	%nacl:72(%r15,%rax), %eax
	movq	$0, %nacl:16(%r15,%rax)
	mov	-36(%rbp), %eax
	mov	%nacl:72(%r15,%rax), %eax
	movq	$0, %nacl:24(%r15,%rax)
	mov	-36(%rbp), %eax
	mov	%nacl:72(%r15,%rax), %eax
	movq	$0, %nacl:32(%r15,%rax)
	mov	-36(%rbp), %eax
	mov	%nacl:72(%r15,%rax), %eax
	movq	$0, %nacl:40(%r15,%rax)
	mov	-36(%rbp), %eax
	mov	%nacl:72(%r15,%rax), %eax
	movq	$0, %nacl:80(%r15,%rax)
	.loc 2 1032 0
	movl	-36(%rbp), %eax
	movl	%eax, %edi
	call	zio_reset
	.loc 2 1034 0
	cmpl	$0, -20(%rbp)
	je	.L191
	.loc 2 1039 0
	movl	-20(%rbp), %eax
	addl	$564, %eax
	mov	%eax, %eax
	movl	%eax, %edi
	call	mutex_enter
	.loc 2 1040 0
	mov	-20(%rbp), %eax
	movq	%nacl:544(%r15,%rax), %rax
	leaq	1(%rax), %rdx
	mov	-20(%rbp), %eax
	movq	%rdx, %nacl:544(%r15,%rax)
	.loc 2 1047 0
	mov	-20(%rbp), %eax
	movl	%nacl:496(%r15,%rax), %eax
	testl	%eax, %eax
	je	.L192
	mov	-20(%rbp), %eax
	movl	%nacl:540(%r15,%rax), %eax
	andl	$1024, %eax
	testl	%eax, %eax
	je	.L192
	.loc 2 1048 0
	mov	-20(%rbp), %eax
	movl	%nacl:484(%r15,%rax), %eax
	movl	%eax, %edx
	orl	$524288, %edx
	mov	-20(%rbp), %eax
	movl	%edx, %nacl:484(%r15,%rax)
	.align 32
.L192:
	.loc 2 1050 0
	mov	-20(%rbp), %eax
	movl	%nacl:496(%r15,%rax), %eax
	cmpl	$18, %eax
	jbe	.L193
	movl	$__PRETTY_FUNCTION__.10334, %ecx
	movl	$1050, %edx
	movl	$.LC12, %esi
	movl	$.LC48, %edi
	call	__assert_fail
	.align 32
.L193:
	.loc 2 1051 0
	movl	-20(%rbp), %eax
	addl	$564, %eax
	mov	%eax, %eax
	movl	%eax, %edi
	call	mutex_exit
	.align 32
.L191:
	.loc 2 1058 0
	mov	-36(%rbp), %eax
	movl	%nacl:484(%r15,%rax), %eax
	movl	%eax, %edx
	andl	$-524289, %edx
	mov	-36(%rbp), %eax
	movl	%edx, %nacl:484(%r15,%rax)
	.loc 2 1059 0
	mov	-36(%rbp), %eax
	movl	$0, %nacl:528(%r15,%rax)
	.loc 2 1061 0
	movl	$256, %ebx
	movq	8(%rbp), %rsi
	movl	$zio_vdev_retry_io, %edi
	call	__cyg_profile_func_exit
	movl	%ebx, %eax
	.loc 2 1062 0
	naclaspq	$40, %r15
	popq	%rbx
	popq	%r11
	naclrestbp	%r11d, %r15
	popq	%r11
	nacljmp	%r11d,%r15
	.cfi_endproc
.LFE114:
	.size	zio_vdev_retry_io, .-zio_vdev_retry_io
	.align 32
.globl zio_vdev_resume_io
	.type	zio_vdev_resume_io, @function
zio_vdev_resume_io:
.LFB115:
	.loc 2 1066 0
	.cfi_startproc
	pushq	%rbp
.LCFI78:
	.cfi_def_cfa_offset 16
	movq	%rsp, %rbp
	.cfi_offset 6, -16
.LCFI79:
	.cfi_def_cfa_register 6
	pushq	%rbx
	naclsspq	$40, %r15
	movl	%edi, -36(%rbp)
	.loc 2 1066 0
	movq	8(%rbp), %rsi
	movl	$zio_vdev_resume_io, %edi
	.cfi_offset 3, -24
	call	__cyg_profile_func_enter
	.loc 2 1069 0
	movl	-36(%rbp), %eax
	addl	$1608, %eax
	mov	%eax, %eax
	movl	%eax, %edi
	call	mutex_enter
	.loc 2 1076 0
	movl	-36(%rbp), %eax
	addl	$1540, %eax
	mov	%eax, %eax
	movl	%eax, %edi
	call	list_head
	mov	%eax, %eax
	movl	%eax, -24(%rbp)
	jmp	.L196
	.align 32
.L201:
.LBB20:
	.loc 2 1078 0
	movl	$0, -20(%rbp)
	.loc 2 1081 0
	mov	-24(%rbp), %eax
	mov	%nacl:392(%r15,%rax), %eax
	testq	%rax, %rax
	je	.L207
	mov	-24(%rbp), %eax
	movl	%nacl:484(%r15,%rax), %eax
	andl	$1, %eax
	testb	%al, %al
	jne	.L208
	.align 32
.L198:
	.loc 2 1083 0
	mov	-24(%rbp), %eax
	mov	%nacl:392(%r15,%rax), %eax
	movl	%eax, %edi
	call	vdev_probe
	movl	%eax, -20(%rbp)
	.loc 2 1084 0
	cmpl	$0, -20(%rbp)
	je	.L199
	.loc 2 1085 0
	movl	-36(%rbp), %eax
	addl	$1608, %eax
	mov	%eax, %eax
	movl	%eax, %edi
	call	mutex_exit
	.loc 2 1086 0
	movl	-20(%rbp), %ebx
	jmp	.L200
	.align 32
.L207:
	.loc 2 1082 0
	nop
	jmp	.L199
	.align 32
.L208:
	nop
	.align 32
.L199:
.LBE20:
	.loc 2 1077 0
	movl	-36(%rbp), %eax
	addl	$1540, %eax
	mov	%eax, %edx
	movl	-24(%rbp), %eax
	movl	%eax, %esi
	movl	%edx, %edi
	call	list_next
	mov	%eax, %eax
	movl	%eax, -24(%rbp)
	.align 32
.L196:
	.loc 2 1076 0
	cmpl	$0, -24(%rbp)
	jne	.L201
	.loc 2 1093 0
	movl	-36(%rbp), %eax
	movl	$0, %edx
	movl	$0, %esi
	movl	%eax, %edi
	call	vdev_clear
	.loc 2 1095 0
	mov	-36(%rbp), %eax
	movl	$0, %nacl:92(%r15,%rax)
	.loc 2 1096 0
	jmp	.L202
	.align 32
.L204:
	.loc 2 1097 0
	movl	-36(%rbp), %eax
	addl	$1540, %eax
	mov	%eax, %edx
	movl	-24(%rbp), %eax
	movl	%eax, %esi
	movl	%edx, %edi
	call	list_remove
	.loc 2 1098 0
	mov	-24(%rbp), %eax
	movl	$0, %nacl:528(%r15,%rax)
	.loc 2 1106 0
	movl	zio_write_retry(%rip), %eax
	testl	%eax, %eax
	je	.L203
	mov	-24(%rbp), %eax
	movl	%nacl:540(%r15,%rax), %eax
	andl	$1024, %eax
	testl	%eax, %eax
	je	.L203
	.loc 2 1107 0
	mov	-24(%rbp), %eax
	movl	%nacl:484(%r15,%rax), %eax
	movl	%eax, %edx
	orl	$524288, %edx
	mov	-24(%rbp), %eax
	movl	%edx, %nacl:484(%r15,%rax)
	.loc 2 1108 0
	mov	-24(%rbp), %eax
	movl	%nacl:496(%r15,%rax), %eax
	leal	-1(%rax), %edx
	mov	-24(%rbp), %eax
	movl	%edx, %nacl:496(%r15,%rax)
	.loc 2 1106 0
	jmp	.L202
	.align 32
.L203:
	.loc 2 1110 0
	mov	-24(%rbp), %eax
	movl	$14, %nacl:496(%r15,%rax)
	.align 32
.L202:
	.loc 2 1096 0
	movl	-36(%rbp), %eax
	addl	$1540, %eax
	mov	%eax, %eax
	movl	%eax, %edi
	call	list_head
	mov	%eax, %eax
	movl	%eax, -24(%rbp)
	cmpl	$0, -24(%rbp)
	jne	.L204
	.loc 2 1117 0
	movl	-36(%rbp), %eax
	addl	$1608, %eax
	mov	%eax, %eax
	movl	%eax, %edi
	call	mutex_exit
	.loc 2 1126 0
	movl	-36(%rbp), %eax
	movl	%eax, %edi
	call	spa_state
	cmpl	$6, %eax
	jne	.L205
	.loc 2 1127 0
	movl	$5, %ebx
	jmp	.L200
	.align 32
.L205:
	.loc 2 1129 0
	movl	-36(%rbp), %eax
	addl	$1608, %eax
	mov	%eax, %eax
	movl	%eax, %edi
	call	mutex_enter
	.loc 2 1130 0
	movl	-36(%rbp), %eax
	addl	$1560, %eax
	mov	%eax, %eax
	movl	%eax, %edi
	call	cv_broadcast
	.loc 2 1131 0
	movl	-36(%rbp), %eax
	addl	$1608, %eax
	mov	%eax, %eax
	movl	%eax, %edi
	call	mutex_exit
	.loc 2 1133 0
	movl	$0, %ebx
	.align 32
.L200:
	movq	8(%rbp), %rsi
	movl	$zio_vdev_resume_io, %edi
	call	__cyg_profile_func_exit
	movl	%ebx, %eax
	.loc 2 1134 0
	naclaspq	$40, %r15
	popq	%rbx
	popq	%r11
	naclrestbp	%r11d, %r15
	popq	%r11
	nacljmp	%r11d,%r15
	.cfi_endproc
.LFE115:
	.size	zio_vdev_resume_io, .-zio_vdev_resume_io
	.align 32
	.type	zio_vdev_suspend_io, @function
zio_vdev_suspend_io:
.LFB116:
	.loc 2 1138 0
	.cfi_startproc
	pushq	%rbp
.LCFI80:
	.cfi_def_cfa_offset 16
	movq	%rsp, %rbp
	.cfi_offset 6, -16
.LCFI81:
	.cfi_def_cfa_register 6
	pushq	%rbx
	naclsspq	$40, %r15
	movl	%edi, -36(%rbp)
	.loc 2 1138 0
	movq	8(%rbp), %rsi
	movl	$zio_vdev_suspend_io, %edi
	.cfi_offset 3, -24
	call	__cyg_profile_func_enter
	.loc 2 1139 0
	mov	-36(%rbp), %eax
	movl	%nacl:8(%r15,%rax), %eax
	movl	%eax, -20(%rbp)
	.loc 2 1146 0
	mov	-20(%rbp), %eax
	movl	$6, %nacl:92(%r15,%rax)
	.loc 2 1148 0
	movl	-20(%rbp), %eax
	addl	$1608, %eax
	mov	%eax, %eax
	movl	%eax, %edi
	call	mutex_enter
	.loc 2 1149 0
	movl	-20(%rbp), %eax
	addl	$1540, %eax
	mov	%eax, %edx
	movl	-36(%rbp), %eax
	movl	%eax, %esi
	movl	%edx, %edi
	call	list_insert_tail
	.loc 2 1153 0
	movl	-20(%rbp), %eax
	addl	$1560, %eax
	mov	%eax, %eax
	movl	%eax, %edi
	call	cv_broadcast
	.loc 2 1155 0
	movl	-20(%rbp), %eax
	addl	$1608, %eax
	mov	%eax, %eax
	movl	%eax, %edi
	call	mutex_exit
	.loc 2 1157 0
	movl	$257, %ebx
	movq	8(%rbp), %rsi
	movl	$zio_vdev_suspend_io, %edi
	call	__cyg_profile_func_exit
	movl	%ebx, %eax
	.loc 2 1158 0
	naclaspq	$40, %r15
	popq	%rbx
	popq	%r11
	naclrestbp	%r11d, %r15
	popq	%r11
	nacljmp	%r11d,%r15
	.cfi_endproc
.LFE116:
	.size	zio_vdev_suspend_io, .-zio_vdev_suspend_io
	.section	.rodata
.LC49:
	.string	""
.LC50:
	.string	"bad checksum"
.LC51:
	.string	"I/O failure"
	.align 8
.LC52:
	.string	"ZFS: %s (%s on %s off %llx: zio %p %s): error %d"
	.align 8
.LC53:
	.string	"Pool '%s' has encountered an uncorrectable I/O failure and the failure mode property for this pool is set to panic."
.LC54:
	.string	"io_failure"
	.text
	.align 32
	.type	zio_handle_io_failure, @function
zio_handle_io_failure:
.LFB117:
	.loc 2 1162 0
	.cfi_startproc
	pushq	%rbp
.LCFI82:
	.cfi_def_cfa_offset 16
	movq	%rsp, %rbp
	.cfi_offset 6, -16
.LCFI83:
	.cfi_def_cfa_register 6
	pushq	%r13
	pushq	%r12
	pushq	%rbx
	naclsspq	$72, %r15
	movl	%edi, -52(%rbp)
	movl	%esi, -56(%rbp)
	.loc 2 1162 0
	movq	8(%rbp), %rsi
	movl	$zio_handle_io_failure, %edi
	.cfi_offset 3, -40
	.cfi_offset 12, -32
	.cfi_offset 13, -24
	call	__cyg_profile_func_enter
	.loc 2 1163 0
	mov	-52(%rbp), %eax
	movl	%nacl:8(%r15,%rax), %eax
	movl	%eax, -44(%rbp)
	.loc 2 1164 0
	mov	-52(%rbp), %eax
	movl	%nacl:72(%r15,%rax), %eax
	movl	%eax, -40(%rbp)
	.loc 2 1168 0
	movl	$0, %esi
	movl	$320, %edi
	call	umem_alloc
	mov	%eax, %eax
	movl	%eax, -36(%rbp)
	.loc 2 1169 0
	cmpl	$0, -36(%rbp)
	je	.L212
	.loc 2 1170 0
	cmpl	$0, -40(%rbp)
	jne	.L213
	movl	-52(%rbp), %eax
	addl	$80, %eax
	mov	%eax, %eax
	jmp	.L214
	.align 32
.L213:
	mov	-40(%rbp), %eax
	.align 32
.L214:
	movl	-36(%rbp), %ecx
	movl	%eax, %edx
	movl	$320, %esi
	movl	%ecx, %edi
	call	sprintf_blkptr
	.align 32
.L212:
	.loc 2 1173 0
	mov	-52(%rbp), %eax
	movl	%nacl:528(%r15,%rax), %r12d
	cmpl	$0, -36(%rbp)
	je	.L215
	mov	-36(%rbp), %ebx
	jmp	.L216
	.align 32
.L215:
	movl	$.LC49, %eax
	mov	%eax, %ebx
	.align 32
.L216:
	mov	-52(%rbp), %eax
	movq	%nacl:416(%r15,%rax), %r13
	movl	-56(%rbp), %eax
	movl	%eax, %edi
	call	vdev_description
	mov	%eax, %esi
	.loc 2 1175 0
	mov	-52(%rbp), %eax
	movl	%nacl:492(%r15,%rax), %eax
	.loc 2 1173 0
	sall	$2, %eax
	cltq
	mov	%nacl:zio_type_name(%r15,%rax), %ecx
	.loc 2 1174 0
	mov	-52(%rbp), %eax
	movl	%nacl:528(%r15,%rax), %eax
	.loc 2 1173 0
	cmpl	$52, %eax
	jne	.L217
	movl	$.LC50, %eax
	mov	%eax, %eax
	jmp	.L218
	.align 32
.L217:
	movl	$.LC51, %eax
	mov	%eax, %eax
	.align 32
.L218:
	movl	%r12d, 16(%rsp)
	movl	%ebx, 8(%rsp)
	movl	-52(%rbp), %edx
	movl	%edx, (%rsp)
	movq	%r13, %r9
	movl	%esi, %r8d
	movl	%eax, %edx
	movl	$.LC52, %esi
	movl	$2, %edi
	movl	$0, %eax
	call	cmn_err
	.loc 2 1178 0
	cmpl	$0, -36(%rbp)
	je	.L219
	.loc 2 1179 0
	movl	-36(%rbp), %eax
	movl	$320, %esi
	movl	%eax, %edi
	call	umem_free
	.align 32
.L219:
	.loc 2 1182 0
	movl	-44(%rbp), %eax
	movl	%eax, %edi
	call	spa_get_failmode
	cmpb	$2, %al
	jne	.L220
	.loc 2 1183 0
	movl	-44(%rbp), %eax
	movl	%eax, %edi
	call	spa_name
	mov	%eax, %eax
	movl	%eax, %esi
	movl	$.LC53, %edi
	movl	$0, %eax
	call	panic
	.align 32
.L220:
	.loc 2 1187 0
	movl	-44(%rbp), %eax
	movl	$0, %r9d
	movl	$0, %r8d
	movl	$0, %ecx
	movl	$0, %edx
	movl	%eax, %esi
	movl	$.LC54, %edi
	call	zfs_ereport_post
	.loc 2 1188 0
	mov	-44(%rbp), %eax
	mov	%nacl:264(%r15,%rax), %eax
	cmpl	%eax, -56(%rbp)
	sete	%al
	movzbl	%al, %ebx
	movl	-56(%rbp), %eax
	movl	$11, %ecx
	movl	$5, %edx
	movl	%ebx, %esi
	movl	%eax, %edi
	call	vdev_set_state
	movq	8(%rbp), %rsi
	movl	$zio_handle_io_failure, %edi
	call	__cyg_profile_func_exit
	.loc 2 1190 0
	naclaspq	$72, %r15
	popq	%rbx
	popq	%r12
	popq	%r13
	popq	%r11
	naclrestbp	%r11d, %r15
	popq	%r11
	nacljmp	%r11d,%r15
	.cfi_endproc
.LFE117:
	.size	zio_handle_io_failure, .-zio_handle_io_failure
	.section	.rodata
	.align 8
.LC55:
	.string	"zio->io_children_notready == 0"
.LC56:
	.string	"zio->io_children_notdone == 0"
.LC57:
	.string	"bp->blk_pad[0] == 0"
.LC58:
	.string	"bp->blk_pad[1] == 0"
.LC59:
	.string	"bp->blk_pad[2] == 0"
	.align 8
.LC60:
	.string	"bcmp(bp, &zio->io_bp_copy, sizeof (blkptr_t)) == 0"
	.align 8
.LC61:
	.string	"!((0 - ((((bp)->blk_prop) >> (63)) & ((1ULL << (1)) - 1))) != (-1ULL))"
	.align 8
.LC62:
	.ascii	"(((((&(bp)->blk_dva[0])->dva_word[1]) >> (63)) & ((1ULL << ("
	.ascii	"1)) - 1)) + ((((&(bp)->blk_dva[1])->dva_word[1]) >> (63)) & "
	.ascii	"((1ULL << (1)) - 1)) + ((((&(bp)->blk_dva[2])->dva_word[1]) "
	.ascii	">> (63)) & ((1ULL << (1)) - 1))) == 0 || ((((((&(bp)->blk_dv"
	.ascii	"a[0])->dva_word[1]) >> (63)) & ((1ULL << (1)) - 1)) + ((((&("
	.ascii	"bp)->blk_dva[1])->dva_word[1]) >> (63)) & ((1ULL << (1)) - 1"
	.ascii	")) + ((((&(bp)->blk_dva[2])->dva_word[1]) >> (63)) & ((1ULL "
	.ascii	"<< (1)) - 1))) == (!!((((((&(bp)"
	.string	"->blk_dva[0])->dva_word[0]) >> (0)) & ((1ULL << (24)) - 1)) + (0)) << (9)) + !!((((((&(bp)->blk_dva[1])->dva_word[0]) >> (0)) & ((1ULL << (24)) - 1)) + (0)) << (9)) + !!((((((&(bp)->blk_dva[2])->dva_word[0]) >> (0)) & ((1ULL << (24)) - 1)) + (0)) << (9))))"
.LC63:
	.string	"io"
.LC64:
	.string	"data"
.LC65:
	.string	"!(zio->io_flags & 0x80000)"
	.text
	.align 32
	.type	zio_assess, @function
zio_assess:
.LFB118:
	.loc 2 1194 0
	.cfi_startproc
	pushq	%rbp
.LCFI84:
	.cfi_def_cfa_offset 16
	movq	%rsp, %rbp
	.cfi_offset 6, -16
.LCFI85:
	.cfi_def_cfa_register 6
	pushq	%rbx
	naclsspq	$104, %r15
	movl	%edi, -68(%rbp)
	.loc 2 1194 0
	movq	8(%rbp), %rsi
	movl	$zio_assess, %edi
	.cfi_offset 3, -24
	call	__cyg_profile_func_enter
	.loc 2 1195 0
	mov	-68(%rbp), %eax
	movl	%nacl:8(%r15,%rax), %eax
	movl	%eax, -52(%rbp)
	.loc 2 1196 0
	mov	-68(%rbp), %eax
	movl	%nacl:72(%r15,%rax), %eax
	movl	%eax, -48(%rbp)
	.loc 2 1197 0
	mov	-68(%rbp), %eax
	movl	%nacl:392(%r15,%rax), %eax
	movl	%eax, -44(%rbp)
	.loc 2 1199 0
	mov	-68(%rbp), %eax
	movq	%nacl:544(%r15,%rax), %rax
	testq	%rax, %rax
	je	.L223
	movl	$__PRETTY_FUNCTION__.10466, %ecx
	movl	$1199, %edx
	movl	$.LC12, %esi
	movl	$.LC55, %edi
	call	__assert_fail
	.align 32
.L223:
	.loc 2 1200 0
	mov	-68(%rbp), %eax
	movq	%nacl:552(%r15,%rax), %rax
	testq	%rax, %rax
	je	.L224
	movl	$__PRETTY_FUNCTION__.10466, %ecx
	movl	$1200, %edx
	movl	$.LC12, %esi
	movl	$.LC56, %edi
	call	__assert_fail
	.align 32
.L224:
	.loc 2 1202 0
	cmpl	$0, -48(%rbp)
	je	.L225
	.loc 2 1203 0
	mov	-48(%rbp), %eax
	movq	%nacl:56(%r15,%rax), %rax
	testq	%rax, %rax
	je	.L226
	movl	$__PRETTY_FUNCTION__.10466, %ecx
	movl	$1203, %edx
	movl	$.LC12, %esi
	movl	$.LC57, %edi
	call	__assert_fail
	.align 32
.L226:
	.loc 2 1204 0
	mov	-48(%rbp), %eax
	movq	%nacl:64(%r15,%rax), %rax
	testq	%rax, %rax
	je	.L227
	movl	$__PRETTY_FUNCTION__.10466, %ecx
	movl	$1204, %edx
	movl	$.LC12, %esi
	movl	$.LC58, %edi
	call	__assert_fail
	.align 32
.L227:
	.loc 2 1205 0
	mov	-48(%rbp), %eax
	movq	%nacl:72(%r15,%rax), %rax
	testq	%rax, %rax
	je	.L228
	movl	$__PRETTY_FUNCTION__.10466, %ecx
	movl	$1205, %edx
	movl	$.LC12, %esi
	movl	$.LC59, %edi
	call	__assert_fail
	.align 32
.L228:
	.loc 2 1206 0
	movl	-68(%rbp), %eax
	addl	$80, %eax
	mov	%eax, %ecx
	movl	-48(%rbp), %eax
	movl	$128, %edx
	movl	%ecx, %esi
	movl	%eax, %edi
	call	bcmp
	testl	%eax, %eax
	je	.L229
	movl	$__PRETTY_FUNCTION__.10466, %ecx
	movl	$1206, %edx
	movl	$.LC12, %esi
	movl	$.LC60, %edi
	call	__assert_fail
	.align 32
.L229:
	.loc 2 1207 0
	mov	-68(%rbp), %eax
	movl	%nacl:492(%r15,%rax), %eax
	cmpl	$2, %eax
	jne	.L225
	mov	-48(%rbp), %eax
	movq	%nacl:80(%r15,%rax), %rax
	testq	%rax, %rax
	je	.L225
	.loc 2 1208 0
	mov	-68(%rbp), %eax
	movl	%nacl:484(%r15,%rax), %eax
	andl	$1024, %eax
	.loc 2 1207 0
	testl	%eax, %eax
	jne	.L225
	.loc 2 1209 0
	mov	-48(%rbp), %eax
	movq	%nacl:48(%r15,%rax), %rax
	sarq	$63, %rax
	cmpq	$-1, %rax
	je	.L230
	movl	$__PRETTY_FUNCTION__.10466, %ecx
	movl	$1209, %edx
	movl	$.LC12, %esi
	movl	$.LC61, %edi
	call	__assert_fail
	.align 32
.L230:
	.loc 2 1210 0
	mov	-68(%rbp), %eax
	movl	%nacl:56(%r15,%rax), %eax
	testl	%eax, %eax
	je	.L231
.LBB21:
	.loc 2 1211 0
	mov	-68(%rbp), %eax
	movl	%nacl:56(%r15,%rax), %eax
	cltq
	movq	%rax, -40(%rbp)
	mov	-48(%rbp), %eax
	movq	%nacl:(%r15,%rax), %rax
	andl	$16777215, %eax
	salq	$9, %rax
	testq	%rax, %rax
	setne	%al
	movzbl	%al, %edx
	movl	-48(%rbp), %eax
	addl	$16, %eax
	mov	%eax, %eax
	movq	%nacl:(%r15,%rax), %rax
	andl	$16777215, %eax
	salq	$9, %rax
	testq	%rax, %rax
	setne	%al
	movzbl	%al, %eax
	addl	%eax, %edx
	movl	-48(%rbp), %eax
	addl	$32, %eax
	mov	%eax, %eax
	movq	%nacl:(%r15,%rax), %rax
	andl	$16777215, %eax
	salq	$9, %rax
	testq	%rax, %rax
	setne	%al
	movzbl	%al, %eax
	leal	(%rdx,%rax), %eax
	cltq
	movq	%rax, -32(%rbp)
	movq	-40(%rbp), %rax
	cmpq	-32(%rbp), %rax
	jbe	.L231
.LBB22:
	naclsspq	$272, %r15
	leal	24(%rsp), %eax
	addq	$15, %rax
	shrq	$4, %rax
	salq	$4, %rax
	mov	%eax, %eax
	movl	%eax, -24(%rbp)
	movl	$.LC17, %eax
	mov	%eax, %ebx
	movl	-24(%rbp), %eax
	movq	-32(%rbp), %rdx
	movq	%rdx, 16(%rsp)
	movl	$.LC19, 8(%rsp)
	movq	-40(%rbp), %rdx
	movq	%rdx, (%rsp)
	movl	$.LC30, %r9d
	movl	$.LC19, %r8d
	movl	$.LC31, %ecx
	movl	%ebx, %edx
	movl	$256, %esi
	movl	%eax, %edi
	movl	$0, %eax
	call	snprintf
	movl	-24(%rbp), %eax
	movl	$1211, %edx
	movl	$.LC12, %esi
	movl	%eax, %edi
	call	__assert
	.align 32
.L231:
.LBE22:
.LBE21:
	.loc 2 1212 0
	mov	-48(%rbp), %eax
	movq	%nacl:8(%r15,%rax), %rax
	movq	%rax, %rdx
	shrq	$63, %rdx
	movl	-48(%rbp), %eax
	addl	$16, %eax
	mov	%eax, %eax
	movq	%nacl:8(%r15,%rax), %rax
	shrq	$63, %rax
	addq	%rax, %rdx
	movl	-48(%rbp), %eax
	addl	$32, %eax
	mov	%eax, %eax
	movq	%nacl:8(%r15,%rax), %rax
	shrq	$63, %rax
	leaq	(%rdx,%rax), %rax
	testq	%rax, %rax
	je	.L225
	mov	-48(%rbp), %eax
	movq	%nacl:8(%r15,%rax), %rax
	movq	%rax, %rdx
	shrq	$63, %rdx
	movl	-48(%rbp), %eax
	addl	$16, %eax
	mov	%eax, %eax
	movq	%nacl:8(%r15,%rax), %rax
	shrq	$63, %rax
	addq	%rax, %rdx
	movl	-48(%rbp), %eax
	addl	$32, %eax
	mov	%eax, %eax
	movq	%nacl:8(%r15,%rax), %rax
	shrq	$63, %rax
	leaq	(%rdx,%rax), %rcx
	mov	-48(%rbp), %eax
	movq	%nacl:(%r15,%rax), %rax
	andl	$16777215, %eax
	salq	$9, %rax
	testq	%rax, %rax
	setne	%al
	movzbl	%al, %edx
	movl	-48(%rbp), %eax
	addl	$16, %eax
	mov	%eax, %eax
	movq	%nacl:(%r15,%rax), %rax
	andl	$16777215, %eax
	salq	$9, %rax
	testq	%rax, %rax
	setne	%al
	movzbl	%al, %eax
	addl	%eax, %edx
	movl	-48(%rbp), %eax
	addl	$32, %eax
	mov	%eax, %eax
	movq	%nacl:(%r15,%rax), %rax
	andl	$16777215, %eax
	salq	$9, %rax
	testq	%rax, %rax
	setne	%al
	movzbl	%al, %eax
	leal	(%rdx,%rax), %eax
	cltq
	cmpq	%rax, %rcx
	je	.L225
	movl	$__PRETTY_FUNCTION__.10466, %ecx
	movl	$1213, %edx
	movl	$.LC12, %esi
	movl	$.LC62, %edi
	call	__assert_fail
	.align 32
.L225:
	.loc 2 1222 0
	mov	-68(%rbp), %eax
	movl	%nacl:484(%r15,%rax), %eax
	andl	$524288, %eax
	testl	%eax, %eax
	je	.L232
	.loc 2 1223 0
	mov	-68(%rbp), %eax
	movl	$85, %nacl:528(%r15,%rax)
	.align 32
.L232:
	.loc 2 1225 0
	cmpl	$0, -44(%rbp)
	je	.L233
	.loc 2 1226 0
	movl	-68(%rbp), %eax
	movl	%eax, %edi
	call	vdev_stat_update
	.align 32
.L233:
	.loc 2 1228 0
	mov	-68(%rbp), %eax
	movl	%nacl:528(%r15,%rax), %eax
	testl	%eax, %eax
	je	.L234
	.loc 2 1235 0
	mov	-68(%rbp), %eax
	movl	%nacl:528(%r15,%rax), %eax
	cmpl	$52, %eax
	je	.L235
	cmpl	$0, -44(%rbp)
	je	.L235
	movl	-44(%rbp), %eax
	movl	%eax, %edi
	call	vdev_is_dead
	testl	%eax, %eax
	jne	.L235
	.loc 2 1236 0
	movl	-68(%rbp), %ecx
	movl	-44(%rbp), %edx
	movl	-52(%rbp), %eax
	movl	$0, %r9d
	movl	$0, %r8d
	movl	%eax, %esi
	movl	$.LC63, %edi
	call	zfs_ereport_post
	.align 32
.L235:
	.loc 2 1238 0
	mov	-68(%rbp), %eax
	movl	%nacl:528(%r15,%rax), %eax
	cmpl	$5, %eax
	je	.L236
	.loc 2 1239 0
	mov	-68(%rbp), %eax
	movl	%nacl:484(%r15,%rax), %eax
	andl	$2048, %eax
	.loc 2 1238 0
	testl	%eax, %eax
	jne	.L237
	.align 32
.L236:
	.loc 2 1240 0
	mov	-68(%rbp), %eax
	mov	%nacl:224(%r15,%rax), %eax
	.loc 2 1238 0
	cmpl	%eax, -68(%rbp)
	jne	.L237
	.loc 2 1246 0
	movl	-68(%rbp), %edx
	movl	-52(%rbp), %eax
	movl	%edx, %esi
	movl	%eax, %edi
	call	spa_log_error
	.loc 2 1248 0
	movl	-68(%rbp), %edx
	movl	-52(%rbp), %eax
	movl	$0, %r9d
	movl	$0, %r8d
	movl	%edx, %ecx
	movl	$0, %edx
	movl	%eax, %esi
	movl	$.LC64, %edi
	call	zfs_ereport_post
	.align 32
.L237:
	.loc 2 1258 0
	movl	zio_write_retry(%rip), %eax
	testl	%eax, %eax
	jne	.L238
	movzwl	zio_io_fail_shift(%rip), %eax
	testw	%ax, %ax
	je	.L239
	.align 32
.L238:
	.loc 2 1259 0
	mov	-68(%rbp), %eax
	movl	%nacl:528(%r15,%rax), %eax
	.loc 2 1258 0
	cmpl	$28, %eax
	je	.L239
	.loc 2 1259 0
	mov	-68(%rbp), %eax
	movl	%nacl:540(%r15,%rax), %eax
	andl	$1024, %eax
	.loc 2 1258 0
	testl	%eax, %eax
	je	.L239
	.loc 2 1260 0
	movl	-68(%rbp), %eax
	movl	%eax, %edi
	call	zio_vdev_retry_io
	movl	%eax, %ebx
	jmp	.L240
	.align 32
.L239:
	.loc 2 1262 0
	mov	-68(%rbp), %eax
	movl	%nacl:484(%r15,%rax), %eax
	andl	$524288, %eax
	testl	%eax, %eax
	je	.L241
	movl	$__PRETTY_FUNCTION__.10466, %ecx
	movl	$1262, %edx
	movl	$.LC12, %esi
	movl	$.LC65, %edi
	call	__assert_fail
	.align 32
.L241:
	.loc 2 1272 0
	mov	-68(%rbp), %eax
	movl	%nacl:484(%r15,%rax), %eax
	andl	$1, %eax
	testl	%eax, %eax
	jne	.L234
.LBB23:
	.loc 2 1275 0
	movl	$0, -20(%rbp)
	jmp	.L242
	.align 32
.L243:
	.loc 2 1277 0
	mov	-68(%rbp), %eax
	mov	%nacl:396(%r15,%rax), %eax
	movl	-20(%rbp), %edx
	sall	$2, %edx
	leal	(%rdx,%rax), %eax
	mov	%eax, %eax
	.loc 2 1276 0
	mov	%nacl:(%r15,%rax), %edx
	movl	-68(%rbp), %eax
	movl	%edx, %esi
	movl	%eax, %edi
	call	zio_handle_io_failure
	.loc 2 1275 0
	addl	$1, -20(%rbp)
	.align 32
.L242:
	movl	-20(%rbp), %eax
	movslq	%eax,%rdx
	mov	-68(%rbp), %eax
	movq	%nacl:400(%r15,%rax), %rax
	cmpq	%rax, %rdx
	jb	.L243
	.loc 2 1279 0
	mov	-68(%rbp), %eax
	movq	%nacl:400(%r15,%rax), %rax
	testq	%rax, %rax
	jne	.L244
	.loc 2 1280 0
	cmpl	$0, -44(%rbp)
	jne	.L245
	mov	-52(%rbp), %eax
	mov	%nacl:264(%r15,%rax), %eax
	jmp	.L246
	.align 32
.L245:
	mov	-44(%rbp), %eax
	.align 32
.L246:
	movl	-68(%rbp), %edx
	movl	%eax, %esi
	movl	%edx, %edi
	call	zio_handle_io_failure
	.align 32
.L244:
	.loc 2 1283 0
	mov	-68(%rbp), %eax
	mov	%nacl:396(%r15,%rax), %eax
	testq	%rax, %rax
	je	.L247
	.loc 2 1284 0
	mov	-68(%rbp), %eax
	movq	%nacl:400(%r15,%rax), %rax
	leal	0(,%rax,4), %edx
	mov	-68(%rbp), %eax
	mov	%nacl:396(%r15,%rax), %eax
	movl	%edx, %esi
	movl	%eax, %edi
	call	umem_free
	.loc 2 1287 0
	mov	-68(%rbp), %eax
	movl	$0, %nacl:396(%r15,%rax)
	.loc 2 1288 0
	mov	-68(%rbp), %eax
	movq	$0, %nacl:400(%r15,%rax)
	.align 32
.L247:
	.loc 2 1290 0
	movl	-68(%rbp), %eax
	movl	%eax, %edi
	call	zio_vdev_suspend_io
	movl	%eax, %ebx
	jmp	.L240
	.align 32
.L234:
.LBE23:
	.loc 2 1293 0
	mov	-68(%rbp), %eax
	movl	%nacl:484(%r15,%rax), %eax
	andl	$524288, %eax
	testl	%eax, %eax
	je	.L248
	movl	$__PRETTY_FUNCTION__.10466, %ecx
	movl	$1293, %edx
	movl	$.LC12, %esi
	movl	$.LC65, %edi
	call	__assert_fail
	.align 32
.L248:
	.loc 2 1294 0
	mov	-68(%rbp), %eax
	movq	%nacl:544(%r15,%rax), %rax
	testq	%rax, %rax
	je	.L249
	movl	$__PRETTY_FUNCTION__.10466, %ecx
	movl	$1294, %edx
	movl	$.LC12, %esi
	movl	$.LC55, %edi
	call	__assert_fail
	.align 32
.L249:
	.loc 2 1296 0
	movl	$256, %ebx
	.align 32
.L240:
	movq	8(%rbp), %rsi
	movl	$zio_assess, %edi
	call	__cyg_profile_func_exit
	movl	%ebx, %eax
	.loc 2 1297 0
	movq	-8(%rbp), %rbx
	movq	%rbp, %rsp
	popq	%r11
	naclrestbp	%r11d, %r15
	popq	%r11
	nacljmp	%r11d,%r15
	.cfi_endproc
.LFE118:
	.size	zio_assess, .-zio_assess
	.section	.rodata
	.align 8
.LC66:
	.string	"zio->io_delegate_list == ((void *)0)"
	.align 8
.LC67:
	.string	"zio->io_delegate_next == ((void *)0)"
	.align 8
.LC68:
	.string	"zio->io_stage == ZIO_STAGE_DONE"
	.text
	.align 32
	.type	zio_done, @function
zio_done:
.LFB119:
	.loc 2 1301 0
	.cfi_startproc
	pushq	%rbp
.LCFI86:
	.cfi_def_cfa_offset 16
	movq	%rsp, %rbp
	.cfi_offset 6, -16
.LCFI87:
	.cfi_def_cfa_register 6
	pushq	%rbx
	naclsspq	$40, %r15
	movl	%edi, -36(%rbp)
	.loc 2 1301 0
	movq	8(%rbp), %rsi
	movl	$zio_done, %edi
	.cfi_offset 3, -24
	call	__cyg_profile_func_enter
	.loc 2 1302 0
	mov	-36(%rbp), %eax
	movl	%nacl:(%r15,%rax), %eax
	movl	%eax, -32(%rbp)
	.loc 2 1303 0
	mov	-36(%rbp), %eax
	movl	%nacl:8(%r15,%rax), %eax
	movl	%eax, -28(%rbp)
	.loc 2 1305 0
	mov	-36(%rbp), %eax
	movq	%nacl:544(%r15,%rax), %rax
	testq	%rax, %rax
	je	.L252
	movl	$__PRETTY_FUNCTION__.10657, %ecx
	movl	$1305, %edx
	movl	$.LC12, %esi
	movl	$.LC55, %edi
	call	__assert_fail
	.align 32
.L252:
	.loc 2 1306 0
	mov	-36(%rbp), %eax
	movq	%nacl:552(%r15,%rax), %rax
	testq	%rax, %rax
	je	.L253
	movl	$__PRETTY_FUNCTION__.10657, %ecx
	movl	$1306, %edx
	movl	$.LC12, %esi
	movl	$.LC56, %edi
	call	__assert_fail
	.align 32
.L253:
	.loc 2 1308 0
	movl	-36(%rbp), %eax
	movl	%eax, %edi
	call	zio_clear_transform_stack
	.loc 2 1310 0
	mov	-36(%rbp), %eax
	mov	%nacl:240(%r15,%rax), %eax
	testq	%rax, %rax
	je	.L254
	.loc 2 1311 0
	mov	-36(%rbp), %eax
	mov	%nacl:240(%r15,%rax), %eax
	movl	-36(%rbp), %edx
	movl	%edx, %edi
	naclcall	%eax,%r15
	.align 32
.L254:
	.loc 2 1313 0
	mov	-36(%rbp), %eax
	mov	%nacl:476(%r15,%rax), %eax
	testq	%rax, %rax
	je	.L255
	movl	$__PRETTY_FUNCTION__.10657, %ecx
	movl	$1313, %edx
	movl	$.LC12, %esi
	movl	$.LC66, %edi
	call	__assert_fail
	.align 32
.L255:
	.loc 2 1314 0
	mov	-36(%rbp), %eax
	mov	%nacl:480(%r15,%rax), %eax
	testq	%rax, %rax
	je	.L256
	movl	$__PRETTY_FUNCTION__.10657, %ecx
	movl	$1314, %edx
	movl	$.LC12, %esi
	movl	$.LC67, %edi
	call	__assert_fail
	.align 32
.L256:
	.loc 2 1316 0
	cmpl	$0, -32(%rbp)
	je	.L257
.LBB24:
	.loc 2 1319 0
	movl	-32(%rbp), %eax
	addl	$564, %eax
	mov	%eax, %eax
	movl	%eax, %edi
	call	mutex_enter
	.loc 2 1320 0
	mov	-36(%rbp), %eax
	movl	%nacl:216(%r15,%rax), %eax
	movl	%eax, -24(%rbp)
	.loc 2 1321 0
	mov	-36(%rbp), %eax
	movl	%nacl:212(%r15,%rax), %eax
	movl	%eax, -20(%rbp)
	.loc 2 1322 0
	cmpl	$0, -24(%rbp)
	je	.L258
	.loc 2 1323 0
	mov	-24(%rbp), %eax
	movl	-20(%rbp), %edx
	movl	%edx, %nacl:212(%r15,%rax)
	.align 32
.L258:
	.loc 2 1324 0
	cmpl	$0, -20(%rbp)
	je	.L259
	.loc 2 1325 0
	mov	-20(%rbp), %eax
	movl	-24(%rbp), %edx
	movl	%edx, %nacl:216(%r15,%rax)
	.align 32
.L259:
	.loc 2 1326 0
	mov	-32(%rbp), %eax
	mov	%nacl:208(%r15,%rax), %eax
	cmpl	%eax, -36(%rbp)
	jne	.L260
	.loc 2 1327 0
	mov	-32(%rbp), %eax
	movl	-24(%rbp), %edx
	movl	%edx, %nacl:208(%r15,%rax)
	.align 32
.L260:
	.loc 2 1328 0
	movl	-32(%rbp), %eax
	addl	$564, %eax
	mov	%eax, %eax
	movl	%eax, %edi
	call	mutex_exit
	.loc 2 1330 0
	movl	-32(%rbp), %eax
	addl	$552, %eax
	mov	%eax, %edx
	movl	-36(%rbp), %eax
	movl	$18, %esi
	movl	%eax, %edi
	call	zio_notify_parent
	.align 32
.L257:
.LBE24:
	.loc 2 1338 0
	mov	-36(%rbp), %eax
	movl	%nacl:484(%r15,%rax), %eax
	andl	$8, %eax
	testl	%eax, %eax
	je	.L261
	.loc 2 1339 0
	movl	-36(%rbp), %edx
	movl	-28(%rbp), %eax
	movl	%edx, %esi
	movl	%eax, %edi
	call	spa_config_exit
	.align 32
.L261:
	.loc 2 1341 0
	mov	-36(%rbp), %eax
	mov	%nacl:560(%r15,%rax), %eax
	testq	%rax, %rax
	je	.L262
	.loc 2 1342 0
	movl	-36(%rbp), %eax
	addl	$564, %eax
	mov	%eax, %eax
	movl	%eax, %edi
	call	mutex_enter
	.loc 2 1343 0
	mov	-36(%rbp), %eax
	movl	%nacl:496(%r15,%rax), %eax
	cmpl	$23, %eax
	je	.L263
	movl	$__PRETTY_FUNCTION__.10657, %ecx
	movl	$1343, %edx
	movl	$.LC12, %esi
	movl	$.LC68, %edi
	call	__assert_fail
	.align 32
.L263:
	.loc 2 1344 0
	mov	-36(%rbp), %eax
	movl	%nacl:496(%r15,%rax), %eax
	movl	%eax, %edx
	mov	-36(%rbp), %eax
	movb	%dl, %nacl:504(%r15,%rax)
	.loc 2 1345 0
	movl	-36(%rbp), %eax
	addl	$616, %eax
	mov	%eax, %eax
	movl	%eax, %edi
	call	cv_broadcast
	.loc 2 1346 0
	movl	-36(%rbp), %eax
	addl	$564, %eax
	mov	%eax, %eax
	movl	%eax, %edi
	call	mutex_exit
	jmp	.L264
	.align 32
.L262:
	.loc 2 1348 0
	movl	-36(%rbp), %eax
	movl	%eax, %edi
	call	zio_destroy
	.align 32
.L264:
	.loc 2 1351 0
	movl	$257, %ebx
	movq	8(%rbp), %rsi
	movl	$zio_done, %edi
	call	__cyg_profile_func_exit
	movl	%ebx, %eax
	.loc 2 1352 0
	naclaspq	$40, %r15
	popq	%rbx
	popq	%r11
	naclrestbp	%r11d, %r15
	popq	%r11
	nacljmp	%r11d,%r15
	.cfi_endproc
.LFE119:
	.size	zio_done, .-zio_done
	.section	.rodata
.LC69:
	.string	"((bp)->blk_birth == 0)"
.LC70:
	.string	"csize != 0"
	.text
	.align 32
	.type	zio_write_compress, @function
zio_write_compress:
.LFB120:
	.loc 2 1361 0
	.cfi_startproc
	pushq	%rbp
.LCFI88:
	.cfi_def_cfa_offset 16
	movq	%rsp, %rbp
	.cfi_offset 6, -16
.LCFI89:
	.cfi_def_cfa_register 6
	pushq	%rbx
	naclsspq	$136, %r15
	movl	%edi, -100(%rbp)
	.loc 2 1361 0
	movq	8(%rbp), %rsi
	movl	$zio_write_compress, %edi
	.cfi_offset 3, -24
	call	__cyg_profile_func_enter
	.loc 2 1362 0
	mov	-100(%rbp), %eax
	movl	%nacl:52(%r15,%rax), %eax
	movl	%eax, -64(%rbp)
	.loc 2 1363 0
	mov	-100(%rbp), %eax
	movl	%nacl:72(%r15,%rax), %eax
	movl	%eax, -60(%rbp)
	.loc 2 1365 0
	mov	-100(%rbp), %eax
	movq	%nacl:384(%r15,%rax), %rax
	movq	%rax, -56(%rbp)
	.loc 2 1366 0
	movq	-56(%rbp), %rax
	movq	%rax, -80(%rbp)
	.loc 2 1367 0
	movq	$0, -88(%rbp)
	.loc 2 1370 0
	mov	-60(%rbp), %eax
	movq	%nacl:80(%r15,%rax), %rdx
	mov	-100(%rbp), %eax
	movq	%nacl:64(%r15,%rax), %rax
	cmpq	%rax, %rdx
	jne	.L267
	.loc 2 1380 0
	mov	-100(%rbp), %eax
	mov	%nacl:8(%r15,%rax), %eax
	movl	%eax, %edi
	call	spa_sync_pass
	movl	%eax, -44(%rbp)
	.loc 2 1381 0
	movl	zio_sync_pass+4(%rip), %eax
	cmpl	-44(%rbp), %eax
	jge	.L282
	.loc 2 1382 0
	movl	$2, -64(%rbp)
	jmp	.L269
	.align 32
.L267:
	.loc 2 1384 0
	mov	-60(%rbp), %eax
	movq	%nacl:80(%r15,%rax), %rax
	testq	%rax, %rax
	je	.L270
	movl	$__PRETTY_FUNCTION__.10715, %ecx
	movl	$1384, %edx
	movl	$.LC12, %esi
	movl	$.LC69, %edi
	call	__assert_fail
	.align 32
.L270:
	.loc 2 1385 0
	movl	$1, -44(%rbp)
	jmp	.L269
	.align 32
.L282:
	.loc 2 1382 0
	nop
	.align 32
.L269:
	.loc 2 1388 0
	cmpl	$2, -64(%rbp)
	je	.L271
	.loc 2 1389 0
	mov	-100(%rbp), %eax
	movq	%nacl:384(%r15,%rax), %rdx
	mov	-100(%rbp), %eax
	mov	%nacl:376(%r15,%rax), %ebx
	leal	-88(%rbp), %edi
	leal	-80(%rbp), %esi
	leal	-68(%rbp), %ecx
	movl	-64(%rbp), %eax
	movl	%edi, %r9d
	movl	%esi, %r8d
	movl	%ebx, %esi
	movl	%eax, %edi
	call	zio_compress_data
	testl	%eax, %eax
	jne	.L271
	.loc 2 1391 0
	movl	$2, -64(%rbp)
	.align 32
.L271:
	.loc 2 1393 0
	cmpl	$2, -64(%rbp)
	je	.L272
	movq	-80(%rbp), %rax
	testq	%rax, %rax
	je	.L272
	.loc 2 1394 0
	movq	-88(%rbp), %rcx
	movq	-80(%rbp), %rdx
	mov	-68(%rbp), %ebx
	movl	-100(%rbp), %eax
	movl	%ebx, %esi
	movl	%eax, %edi
	call	zio_push_transform
	.align 32
.L272:
	.loc 2 1404 0
	mov	-60(%rbp), %eax
	movq	%nacl:80(%r15,%rax), %rdx
	mov	-100(%rbp), %eax
	movq	%nacl:64(%r15,%rax), %rax
	cmpq	%rax, %rdx
	jne	.L273
	mov	-60(%rbp), %eax
	movq	%nacl:48(%r15,%rax), %rax
	shrq	$16, %rax
	andl	$65535, %eax
	addq	$1, %rax
	movq	%rax, %rdx
	salq	$9, %rdx
	movq	-80(%rbp), %rax
	cmpq	%rax, %rdx
	jne	.L273
	.loc 2 1405 0
	movl	zio_sync_pass+8(%rip), %eax
	.loc 2 1404 0
	cmpl	-44(%rbp), %eax
	jge	.L273
	.loc 2 1406 0
	movq	-80(%rbp), %rax
	testq	%rax, %rax
	jne	.L274
	movl	$__PRETTY_FUNCTION__.10715, %ecx
	movl	$1406, %edx
	movl	$.LC12, %esi
	movl	$.LC70, %edi
	call	__assert_fail
	.align 32
.L274:
	.loc 2 1407 0
	mov	-60(%rbp), %eax
	movq	%nacl:48(%r15,%rax), %rdx
	mov	-60(%rbp), %eax
	movq	%nacl:48(%r15,%rax), %rax
	movq	-56(%rbp), %rcx
	shrq	$9, %rcx
	subq	$1, %rcx
	xorq	%rcx, %rax
	andl	$65535, %eax
	xorq	%rax, %rdx
	mov	-60(%rbp), %eax
	movq	%rdx, %nacl:48(%r15,%rax)
	.loc 2 1408 0
	mov	-60(%rbp), %eax
	movq	%nacl:48(%r15,%rax), %rdx
	mov	-60(%rbp), %eax
	movq	%nacl:48(%r15,%rax), %rax
	movq	%rax, %rcx
	shrq	$32, %rcx
	movl	-64(%rbp), %eax
	cltq
	xorq	%rcx, %rax
	andl	$255, %eax
	salq	$32, %rax
	xorq	%rax, %rdx
	mov	-60(%rbp), %eax
	movq	%rdx, %nacl:48(%r15,%rax)
	.loc 2 1409 0
	mov	-60(%rbp), %eax
	movq	%nacl:8(%r15,%rax), %rax
	testq	%rax, %rax
	jns	.L275
	movl	$13099242, %eax
	jmp	.L276
	.align 32
.L275:
	movl	$13090858, %eax
	.align 32
.L276:
	mov	-100(%rbp), %edx
	movl	%eax, %nacl:536(%r15,%rdx)
	.loc 2 1404 0
	jmp	.L277
	.align 32
.L273:
	.loc 2 1411 0
	mov	-60(%rbp), %eax
	movq	%nacl:80(%r15,%rax), %rdx
	mov	-100(%rbp), %eax
	movq	%nacl:64(%r15,%rax), %rax
	cmpq	%rax, %rdx
	jne	.L278
	.loc 2 1412 0
	mov	-60(%rbp), %eax
	movq	$0, %nacl:(%r15,%rax)
	mov	-60(%rbp), %eax
	movq	$0, %nacl:8(%r15,%rax)
	mov	-60(%rbp), %eax
	movq	$0, %nacl:16(%r15,%rax)
	mov	-60(%rbp), %eax
	movq	$0, %nacl:24(%r15,%rax)
	mov	-60(%rbp), %eax
	movq	$0, %nacl:32(%r15,%rax)
	mov	-60(%rbp), %eax
	movq	$0, %nacl:40(%r15,%rax)
	mov	-60(%rbp), %eax
	movq	$0, %nacl:80(%r15,%rax)
	mov	-60(%rbp), %eax
	movq	$0, %nacl:48(%r15,%rax)
	mov	-60(%rbp), %eax
	movq	$0, %nacl:56(%r15,%rax)
	mov	-60(%rbp), %eax
	movq	$0, %nacl:64(%r15,%rax)
	mov	-60(%rbp), %eax
	movq	$0, %nacl:72(%r15,%rax)
	mov	-60(%rbp), %eax
	movq	$0, %nacl:88(%r15,%rax)
	mov	-60(%rbp), %eax
	movq	$0, %nacl:96(%r15,%rax)
	mov	-60(%rbp), %eax
	movq	$0, %nacl:104(%r15,%rax)
	mov	-60(%rbp), %eax
	movq	$0, %nacl:112(%r15,%rax)
	mov	-60(%rbp), %eax
	movq	$0, %nacl:120(%r15,%rax)
	.align 32
.L278:
	.loc 2 1413 0
	movq	-80(%rbp), %rax
	testq	%rax, %rax
	jne	.L279
	.loc 2 1414 0
	mov	-60(%rbp), %eax
	movq	$0, %nacl:(%r15,%rax)
	mov	-60(%rbp), %eax
	movq	$0, %nacl:8(%r15,%rax)
	mov	-60(%rbp), %eax
	movq	$0, %nacl:16(%r15,%rax)
	mov	-60(%rbp), %eax
	movq	$0, %nacl:24(%r15,%rax)
	mov	-60(%rbp), %eax
	movq	$0, %nacl:32(%r15,%rax)
	mov	-60(%rbp), %eax
	movq	$0, %nacl:40(%r15,%rax)
	mov	-60(%rbp), %eax
	movq	$0, %nacl:80(%r15,%rax)
	mov	-60(%rbp), %eax
	movq	$0, %nacl:48(%r15,%rax)
	mov	-60(%rbp), %eax
	movq	$0, %nacl:56(%r15,%rax)
	mov	-60(%rbp), %eax
	movq	$0, %nacl:64(%r15,%rax)
	mov	-60(%rbp), %eax
	movq	$0, %nacl:72(%r15,%rax)
	mov	-60(%rbp), %eax
	movq	$0, %nacl:88(%r15,%rax)
	mov	-60(%rbp), %eax
	movq	$0, %nacl:96(%r15,%rax)
	mov	-60(%rbp), %eax
	movq	$0, %nacl:104(%r15,%rax)
	mov	-60(%rbp), %eax
	movq	$0, %nacl:112(%r15,%rax)
	mov	-60(%rbp), %eax
	movq	$0, %nacl:120(%r15,%rax)
	.loc 2 1415 0
	mov	-100(%rbp), %eax
	movl	$12861442, %nacl:536(%r15,%rax)
	jmp	.L277
	.align 32
.L279:
.LBB25:
	.loc 2 1417 0
	mov	-60(%rbp), %eax
	movq	%nacl:(%r15,%rax), %rax
	andl	$16777215, %eax
	salq	$9, %rax
	testq	%rax, %rax
	setne	%al
	movzbl	%al, %edx
	movl	-60(%rbp), %eax
	addl	$16, %eax
	mov	%eax, %eax
	movq	%nacl:(%r15,%rax), %rax
	andl	$16777215, %eax
	salq	$9, %rax
	testq	%rax, %rax
	setne	%al
	movzbl	%al, %eax
	addl	%eax, %edx
	movl	-60(%rbp), %eax
	addl	$32, %eax
	mov	%eax, %eax
	movq	%nacl:(%r15,%rax), %rax
	andl	$16777215, %eax
	salq	$9, %rax
	testq	%rax, %rax
	setne	%al
	movzbl	%al, %eax
	leal	(%rdx,%rax), %eax
	cltq
	movq	%rax, -40(%rbp)
	movq	$0, -32(%rbp)
	movq	-40(%rbp), %rax
	cmpq	-32(%rbp), %rax
	je	.L280
.LBB26:
	naclsspq	$272, %r15
	leal	24(%rsp), %eax
	addq	$15, %rax
	shrq	$4, %rax
	salq	$4, %rax
	mov	%eax, %eax
	movl	%eax, -20(%rbp)
	movl	$.LC17, %eax
	mov	%eax, %ebx
	movl	-20(%rbp), %eax
	movq	-32(%rbp), %rdx
	movq	%rdx, 16(%rsp)
	movl	$.LC26, 8(%rsp)
	movq	-40(%rbp), %rdx
	movq	%rdx, (%rsp)
	movl	$.LC45, %r9d
	movl	$.LC26, %r8d
	movl	$.LC30, %ecx
	movl	%ebx, %edx
	movl	$256, %esi
	movl	%eax, %edi
	movl	$0, %eax
	call	snprintf
	movl	-20(%rbp), %eax
	movl	$1417, %edx
	movl	$.LC12, %esi
	movl	%eax, %edi
	call	__assert
	.align 32
.L280:
.LBE26:
.LBE25:
	.loc 2 1418 0
	mov	-60(%rbp), %eax
	movq	%nacl:48(%r15,%rax), %rdx
	mov	-60(%rbp), %eax
	movq	%nacl:48(%r15,%rax), %rax
	movq	-56(%rbp), %rcx
	shrq	$9, %rcx
	subq	$1, %rcx
	xorq	%rcx, %rax
	andl	$65535, %eax
	xorq	%rax, %rdx
	mov	-60(%rbp), %eax
	movq	%rdx, %nacl:48(%r15,%rax)
	.loc 2 1419 0
	mov	-60(%rbp), %eax
	movq	%nacl:48(%r15,%rax), %rdx
	mov	-60(%rbp), %eax
	movq	%nacl:48(%r15,%rax), %rax
	movq	%rax, %rcx
	shrq	$16, %rcx
	movq	-80(%rbp), %rax
	shrq	$9, %rax
	subq	$1, %rax
	xorq	%rcx, %rax
	salq	$16, %rax
	andl	$4294967295, %eax
	xorq	%rax, %rdx
	mov	-60(%rbp), %eax
	movq	%rdx, %nacl:48(%r15,%rax)
	.loc 2 1420 0
	mov	-60(%rbp), %eax
	movq	%nacl:48(%r15,%rax), %rdx
	mov	-60(%rbp), %eax
	movq	%nacl:48(%r15,%rax), %rax
	movq	%rax, %rcx
	shrq	$32, %rcx
	movl	-64(%rbp), %eax
	cltq
	xorq	%rcx, %rax
	andl	$255, %eax
	salq	$32, %rax
	xorq	%rax, %rdx
	mov	-60(%rbp), %eax
	movq	%rdx, %nacl:48(%r15,%rax)
	.align 32
.L277:
	.loc 2 1424 0
	movl	$256, %ebx
	movq	8(%rbp), %rsi
	movl	$zio_write_compress, %edi
	call	__cyg_profile_func_exit
	movl	%ebx, %eax
	.loc 2 1425 0
	movq	-8(%rbp), %rbx
	movq	%rbp, %rsp
	popq	%r11
	naclrestbp	%r11d, %r15
	popq	%r11
	nacljmp	%r11d,%r15
	.cfi_endproc
.LFE120:
	.size	zio_write_compress, .-zio_write_compress
	.section	.rodata
.LC71:
	.string	"compress != ZIO_COMPRESS_OFF"
	.text
	.align 32
	.type	zio_read_decompress, @function
zio_read_decompress:
.LFB121:
	.loc 2 1429 0
	.cfi_startproc
	pushq	%rbp
.LCFI90:
	.cfi_def_cfa_offset 16
	movq	%rsp, %rbp
	.cfi_offset 6, -16
.LCFI91:
	.cfi_def_cfa_register 6
	pushq	%rbx
	naclsspq	$56, %r15
	movl	%edi, -52(%rbp)
	.loc 2 1429 0
	movq	8(%rbp), %rsi
	movl	$zio_read_decompress, %edi
	.cfi_offset 3, -24
	call	__cyg_profile_func_enter
	.loc 2 1430 0
	mov	-52(%rbp), %eax
	movl	%nacl:72(%r15,%rax), %eax
	movl	%eax, -24(%rbp)
	.loc 2 1434 0
	mov	-24(%rbp), %eax
	movq	%nacl:48(%r15,%rax), %rax
	shrq	$32, %rax
	andl	$255, %eax
	movl	%eax, -20(%rbp)
	.loc 2 1436 0
	cmpl	$2, -20(%rbp)
	jne	.L284
	movl	$__PRETTY_FUNCTION__.10848, %ecx
	movl	$1436, %edx
	movl	$.LC12, %esi
	movl	$.LC71, %edi
	call	__assert_fail
	.align 32
.L284:
	.loc 2 1438 0
	leal	-48(%rbp), %ecx
	leal	-40(%rbp), %edx
	leal	-28(%rbp), %ebx
	movl	-52(%rbp), %eax
	movl	%ebx, %esi
	movl	%eax, %edi
	call	zio_pop_transform
	.loc 2 1440 0
	mov	-52(%rbp), %eax
	movq	%nacl:384(%r15,%rax), %rsi
	mov	-52(%rbp), %eax
	mov	%nacl:376(%r15,%rax), %ecx
	movq	-40(%rbp), %rdx
	mov	-28(%rbp), %ebx
	movl	-20(%rbp), %eax
	movq	%rsi, %r8
	movl	%ebx, %esi
	movl	%eax, %edi
	call	zio_decompress_data
	testl	%eax, %eax
	je	.L285
	.loc 2 1442 0
	mov	-52(%rbp), %eax
	movl	$5, %nacl:528(%r15,%rax)
	.align 32
.L285:
	.loc 2 1444 0
	movq	-48(%rbp), %rax
	mov	-28(%rbp), %edx
	movl	%eax, %esi
	movl	%edx, %edi
	call	zio_buf_free
	.loc 2 1446 0
	movl	$256, %ebx
	movq	8(%rbp), %rsi
	movl	$zio_read_decompress, %edi
	call	__cyg_profile_func_exit
	movl	%ebx, %eax
	.loc 2 1447 0
	naclaspq	$56, %r15
	popq	%rbx
	popq	%r11
	naclrestbp	%r11d, %r15
	popq	%r11
	nacljmp	%r11d,%r15
	.cfi_endproc
.LFE121:
	.size	zio_read_decompress, .-zio_read_decompress
	.section	.rodata
.LC72:
	.string	"zio->io_size == (1ULL << 9)"
	.text
	.align 32
	.type	zio_gang_byteswap, @function
zio_gang_byteswap:
.LFB122:
	.loc 2 1456 0
	.cfi_startproc
	pushq	%rbp
.LCFI92:
	.cfi_def_cfa_offset 16
	movq	%rsp, %rbp
	.cfi_offset 6, -16
.LCFI93:
	.cfi_def_cfa_register 6
	naclsspq	$16, %r15
	movl	%edi, -4(%rbp)
	.loc 2 1456 0
	movq	8(%rbp), %rsi
	movl	$zio_gang_byteswap, %edi
	call	__cyg_profile_func_enter
	.loc 2 1457 0
	mov	-4(%rbp), %eax
	movq	%nacl:384(%r15,%rax), %rax
	cmpq	$512, %rax
	je	.L288
	movl	$__PRETTY_FUNCTION__.10868, %ecx
	movl	$1457, %edx
	movl	$.LC12, %esi
	movl	$.LC72, %edi
	call	__assert_fail
	.align 32
.L288:
	.loc 2 1459 0
	mov	-4(%rbp), %eax
	mov	%nacl:72(%r15,%rax), %eax
	movq	%nacl:48(%r15,%rax), %rax
	sarq	$63, %rax
	cmpq	$-1, %rax
	je	.L289
	.loc 2 1460 0
	mov	-4(%rbp), %eax
	movq	%nacl:384(%r15,%rax), %rax
	mov	-4(%rbp), %edx
	mov	%nacl:376(%r15,%rdx), %edx
	movl	%eax, %esi
	movl	%edx, %edi
	call	byteswap_uint64_array
	.align 32
.L289:
	movq	8(%rbp), %rsi
	movl	$zio_gang_byteswap, %edi
	call	__cyg_profile_func_exit
	.loc 2 1461 0
	movq	%rbp, %rsp
	popq	%r11
	naclrestbp	%r11d, %r15
	popq	%r11
	nacljmp	%r11d,%r15
	.cfi_endproc
.LFE122:
	.size	zio_gang_byteswap, .-zio_gang_byteswap
	.section	.rodata
	.align 8
.LC73:
	.string	"(((((&(bp)->blk_dva[0]))->dva_word[1]) >> (63)) & ((1ULL << (1)) - 1))"
	.text
	.align 32
	.type	zio_get_gang_header, @function
zio_get_gang_header:
.LFB123:
	.loc 2 1465 0
	.cfi_startproc
	pushq	%rbp
.LCFI94:
	.cfi_def_cfa_offset 16
	movq	%rsp, %rbp
	.cfi_offset 6, -16
.LCFI95:
	.cfi_def_cfa_register 6
	pushq	%rbx
	naclsspq	$120, %r15
	movl	%edi, -52(%rbp)
	.loc 2 1465 0
	movq	8(%rbp), %rsi
	movl	$zio_get_gang_header, %edi
	.cfi_offset 3, -24
	call	__cyg_profile_func_enter
	.loc 2 1466 0
	mov	-52(%rbp), %eax
	movl	%nacl:72(%r15,%rax), %eax
	movl	%eax, -36(%rbp)
	.loc 2 1467 0
	movq	$512, -32(%rbp)
	.loc 2 1468 0
	movq	-32(%rbp), %rax
	movl	%eax, %edi
	call	zio_buf_alloc
	mov	%eax, %eax
	movl	%eax, -20(%rbp)
	.loc 2 1470 0
	mov	-36(%rbp), %eax
	movq	%nacl:8(%r15,%rax), %rax
	testq	%rax, %rax
	js	.L292
	movl	$__PRETTY_FUNCTION__.10887, %ecx
	movl	$1470, %edx
	movl	$.LC12, %esi
	movl	$.LC73, %edi
	call	__assert_fail
	.align 32
.L292:
	.loc 2 1472 0
	movq	-32(%rbp), %rcx
	movq	-32(%rbp), %rdx
	movl	-20(%rbp), %ebx
	movl	-52(%rbp), %eax
	movl	%ebx, %esi
	movl	%eax, %edi
	call	zio_push_transform
	.loc 2 1474 0
	mov	-52(%rbp), %eax
	movl	%nacl:484(%r15,%rax), %eax
	movl	%eax, %r9d
	andl	$425111, %r9d
	.loc 2 1475 0
	mov	-52(%rbp), %eax
	movzbl	%nacl:505(%r15,%rax), %eax
	.loc 2 1474 0
	movzbl	%al, %ebx
	mov	-36(%rbp), %eax
	movq	%nacl:80(%r15,%rax), %rdx
	mov	-52(%rbp), %eax
	mov	%nacl:8(%r15,%rax), %esi
	movq	-32(%rbp), %r8
	movl	-20(%rbp), %edi
	movl	-36(%rbp), %ecx
	movl	-52(%rbp), %eax
	movl	$13615106, 48(%rsp)
	movl	$0, 40(%rsp)
	movl	%r9d, 32(%rsp)
	movl	%ebx, 24(%rsp)
	movl	$1, 16(%rsp)
	movl	$0, 8(%rsp)
	movl	$0, (%rsp)
	movq	%r8, %r9
	movl	%edi, %r8d
	movl	%eax, %edi
	call	zio_create
	mov	%eax, %eax
	movl	%eax, %edi
	call	zio_nowait
	.loc 2 1479 0
	movl	-52(%rbp), %eax
	movl	%eax, %edi
	call	zio_wait_for_children_done
	movl	%eax, %ebx
	movq	8(%rbp), %rsi
	movl	$zio_get_gang_header, %edi
	call	__cyg_profile_func_exit
	movl	%ebx, %eax
	.loc 2 1480 0
	naclaspq	$120, %r15
	popq	%rbx
	popq	%r11
	naclrestbp	%r11d, %r15
	popq	%r11
	nacljmp	%r11d,%r15
	.cfi_endproc
.LFE123:
	.size	zio_get_gang_header, .-zio_get_gang_header
	.section	.rodata
	.align 8
.LC74:
	.string	"(((((&(zio->io_bp)->blk_dva[0]))->dva_word[1]) >> (63)) & ((1ULL << (1)) - 1))"
	.align 8
.LC75:
	.string	"((((gbp)->blk_prop) >> (32)) & ((1ULL << (8)) - 1)) == ZIO_COMPRESS_OFF"
	.align 8
.LC76:
	.string	"(((gbp)->blk_birth == 0) ? 0 : ((((((gbp)->blk_prop) >> (0)) & ((1ULL << (16)) - 1)) + (1)) << (9)))"
.LC77:
	.string	"lsize"
.LC78:
	.string	"zio->io_size"
.LC79:
	.string	"loff + lsize"
	.align 8
.LC80:
	.string	"i < (((1ULL << 9) - sizeof (zio_block_tail_t)) / sizeof (blkptr_t))"
.LC81:
	.string	"!((gbp)->blk_birth == 0)"
	.text
	.align 32
	.type	zio_read_gang_members, @function
zio_read_gang_members:
.LFB124:
	.loc 2 1484 0
	.cfi_startproc
	pushq	%rbp
.LCFI96:
	.cfi_def_cfa_offset 16
	movq	%rsp, %rbp
	.cfi_offset 6, -16
.LCFI97:
	.cfi_def_cfa_register 6
	pushq	%rbx
	naclsspq	$152, %r15
	movl	%edi, -116(%rbp)
	.loc 2 1484 0
	movq	8(%rbp), %rsi
	movl	$zio_read_gang_members, %edi
	.cfi_offset 3, -24
	call	__cyg_profile_func_enter
	.loc 2 1489 0
	mov	-116(%rbp), %eax
	mov	%nacl:72(%r15,%rax), %eax
	movq	%nacl:8(%r15,%rax), %rax
	testq	%rax, %rax
	js	.L295
	movl	$__PRETTY_FUNCTION__.10912, %ecx
	movl	$1489, %edx
	movl	$.LC12, %esi
	movl	$.LC74, %edi
	call	__assert_fail
	.align 32
.L295:
	.loc 2 1491 0
	movl	-116(%rbp), %eax
	movl	%eax, %edi
	call	zio_gang_byteswap
	.loc 2 1492 0
	leal	-92(%rbp), %eax
	mov	%eax, %ebx
	leal	-112(%rbp), %ecx
	leal	-104(%rbp), %edx
	movl	-116(%rbp), %eax
	movl	%ebx, %esi
	movl	%eax, %edi
	call	zio_pop_transform
	.loc 2 1494 0
	movq	$0, -88(%rbp)
	movl	$0, -72(%rbp)
	jmp	.L296
	.align 32
.L304:
.LBB27:
	.loc 2 1495 0
	mov	-92(%rbp), %eax
	movl	-72(%rbp), %edx
	sall	$7, %edx
	leal	(%rdx,%rax), %eax
	movl	%eax, -68(%rbp)
	.loc 2 1496 0
	mov	-68(%rbp), %eax
	movq	%nacl:48(%r15,%rax), %rax
	shrq	$16, %rax
	andl	$65535, %eax
	addq	$1, %rax
	salq	$9, %rax
	movq	%rax, -80(%rbp)
	.loc 2 1498 0
	mov	-68(%rbp), %eax
	movq	%nacl:48(%r15,%rax), %rax
	shrq	$32, %rax
	andl	$255, %eax
	cmpq	$2, %rax
	je	.L297
	movl	$__PRETTY_FUNCTION__.10912, %ecx
	movl	$1498, %edx
	movl	$.LC12, %esi
	movl	$.LC75, %edi
	call	__assert_fail
	.align 32
.L297:
.LBB28:
	.loc 2 1499 0
	movq	-80(%rbp), %rax
	movq	%rax, -64(%rbp)
	mov	-68(%rbp), %eax
	movq	%nacl:80(%r15,%rax), %rax
	testq	%rax, %rax
	je	.L298
	mov	-68(%rbp), %eax
	movq	%nacl:48(%r15,%rax), %rax
	andl	$65535, %eax
	addq	$1, %rax
	salq	$9, %rax
	jmp	.L299
	.align 32
.L298:
	movl	$0, %eax
	.align 32
.L299:
	movq	%rax, -56(%rbp)
	movq	-64(%rbp), %rax
	cmpq	-56(%rbp), %rax
	je	.L300
.LBB29:
	naclsspq	$272, %r15
	leal	32(%rsp), %eax
	addq	$15, %rax
	shrq	$4, %rax
	salq	$4, %rax
	mov	%eax, %eax
	movl	%eax, -44(%rbp)
	movl	$.LC17, %eax
	mov	%eax, %ebx
	movl	-44(%rbp), %eax
	movq	-56(%rbp), %rdx
	movq	%rdx, 16(%rsp)
	movl	$.LC26, 8(%rsp)
	movq	-64(%rbp), %rdx
	movq	%rdx, (%rsp)
	movl	$.LC76, %r9d
	movl	$.LC26, %r8d
	movl	$.LC77, %ecx
	movl	%ebx, %edx
	movl	$256, %esi
	movl	%eax, %edi
	movl	$0, %eax
	call	snprintf
	movl	-44(%rbp), %eax
	movl	$1499, %edx
	movl	$.LC12, %esi
	movl	%eax, %edi
	call	__assert
	.align 32
.L300:
.LBE29:
.LBE28:
.LBB30:
	.loc 2 1500 0
	movq	-80(%rbp), %rax
	movq	-88(%rbp), %rdx
	leaq	(%rdx,%rax), %rax
	movq	%rax, -40(%rbp)
	mov	-116(%rbp), %eax
	movq	%nacl:384(%r15,%rax), %rax
	movq	%rax, -32(%rbp)
	movq	-40(%rbp), %rax
	cmpq	-32(%rbp), %rax
	jbe	.L301
.LBB31:
	naclsspq	$272, %r15
	leal	32(%rsp), %eax
	addq	$15, %rax
	shrq	$4, %rax
	salq	$4, %rax
	mov	%eax, %eax
	movl	%eax, -20(%rbp)
	movl	$.LC17, %eax
	mov	%eax, %ebx
	movl	-20(%rbp), %eax
	movq	-32(%rbp), %rdx
	movq	%rdx, 16(%rsp)
	movl	$.LC19, 8(%rsp)
	movq	-40(%rbp), %rdx
	movq	%rdx, (%rsp)
	movl	$.LC78, %r9d
	movl	$.LC19, %r8d
	movl	$.LC79, %ecx
	movl	%ebx, %edx
	movl	$256, %esi
	movl	%eax, %edi
	movl	$0, %eax
	call	snprintf
	movl	-20(%rbp), %eax
	movl	$1500, %edx
	movl	$.LC12, %esi
	movl	%eax, %edi
	call	__assert
	.align 32
.L301:
.LBE31:
.LBE30:
	.loc 2 1501 0
	movl	-72(%rbp), %eax
	cmpl	$2, %eax
	jbe	.L302
	movl	$__PRETTY_FUNCTION__.10912, %ecx
	movl	$1501, %edx
	movl	$.LC12, %esi
	movl	$.LC80, %edi
	call	__assert_fail
	.align 32
.L302:
	.loc 2 1502 0
	mov	-68(%rbp), %eax
	movq	%nacl:80(%r15,%rax), %rax
	testq	%rax, %rax
	jne	.L303
	movl	$__PRETTY_FUNCTION__.10912, %ecx
	movl	$1502, %edx
	movl	$.LC12, %esi
	movl	$.LC81, %edi
	call	__assert_fail
	.align 32
.L303:
	.loc 2 1507 0
	movl	-116(%rbp), %eax
	addl	$16, %eax
	mov	%eax, %ebx
	.loc 2 1504 0
	mov	-116(%rbp), %eax
	movl	%nacl:484(%r15,%rax), %eax
	movl	%eax, %r9d
	andl	$425111, %r9d
	.loc 2 1506 0
	mov	-116(%rbp), %eax
	movzbl	%nacl:505(%r15,%rax), %eax
	.loc 2 1504 0
	movzbl	%al, %ecx
	mov	-116(%rbp), %eax
	mov	%nacl:376(%r15,%rax), %eax
	movq	-88(%rbp), %rdx
	leal	(%rdx,%rax), %eax
	mov	%eax, %edi
	mov	-116(%rbp), %eax
	mov	%nacl:8(%r15,%rax), %esi
	movq	-80(%rbp), %r8
	movl	-68(%rbp), %edx
	movl	-116(%rbp), %eax
	movl	%ebx, 24(%rsp)
	movl	%r9d, 16(%rsp)
	movl	%ecx, 8(%rsp)
	movl	$0, (%rsp)
	movl	$0, %r9d
	movl	%edi, %ecx
	movl	%eax, %edi
	call	zio_read
	mov	%eax, %eax
	movl	%eax, %edi
	call	zio_nowait
.LBE27:
	.loc 2 1494 0
	movq	-80(%rbp), %rax
	addq	%rax, -88(%rbp)
	addl	$1, -72(%rbp)
	.align 32
.L296:
	mov	-116(%rbp), %eax
	movq	%nacl:384(%r15,%rax), %rax
	cmpq	-88(%rbp), %rax
	jne	.L304
	.loc 2 1510 0
	movq	-112(%rbp), %rax
	mov	-92(%rbp), %edx
	movl	%eax, %esi
	movl	%edx, %edi
	call	zio_buf_free
	.loc 2 1512 0
	movl	-116(%rbp), %eax
	movl	%eax, %edi
	call	zio_wait_for_children_done
	movl	%eax, %ebx
	movq	8(%rbp), %rsi
	movl	$zio_read_gang_members, %edi
	call	__cyg_profile_func_exit
	movl	%ebx, %eax
	.loc 2 1513 0
	movq	-8(%rbp), %rbx
	movq	%rbp, %rsp
	popq	%r11
	naclrestbp	%r11d, %r15
	popq	%r11
	nacljmp	%r11d,%r15
	.cfi_endproc
.LFE124:
	.size	zio_read_gang_members, .-zio_read_gang_members
	.section	.rodata
.LC82:
	.string	"(1ULL << 9)"
.LC83:
	.string	"gsize == gbufsize"
	.text
	.align 32
	.type	zio_rewrite_gang_members, @function
zio_rewrite_gang_members:
.LFB125:
	.loc 2 1517 0
	.cfi_startproc
	pushq	%rbp
.LCFI98:
	.cfi_def_cfa_offset 16
	movq	%rsp, %rbp
	.cfi_offset 6, -16
.LCFI99:
	.cfi_def_cfa_register 6
	pushq	%rbx
	naclsspq	$200, %r15
	movl	%edi, -148(%rbp)
	.loc 2 1517 0
	movq	8(%rbp), %rsi
	movl	$zio_rewrite_gang_members, %edi
	.cfi_offset 3, -24
	call	__cyg_profile_func_enter
	.loc 2 1522 0
	mov	-148(%rbp), %eax
	mov	%nacl:72(%r15,%rax), %eax
	movq	%nacl:8(%r15,%rax), %rax
	testq	%rax, %rax
	js	.L307
	movl	$__PRETTY_FUNCTION__.10989, %ecx
	movl	$1522, %edx
	movl	$.LC12, %esi
	movl	$.LC74, %edi
	call	__assert_fail
	.align 32
.L307:
.LBB32:
	.loc 2 1523 0
	mov	-148(%rbp), %eax
	movq	%nacl:384(%r15,%rax), %rax
	movq	%rax, -88(%rbp)
	movq	$512, -80(%rbp)
	movq	-88(%rbp), %rax
	cmpq	-80(%rbp), %rax
	je	.L308
.LBB33:
	naclsspq	$272, %r15
	leal	48(%rsp), %eax
	addq	$15, %rax
	shrq	$4, %rax
	salq	$4, %rax
	mov	%eax, %eax
	movl	%eax, -72(%rbp)
	movl	$.LC17, %eax
	mov	%eax, %ebx
	movl	-72(%rbp), %eax
	movq	-80(%rbp), %rdx
	movq	%rdx, 16(%rsp)
	movl	$.LC26, 8(%rsp)
	movq	-88(%rbp), %rdx
	movq	%rdx, (%rsp)
	movl	$.LC82, %r9d
	movl	$.LC26, %r8d
	movl	$.LC78, %ecx
	movl	%ebx, %edx
	movl	$256, %esi
	movl	%eax, %edi
	movl	$0, %eax
	call	snprintf
	movl	-72(%rbp), %eax
	movl	$1523, %edx
	movl	$.LC12, %esi
	movl	%eax, %edi
	call	__assert
	.align 32
.L308:
.LBE33:
.LBE32:
	.loc 2 1525 0
	movl	-148(%rbp), %eax
	movl	%eax, %edi
	call	zio_gang_byteswap
	.loc 2 1526 0
	leal	-116(%rbp), %eax
	mov	%eax, %ebx
	leal	-136(%rbp), %ecx
	leal	-128(%rbp), %edx
	movl	-148(%rbp), %eax
	movl	%ebx, %esi
	movl	%eax, %edi
	call	zio_pop_transform
	.loc 2 1528 0
	movq	-128(%rbp), %rdx
	movq	-136(%rbp), %rax
	cmpq	%rax, %rdx
	je	.L309
	movl	$__PRETTY_FUNCTION__.10989, %ecx
	movl	$1528, %edx
	movl	$.LC12, %esi
	movl	$.LC83, %edi
	call	__assert_fail
	.align 32
.L309:
	.loc 2 1530 0
	movq	$0, -112(%rbp)
	movl	$0, -92(%rbp)
	jmp	.L310
	.align 32
.L318:
.LBB34:
	.loc 2 1531 0
	mov	-116(%rbp), %eax
	movl	-92(%rbp), %edx
	sall	$7, %edx
	leal	(%rdx,%rax), %eax
	movl	%eax, -68(%rbp)
	.loc 2 1532 0
	mov	-68(%rbp), %eax
	movq	%nacl:48(%r15,%rax), %rax
	shrq	$16, %rax
	andl	$65535, %eax
	addq	$1, %rax
	salq	$9, %rax
	movq	%rax, -104(%rbp)
	.loc 2 1534 0
	mov	-68(%rbp), %eax
	movq	%nacl:48(%r15,%rax), %rax
	shrq	$32, %rax
	andl	$255, %eax
	cmpq	$2, %rax
	je	.L311
	movl	$__PRETTY_FUNCTION__.10989, %ecx
	movl	$1534, %edx
	movl	$.LC12, %esi
	movl	$.LC75, %edi
	call	__assert_fail
	.align 32
.L311:
.LBB35:
	.loc 2 1535 0
	movq	-104(%rbp), %rax
	movq	%rax, -64(%rbp)
	mov	-68(%rbp), %eax
	movq	%nacl:80(%r15,%rax), %rax
	testq	%rax, %rax
	je	.L312
	mov	-68(%rbp), %eax
	movq	%nacl:48(%r15,%rax), %rax
	andl	$65535, %eax
	addq	$1, %rax
	salq	$9, %rax
	jmp	.L313
	.align 32
.L312:
	movl	$0, %eax
	.align 32
.L313:
	movq	%rax, -56(%rbp)
	movq	-64(%rbp), %rax
	cmpq	-56(%rbp), %rax
	je	.L314
.LBB36:
	naclsspq	$272, %r15
	leal	48(%rsp), %eax
	addq	$15, %rax
	shrq	$4, %rax
	salq	$4, %rax
	mov	%eax, %eax
	movl	%eax, -44(%rbp)
	movl	$.LC17, %eax
	mov	%eax, %ebx
	movl	-44(%rbp), %eax
	movq	-56(%rbp), %rdx
	movq	%rdx, 16(%rsp)
	movl	$.LC26, 8(%rsp)
	movq	-64(%rbp), %rdx
	movq	%rdx, (%rsp)
	movl	$.LC76, %r9d
	movl	$.LC26, %r8d
	movl	$.LC77, %ecx
	movl	%ebx, %edx
	movl	$256, %esi
	movl	%eax, %edi
	movl	$0, %eax
	call	snprintf
	movl	-44(%rbp), %eax
	movl	$1535, %edx
	movl	$.LC12, %esi
	movl	%eax, %edi
	call	__assert
	.align 32
.L314:
.LBE36:
.LBE35:
.LBB37:
	.loc 2 1536 0
	movq	-104(%rbp), %rax
	movq	-112(%rbp), %rdx
	leaq	(%rdx,%rax), %rax
	movq	%rax, -40(%rbp)
	mov	-148(%rbp), %eax
	movq	%nacl:384(%r15,%rax), %rax
	movq	%rax, -32(%rbp)
	movq	-40(%rbp), %rax
	cmpq	-32(%rbp), %rax
	jbe	.L315
.LBB38:
	naclsspq	$272, %r15
	leal	48(%rsp), %eax
	addq	$15, %rax
	shrq	$4, %rax
	salq	$4, %rax
	mov	%eax, %eax
	movl	%eax, -20(%rbp)
	movl	$.LC17, %eax
	mov	%eax, %ebx
	movl	-20(%rbp), %eax
	movq	-32(%rbp), %rdx
	movq	%rdx, 16(%rsp)
	movl	$.LC19, 8(%rsp)
	movq	-40(%rbp), %rdx
	movq	%rdx, (%rsp)
	movl	$.LC78, %r9d
	movl	$.LC19, %r8d
	movl	$.LC79, %ecx
	movl	%ebx, %edx
	movl	$256, %esi
	movl	%eax, %edi
	movl	$0, %eax
	call	snprintf
	movl	-20(%rbp), %eax
	movl	$1536, %edx
	movl	$.LC12, %esi
	movl	%eax, %edi
	call	__assert
	.align 32
.L315:
.LBE38:
.LBE37:
	.loc 2 1537 0
	movl	-92(%rbp), %eax
	cmpl	$2, %eax
	jbe	.L316
	movl	$__PRETTY_FUNCTION__.10989, %ecx
	movl	$1537, %edx
	movl	$.LC12, %esi
	movl	$.LC80, %edi
	call	__assert_fail
	.align 32
.L316:
	.loc 2 1538 0
	mov	-68(%rbp), %eax
	movq	%nacl:80(%r15,%rax), %rax
	testq	%rax, %rax
	jne	.L317
	movl	$__PRETTY_FUNCTION__.10989, %ecx
	movl	$1538, %edx
	movl	$.LC12, %esi
	movl	$.LC81, %edi
	call	__assert_fail
	.align 32
.L317:
	.loc 2 1540 0
	movl	-148(%rbp), %eax
	addl	$16, %eax
	mov	%eax, %esi
	mov	-148(%rbp), %eax
	movl	%nacl:484(%r15,%rax), %eax
	movl	%eax, %r10d
	andl	$425111, %r10d
	.loc 2 1542 0
	mov	-148(%rbp), %eax
	movzbl	%nacl:505(%r15,%rax), %eax
	.loc 2 1540 0
	movzbl	%al, %ebx
	mov	-148(%rbp), %eax
	mov	%nacl:376(%r15,%rax), %eax
	movq	-112(%rbp), %rdx
	leal	(%rdx,%rax), %eax
	mov	%eax, %r9d
	mov	-148(%rbp), %eax
	movq	%nacl:64(%r15,%rax), %rcx
	mov	-148(%rbp), %eax
	movl	%nacl:48(%r15,%rax), %eax
	movl	%eax, %edx
	mov	-148(%rbp), %eax
	mov	%nacl:8(%r15,%rax), %edi
	movl	-68(%rbp), %r8d
	movl	-148(%rbp), %eax
	movl	%esi, 40(%rsp)
	movl	%r10d, 32(%rsp)
	movl	%ebx, 24(%rsp)
	movl	$0, 16(%rsp)
	movl	$0, 8(%rsp)
	movq	-104(%rbp), %rbx
	movq	%rbx, (%rsp)
	movl	%edi, %esi
	movl	%eax, %edi
	call	zio_rewrite
	mov	%eax, %eax
	movl	%eax, %edi
	call	zio_nowait
.LBE34:
	.loc 2 1530 0
	movq	-104(%rbp), %rax
	addq	%rax, -112(%rbp)
	addl	$1, -92(%rbp)
	.align 32
.L310:
	mov	-148(%rbp), %eax
	movq	%nacl:384(%r15,%rax), %rax
	cmpq	-112(%rbp), %rax
	jne	.L318
	.loc 2 1546 0
	movq	-136(%rbp), %rcx
	movq	-128(%rbp), %rdx
	mov	-116(%rbp), %ebx
	movl	-148(%rbp), %eax
	movl	%ebx, %esi
	movl	%eax, %edi
	call	zio_push_transform
	.loc 2 1548 0
	movl	-148(%rbp), %eax
	movl	%eax, %edi
	call	zio_wait_for_children_ready
	movl	%eax, %ebx
	movq	8(%rbp), %rsi
	movl	$zio_rewrite_gang_members, %edi
	call	__cyg_profile_func_exit
	movl	%ebx, %eax
	.loc 2 1549 0
	movq	-8(%rbp), %rbx
	movq	%rbp, %rsp
	popq	%r11
	naclrestbp	%r11d, %r15
	popq	%r11
	nacljmp	%r11d,%r15
	.cfi_endproc
.LFE125:
	.size	zio_rewrite_gang_members, .-zio_rewrite_gang_members
	.align 32
	.type	zio_free_gang_members, @function
zio_free_gang_members:
.LFB126:
	.loc 2 1553 0
	.cfi_startproc
	pushq	%rbp
.LCFI100:
	.cfi_def_cfa_offset 16
	movq	%rsp, %rbp
	.cfi_offset 6, -16
.LCFI101:
	.cfi_def_cfa_register 6
	pushq	%rbx
	naclsspq	$56, %r15
	movl	%edi, -52(%rbp)
	.loc 2 1553 0
	movq	8(%rbp), %rsi
	movl	$zio_free_gang_members, %edi
	.cfi_offset 3, -24
	call	__cyg_profile_func_enter
	.loc 2 1558 0
	mov	-52(%rbp), %eax
	mov	%nacl:72(%r15,%rax), %eax
	movq	%nacl:8(%r15,%rax), %rax
	testq	%rax, %rax
	js	.L321
	movl	$__PRETTY_FUNCTION__.11078, %ecx
	movl	$1558, %edx
	movl	$.LC12, %esi
	movl	$.LC74, %edi
	call	__assert_fail
	.align 32
.L321:
	.loc 2 1560 0
	movl	-52(%rbp), %eax
	movl	%eax, %edi
	call	zio_gang_byteswap
	.loc 2 1561 0
	leal	-28(%rbp), %eax
	mov	%eax, %ebx
	leal	-48(%rbp), %ecx
	leal	-40(%rbp), %edx
	movl	-52(%rbp), %eax
	movl	%ebx, %esi
	movl	%eax, %edi
	call	zio_pop_transform
	.loc 2 1563 0
	movl	$0, -24(%rbp)
	jmp	.L322
	.align 32
.L325:
.LBB39:
	.loc 2 1564 0
	mov	-28(%rbp), %eax
	movl	-24(%rbp), %edx
	sall	$7, %edx
	leal	(%rdx,%rax), %eax
	movl	%eax, -20(%rbp)
	.loc 2 1566 0
	mov	-20(%rbp), %eax
	movq	%nacl:80(%r15,%rax), %rax
	testq	%rax, %rax
	je	.L327
	.align 32
.L323:
	.loc 2 1568 0
	mov	-52(%rbp), %eax
	movq	%nacl:64(%r15,%rax), %rdx
	mov	-52(%rbp), %eax
	mov	%nacl:8(%r15,%rax), %ebx
	movl	-20(%rbp), %ecx
	movl	-52(%rbp), %eax
	movl	$0, %r9d
	movl	$0, %r8d
	movl	%ebx, %esi
	movl	%eax, %edi
	call	zio_free
	mov	%eax, %eax
	movl	%eax, %edi
	call	zio_nowait
	jmp	.L324
	.align 32
.L327:
	.loc 2 1567 0
	nop
	.align 32
.L324:
.LBE39:
	.loc 2 1563 0
	addl	$1, -24(%rbp)
	.align 32
.L322:
	movl	-24(%rbp), %eax
	cmpl	$2, %eax
	jbe	.L325
	.loc 2 1572 0
	movq	-48(%rbp), %rax
	mov	-28(%rbp), %edx
	movl	%eax, %esi
	movl	%edx, %edi
	call	zio_buf_free
	.loc 2 1574 0
	movl	$256, %ebx
	movq	8(%rbp), %rsi
	movl	$zio_free_gang_members, %edi
	call	__cyg_profile_func_exit
	movl	%ebx, %eax
	.loc 2 1575 0
	naclaspq	$56, %r15
	popq	%rbx
	popq	%r11
	naclrestbp	%r11d, %r15
	popq	%r11
	nacljmp	%r11d,%r15
	.cfi_endproc
.LFE126:
	.size	zio_free_gang_members, .-zio_free_gang_members
	.align 32
	.type	zio_claim_gang_members, @function
zio_claim_gang_members:
.LFB127:
	.loc 2 1579 0
	.cfi_startproc
	pushq	%rbp
.LCFI102:
	.cfi_def_cfa_offset 16
	movq	%rsp, %rbp
	.cfi_offset 6, -16
.LCFI103:
	.cfi_def_cfa_register 6
	pushq	%rbx
	naclsspq	$56, %r15
	movl	%edi, -52(%rbp)
	.loc 2 1579 0
	movq	8(%rbp), %rsi
	movl	$zio_claim_gang_members, %edi
	.cfi_offset 3, -24
	call	__cyg_profile_func_enter
	.loc 2 1584 0
	mov	-52(%rbp), %eax
	mov	%nacl:72(%r15,%rax), %eax
	movq	%nacl:8(%r15,%rax), %rax
	testq	%rax, %rax
	js	.L329
	movl	$__PRETTY_FUNCTION__.11112, %ecx
	movl	$1584, %edx
	movl	$.LC12, %esi
	movl	$.LC74, %edi
	call	__assert_fail
	.align 32
.L329:
	.loc 2 1586 0
	movl	-52(%rbp), %eax
	movl	%eax, %edi
	call	zio_gang_byteswap
	.loc 2 1587 0
	leal	-28(%rbp), %eax
	mov	%eax, %ebx
	leal	-48(%rbp), %ecx
	leal	-40(%rbp), %edx
	movl	-52(%rbp), %eax
	movl	%ebx, %esi
	movl	%eax, %edi
	call	zio_pop_transform
	.loc 2 1589 0
	movl	$0, -24(%rbp)
	jmp	.L330
	.align 32
.L333:
.LBB40:
	.loc 2 1590 0
	mov	-28(%rbp), %eax
	movl	-24(%rbp), %edx
	sall	$7, %edx
	leal	(%rdx,%rax), %eax
	movl	%eax, -20(%rbp)
	.loc 2 1591 0
	mov	-20(%rbp), %eax
	movq	%nacl:80(%r15,%rax), %rax
	testq	%rax, %rax
	je	.L335
	.align 32
.L331:
	.loc 2 1593 0
	mov	-52(%rbp), %eax
	movq	%nacl:64(%r15,%rax), %rdx
	mov	-52(%rbp), %eax
	mov	%nacl:8(%r15,%rax), %ebx
	movl	-20(%rbp), %ecx
	movl	-52(%rbp), %eax
	movl	$0, %r9d
	movl	$0, %r8d
	movl	%ebx, %esi
	movl	%eax, %edi
	call	zio_claim
	mov	%eax, %eax
	movl	%eax, %edi
	call	zio_nowait
	jmp	.L332
	.align 32
.L335:
	.loc 2 1592 0
	nop
	.align 32
.L332:
.LBE40:
	.loc 2 1589 0
	addl	$1, -24(%rbp)
	.align 32
.L330:
	movl	-24(%rbp), %eax
	cmpl	$2, %eax
	jbe	.L333
	.loc 2 1597 0
	movq	-48(%rbp), %rax
	mov	-28(%rbp), %edx
	movl	%eax, %esi
	movl	%edx, %edi
	call	zio_buf_free
	.loc 2 1599 0
	movl	$256, %ebx
	movq	8(%rbp), %rsi
	movl	$zio_claim_gang_members, %edi
	call	__cyg_profile_func_exit
	movl	%ebx, %eax
	.loc 2 1600 0
	naclaspq	$56, %r15
	popq	%rbx
	popq	%r11
	naclrestbp	%r11d, %r15
	popq	%r11
	nacljmp	%r11d,%r15
	.cfi_endproc
.LFE127:
	.size	zio_claim_gang_members, .-zio_claim_gang_members
	.section	.rodata
.LC84:
	.string	"pio->io_ndvas"
	.align 8
.LC85:
	.ascii	"(!!((((((&(pio->io_bp)->blk_dva[0])->"
	.string	"dva_word[0]) >> (0)) & ((1ULL << (24)) - 1)) + (0)) << (9)) + !!((((((&(pio->io_bp)->blk_dva[1])->dva_word[0]) >> (0)) & ((1ULL << (24)) - 1)) + (0)) << (9)) + !!((((((&(pio->io_bp)->blk_dva[2])->dva_word[0]) >> (0)) & ((1ULL << (24)) - 1)) + (0)) << (9)))"
	.align 8
.LC86:
	.ascii	"(!!((((((&(zio->io_bp)->blk_dva[0])->"
	.string	"dva_word[0]) >> (0)) & ((1ULL << (24)) - 1)) + (0)) << (9)) + !!((((((&(zio->io_bp)->blk_dva[1])->dva_word[0]) >> (0)) & ((1ULL << (24)) - 1)) + (0)) << (9)) + !!((((((&(zio->io_bp)->blk_dva[2])->dva_word[0]) >> (0)) & ((1ULL << (24)) - 1)) + (0)) << (9)))"
	.align 8
.LC87:
	.string	"((((&pdva[d])->dva_word[1]) >> (63)) & ((1ULL << (1)) - 1))"
	.text
	.align 32
	.type	zio_write_allocate_gang_member_done, @function
zio_write_allocate_gang_member_done:
.LFB128:
	.loc 2 1604 0
	.cfi_startproc
	pushq	%rbp
.LCFI104:
	.cfi_def_cfa_offset 16
	movq	%rsp, %rbp
	.cfi_offset 6, -16
.LCFI105:
	.cfi_def_cfa_register 6
	pushq	%rbx
	naclsspq	$184, %r15
	movl	%edi, -148(%rbp)
	.loc 2 1604 0
	movq	8(%rbp), %rsi
	movl	$zio_write_allocate_gang_member_done, %edi
	.cfi_offset 3, -24
	call	__cyg_profile_func_enter
	.loc 2 1605 0
	mov	-148(%rbp), %eax
	movl	%nacl:(%r15,%rax), %eax
	movl	%eax, -140(%rbp)
	.loc 2 1606 0
	mov	-148(%rbp), %eax
	mov	%nacl:72(%r15,%rax), %eax
	movl	%eax, -136(%rbp)
	.loc 2 1607 0
	mov	-140(%rbp), %eax
	mov	%nacl:72(%r15,%rax), %eax
	movl	%eax, -132(%rbp)
.LBB41:
	.loc 2 1611 0
	mov	-140(%rbp), %eax
	movl	%nacl:56(%r15,%rax), %eax
	cltq
	movq	%rax, -112(%rbp)
	mov	-148(%rbp), %eax
	movl	%nacl:56(%r15,%rax), %eax
	cltq
	movq	%rax, -104(%rbp)
	movq	-112(%rbp), %rax
	cmpq	-104(%rbp), %rax
	je	.L337
.LBB42:
	naclsspq	$272, %r15
	leal	24(%rsp), %eax
	addq	$15, %rax
	shrq	$4, %rax
	salq	$4, %rax
	mov	%eax, %eax
	movl	%eax, -92(%rbp)
	movl	$.LC17, %eax
	mov	%eax, %ebx
	movl	-92(%rbp), %eax
	movq	-104(%rbp), %rdx
	movq	%rdx, 16(%rsp)
	movl	$.LC26, 8(%rsp)
	movq	-112(%rbp), %rdx
	movq	%rdx, (%rsp)
	movl	$.LC31, %r9d
	movl	$.LC26, %r8d
	movl	$.LC84, %ecx
	movl	%ebx, %edx
	movl	$256, %esi
	movl	%eax, %edi
	movl	$0, %eax
	call	snprintf
	movl	-92(%rbp), %eax
	movl	$1611, %edx
	movl	$.LC12, %esi
	movl	%eax, %edi
	call	__assert
	.align 32
.L337:
.LBE42:
.LBE41:
.LBB43:
	.loc 2 1612 0
	mov	-148(%rbp), %eax
	mov	%nacl:72(%r15,%rax), %eax
	movq	%nacl:(%r15,%rax), %rax
	andl	$16777215, %eax
	salq	$9, %rax
	testq	%rax, %rax
	setne	%al
	movzbl	%al, %edx
	mov	-148(%rbp), %eax
	mov	%nacl:72(%r15,%rax), %eax
	addl	$16, %eax
	mov	%eax, %eax
	movq	%nacl:(%r15,%rax), %rax
	andl	$16777215, %eax
	salq	$9, %rax
	testq	%rax, %rax
	setne	%al
	movzbl	%al, %eax
	addl	%eax, %edx
	mov	-148(%rbp), %eax
	mov	%nacl:72(%r15,%rax), %eax
	addl	$32, %eax
	mov	%eax, %eax
	movq	%nacl:(%r15,%rax), %rax
	andl	$16777215, %eax
	salq	$9, %rax
	testq	%rax, %rax
	setne	%al
	movzbl	%al, %eax
	leal	(%rdx,%rax), %eax
	cltq
	movq	%rax, -88(%rbp)
	mov	-140(%rbp), %eax
	mov	%nacl:72(%r15,%rax), %eax
	movq	%nacl:(%r15,%rax), %rax
	andl	$16777215, %eax
	salq	$9, %rax
	testq	%rax, %rax
	setne	%al
	movzbl	%al, %edx
	mov	-140(%rbp), %eax
	mov	%nacl:72(%r15,%rax), %eax
	addl	$16, %eax
	mov	%eax, %eax
	movq	%nacl:(%r15,%rax), %rax
	andl	$16777215, %eax
	salq	$9, %rax
	testq	%rax, %rax
	setne	%al
	movzbl	%al, %eax
	addl	%eax, %edx
	mov	-140(%rbp), %eax
	mov	%nacl:72(%r15,%rax), %eax
	addl	$32, %eax
	mov	%eax, %eax
	movq	%nacl:(%r15,%rax), %rax
	andl	$16777215, %eax
	salq	$9, %rax
	testq	%rax, %rax
	setne	%al
	movzbl	%al, %eax
	leal	(%rdx,%rax), %eax
	cltq
	movq	%rax, -80(%rbp)
	movq	-88(%rbp), %rax
	cmpq	-80(%rbp), %rax
	jbe	.L338
.LBB44:
	naclsspq	$272, %r15
	leal	24(%rsp), %eax
	addq	$15, %rax
	shrq	$4, %rax
	salq	$4, %rax
	mov	%eax, %eax
	movl	%eax, -68(%rbp)
	movl	$.LC17, %eax
	mov	%eax, %ebx
	movl	-68(%rbp), %eax
	movq	-80(%rbp), %rdx
	movq	%rdx, 16(%rsp)
	movl	$.LC19, 8(%rsp)
	movq	-88(%rbp), %rdx
	movq	%rdx, (%rsp)
	movl	$.LC85, %r9d
	movl	$.LC19, %r8d
	movl	$.LC86, %ecx
	movl	%ebx, %edx
	movl	$256, %esi
	movl	%eax, %edi
	movl	$0, %eax
	call	snprintf
	movl	-68(%rbp), %eax
	movl	$1612, %edx
	movl	$.LC12, %esi
	movl	%eax, %edi
	call	__assert
	.align 32
.L338:
.LBE44:
.LBE43:
.LBB45:
	.loc 2 1613 0
	mov	-148(%rbp), %eax
	movl	%nacl:56(%r15,%rax), %eax
	cltq
	movq	%rax, -64(%rbp)
	mov	-148(%rbp), %eax
	mov	%nacl:72(%r15,%rax), %eax
	movq	%nacl:(%r15,%rax), %rax
	andl	$16777215, %eax
	salq	$9, %rax
	testq	%rax, %rax
	setne	%al
	movzbl	%al, %edx
	mov	-148(%rbp), %eax
	mov	%nacl:72(%r15,%rax), %eax
	addl	$16, %eax
	mov	%eax, %eax
	movq	%nacl:(%r15,%rax), %rax
	andl	$16777215, %eax
	salq	$9, %rax
	testq	%rax, %rax
	setne	%al
	movzbl	%al, %eax
	addl	%eax, %edx
	mov	-148(%rbp), %eax
	mov	%nacl:72(%r15,%rax), %eax
	addl	$32, %eax
	mov	%eax, %eax
	movq	%nacl:(%r15,%rax), %rax
	andl	$16777215, %eax
	salq	$9, %rax
	testq	%rax, %rax
	setne	%al
	movzbl	%al, %eax
	leal	(%rdx,%rax), %eax
	cltq
	movq	%rax, -56(%rbp)
	movq	-64(%rbp), %rax
	cmpq	-56(%rbp), %rax
	jbe	.L339
.LBB46:
	naclsspq	$272, %r15
	leal	24(%rsp), %eax
	addq	$15, %rax
	shrq	$4, %rax
	salq	$4, %rax
	mov	%eax, %eax
	movl	%eax, -44(%rbp)
	movl	$.LC17, %eax
	mov	%eax, %ebx
	movl	-44(%rbp), %eax
	movq	-56(%rbp), %rdx
	movq	%rdx, 16(%rsp)
	movl	$.LC19, 8(%rsp)
	movq	-64(%rbp), %rdx
	movq	%rdx, (%rsp)
	movl	$.LC86, %r9d
	movl	$.LC19, %r8d
	movl	$.LC31, %ecx
	movl	%ebx, %edx
	movl	$256, %esi
	movl	%eax, %edi
	movl	$0, %eax
	call	snprintf
	movl	-44(%rbp), %eax
	movl	$1613, %edx
	movl	$.LC12, %esi
	movl	%eax, %edi
	call	__assert
	.align 32
.L339:
.LBE46:
.LBE45:
.LBB47:
	.loc 2 1614 0
	mov	-140(%rbp), %eax
	movl	%nacl:56(%r15,%rax), %eax
	cltq
	movq	%rax, -40(%rbp)
	mov	-140(%rbp), %eax
	mov	%nacl:72(%r15,%rax), %eax
	movq	%nacl:(%r15,%rax), %rax
	andl	$16777215, %eax
	salq	$9, %rax
	testq	%rax, %rax
	setne	%al
	movzbl	%al, %edx
	mov	-140(%rbp), %eax
	mov	%nacl:72(%r15,%rax), %eax
	addl	$16, %eax
	mov	%eax, %eax
	movq	%nacl:(%r15,%rax), %rax
	andl	$16777215, %eax
	salq	$9, %rax
	testq	%rax, %rax
	setne	%al
	movzbl	%al, %eax
	addl	%eax, %edx
	mov	-140(%rbp), %eax
	mov	%nacl:72(%r15,%rax), %eax
	addl	$32, %eax
	mov	%eax, %eax
	movq	%nacl:(%r15,%rax), %rax
	andl	$16777215, %eax
	salq	$9, %rax
	testq	%rax, %rax
	setne	%al
	movzbl	%al, %eax
	leal	(%rdx,%rax), %eax
	cltq
	movq	%rax, -32(%rbp)
	movq	-40(%rbp), %rax
	cmpq	-32(%rbp), %rax
	jbe	.L340
.LBB48:
	naclsspq	$272, %r15
	leal	24(%rsp), %eax
	addq	$15, %rax
	shrq	$4, %rax
	salq	$4, %rax
	mov	%eax, %eax
	movl	%eax, -20(%rbp)
	movl	$.LC17, %eax
	mov	%eax, %ebx
	movl	-20(%rbp), %eax
	movq	-32(%rbp), %rdx
	movq	%rdx, 16(%rsp)
	movl	$.LC19, 8(%rsp)
	movq	-40(%rbp), %rdx
	movq	%rdx, (%rsp)
	movl	$.LC85, %r9d
	movl	$.LC19, %r8d
	movl	$.LC84, %ecx
	movl	%ebx, %edx
	movl	$256, %esi
	movl	%eax, %edi
	movl	$0, %eax
	call	snprintf
	movl	-20(%rbp), %eax
	movl	$1614, %edx
	movl	$.LC12, %esi
	movl	%eax, %edi
	call	__assert
	.align 32
.L340:
.LBE48:
.LBE47:
	.loc 2 1616 0
	movl	-140(%rbp), %eax
	addl	$564, %eax
	mov	%eax, %eax
	movl	%eax, %edi
	call	mutex_enter
	.loc 2 1617 0
	movl	$0, -116(%rbp)
	jmp	.L341
	.align 32
.L343:
	.loc 2 1618 0
	movl	-116(%rbp), %eax
	sall	$4, %eax
	addl	-132(%rbp), %eax
	mov	%eax, %eax
	movq	%nacl:8(%r15,%rax), %rax
	testq	%rax, %rax
	js	.L342
	movl	$__PRETTY_FUNCTION__.11159, %ecx
	movl	$1618, %edx
	movl	$.LC12, %esi
	movl	$.LC87, %edi
	call	__assert_fail
	.align 32
.L342:
	.loc 2 1619 0
	movl	-116(%rbp), %eax
	sall	$4, %eax
	addl	-132(%rbp), %eax
	mov	%eax, %eax
	movq	%nacl:(%r15,%rax), %rax
	andl	$16777215, %eax
	salq	$9, %rax
	movq	%rax, -128(%rbp)
	.loc 2 1620 0
	movl	-116(%rbp), %eax
	sall	$4, %eax
	addl	-136(%rbp), %eax
	mov	%eax, %eax
	movq	%nacl:(%r15,%rax), %rax
	andl	$16777215, %eax
	salq	$9, %rax
	addq	%rax, -128(%rbp)
	.loc 2 1621 0
	movl	-116(%rbp), %eax
	sall	$4, %eax
	addl	-132(%rbp), %eax
	mov	%eax, %eax
	movl	-116(%rbp), %edx
	sall	$4, %edx
	addl	-132(%rbp), %edx
	mov	%edx, %edx
	movq	%nacl:(%r15,%rdx), %rcx
	movl	-116(%rbp), %edx
	sall	$4, %edx
	addl	-132(%rbp), %edx
	mov	%edx, %edx
	movq	%nacl:(%r15,%rdx), %rdx
	movq	-128(%rbp), %rbx
	shrq	$9, %rbx
	xorq	%rbx, %rdx
	andl	$16777215, %edx
	xorq	%rcx, %rdx
	movq	%rdx, %nacl:(%r15,%rax)
	.loc 2 1617 0
	addl	$1, -116(%rbp)
	.align 32
.L341:
	mov	-140(%rbp), %eax
	mov	%nacl:72(%r15,%rax), %eax
	movq	%nacl:(%r15,%rax), %rax
	andl	$16777215, %eax
	salq	$9, %rax
	testq	%rax, %rax
	setne	%al
	movzbl	%al, %edx
	mov	-140(%rbp), %eax
	mov	%nacl:72(%r15,%rax), %eax
	addl	$16, %eax
	mov	%eax, %eax
	movq	%nacl:(%r15,%rax), %rax
	andl	$16777215, %eax
	salq	$9, %rax
	testq	%rax, %rax
	setne	%al
	movzbl	%al, %eax
	addl	%eax, %edx
	mov	-140(%rbp), %eax
	mov	%nacl:72(%r15,%rax), %eax
	addl	$32, %eax
	mov	%eax, %eax
	movq	%nacl:(%r15,%rax), %rax
	andl	$16777215, %eax
	salq	$9, %rax
	testq	%rax, %rax
	setne	%al
	movzbl	%al, %eax
	leal	(%rdx,%rax), %eax
	cmpl	-116(%rbp), %eax
	jg	.L343
	.loc 2 1623 0
	movl	-140(%rbp), %eax
	addl	$564, %eax
	mov	%eax, %eax
	movl	%eax, %edi
	call	mutex_exit
	movq	8(%rbp), %rsi
	movl	$zio_write_allocate_gang_member_done, %edi
	call	__cyg_profile_func_exit
	.loc 2 1624 0
	movq	-8(%rbp), %rbx
	movq	%rbp, %rsp
	popq	%r11
	naclrestbp	%r11d, %r15
	popq	%r11
	nacljmp	%r11d,%r15
	.cfi_endproc
.LFE128:
	.size	zio_write_allocate_gang_member_done, .-zio_write_allocate_gang_member_done
	.section	.rodata
.LC88:
	.string	"gbps_left != 0"
.LC89:
	.string	"28"
.LC90:
	.string	"error"
.LC91:
	.string	"lsize != (1ULL << 9)"
	.align 8
.LC92:
	.string	"resid == 0 && loff == zio->io_size"
	.text
	.align 32
	.type	zio_write_allocate_gang_members, @function
zio_write_allocate_gang_members:
.LFB129:
	.loc 2 1628 0
	.cfi_startproc
	pushq	%rbp
.LCFI106:
	.cfi_def_cfa_offset 16
	movq	%rsp, %rbp
	.cfi_offset 6, -16
.LCFI107:
	.cfi_def_cfa_register 6
	pushq	%rbx
	naclsspq	$216, %r15
	movl	%edi, -148(%rbp)
	movl	%esi, -152(%rbp)
	.loc 2 1628 0
	movq	8(%rbp), %rsi
	movl	$zio_write_allocate_gang_members, %edi
	.cfi_offset 3, -24
	call	__cyg_profile_func_enter
	.loc 2 1629 0
	mov	-148(%rbp), %eax
	movl	%nacl:72(%r15,%rax), %eax
	movl	%eax, -136(%rbp)
	.loc 2 1630 0
	movl	-136(%rbp), %eax
	movl	%eax, -132(%rbp)
	.loc 2 1631 0
	mov	-148(%rbp), %eax
	movl	%nacl:8(%r15,%rax), %eax
	movl	%eax, -128(%rbp)
	.loc 2 1633 0
	mov	-148(%rbp), %eax
	movq	%nacl:64(%r15,%rax), %rax
	movq	%rax, -120(%rbp)
	.loc 2 1634 0
	mov	-148(%rbp), %eax
	movq	%nacl:384(%r15,%rax), %rax
	movq	%rax, -112(%rbp)
	.loc 2 1635 0
	mov	-148(%rbp), %eax
	movq	%nacl:384(%r15,%rax), %rax
	shrq	%rax
	negq	%rax
	andq	$-512, %rax
	negq	%rax
	movq	%rax, -104(%rbp)
	.loc 2 1638 0
	mov	-148(%rbp), %eax
	movl	%nacl:56(%r15,%rax), %eax
	movl	%eax, -64(%rbp)
	.loc 2 1639 0
	movl	-64(%rbp), %eax
	leal	1(%rax), %ebx
	movl	-128(%rbp), %eax
	movl	%eax, %edi
	call	spa_max_replication
	cmpl	%eax, %ebx
	jge	.L346
	movl	-64(%rbp), %eax
	addl	$1, %eax
	jmp	.L347
	.align 32
.L346:
	movl	-128(%rbp), %eax
	movl	%eax, %edi
	call	spa_max_replication
	.align 32
.L347:
	movl	%eax, -60(%rbp)
	.loc 2 1643 0
	movq	$512, -96(%rbp)
	.loc 2 1644 0
	movl	$3, -68(%rbp)
	.loc 2 1646 0
	movq	-120(%rbp), %rdi
	movl	-60(%rbp), %esi
	movl	-136(%rbp), %ecx
	movq	-96(%rbp), %rdx
	movl	-152(%rbp), %ebx
	movl	-128(%rbp), %eax
	movl	$0, 8(%rsp)
	movl	$0, (%rsp)
	movq	%rdi, %r9
	movl	%esi, %r8d
	movl	%ebx, %esi
	movl	%eax, %edi
	call	metaslab_alloc
	movl	%eax, -56(%rbp)
	.loc 2 1648 0
	cmpl	$0, -56(%rbp)
	je	.L348
	.loc 2 1649 0
	mov	-148(%rbp), %eax
	movl	-56(%rbp), %edx
	movl	%edx, %nacl:528(%r15,%rax)
	.loc 2 1650 0
	movl	$256, %ebx
	jmp	.L349
	.align 32
.L348:
	.loc 2 1653 0
	movl	$0, -48(%rbp)
	jmp	.L350
	.align 32
.L353:
	.loc 2 1654 0
	movl	-48(%rbp), %eax
	sall	$4, %eax
	addl	-132(%rbp), %eax
	mov	%eax, %edx
	movl	-48(%rbp), %eax
	sall	$4, %eax
	addl	-132(%rbp), %eax
	mov	%eax, %eax
	movq	%nacl:8(%r15,%rax), %rcx
	movl	-48(%rbp), %eax
	sall	$4, %eax
	addl	-132(%rbp), %eax
	mov	%eax, %eax
	movq	%nacl:8(%r15,%rax), %rax
	testq	%rax, %rax
	js	.L351
	movabsq	$-9223372036854775808, %rax
	jmp	.L352
	.align 32
.L351:
	movl	$0, %eax
	.align 32
.L352:
	xorq	%rcx, %rax
	movq	%rax, %nacl:8(%r15,%rdx)
	.loc 2 1653 0
	addl	$1, -48(%rbp)
	.align 32
.L350:
	movl	-48(%rbp), %eax
	cmpl	-60(%rbp), %eax
	jl	.L353
	.loc 2 1656 0
	mov	-136(%rbp), %eax
	movq	-120(%rbp), %rdx
	movq	%rdx, %nacl:80(%r15,%rax)
	.loc 2 1658 0
	movq	-96(%rbp), %rax
	movl	%eax, %edi
	call	zio_buf_alloc
	mov	%eax, %eax
	movl	%eax, -124(%rbp)
	.loc 2 1659 0
	movq	-96(%rbp), %rax
	movl	%eax, %edx
	movl	-124(%rbp), %eax
	movl	%edx, %esi
	movl	%eax, %edi
	call	bzero
	.loc 2 1661 0
	movq	$0, -88(%rbp)
	movl	$0, -52(%rbp)
	jmp	.L354
	.align 32
.L365:
.LBB49:
	.loc 2 1663 0
	mov	-124(%rbp), %eax
	movl	-52(%rbp), %edx
	sall	$7, %edx
	leal	(%rdx,%rax), %eax
	movl	%eax, -44(%rbp)
	.loc 2 1664 0
	movl	-44(%rbp), %eax
	movl	%eax, -132(%rbp)
	.loc 2 1666 0
	cmpl	$0, -68(%rbp)
	jne	.L355
	movl	$__PRETTY_FUNCTION__.11339, %ecx
	movl	$1666, %edx
	movl	$.LC12, %esi
	movl	$.LC88, %edi
	call	__assert_fail
	.align 32
.L355:
	.loc 2 1667 0
	movq	-104(%rbp), %rax
	cmpq	%rax, -112(%rbp)
	cmovbe	-112(%rbp), %rax
	movq	%rax, -104(%rbp)
	.loc 2 1669 0
	jmp	.L356
	.align 32
.L361:
	.loc 2 1670 0
	movq	-120(%rbp), %r8
	movl	-64(%rbp), %edi
	movl	-44(%rbp), %ecx
	movq	-104(%rbp), %rdx
	movl	-152(%rbp), %ebx
	movl	-128(%rbp), %eax
	movl	$0, 8(%rsp)
	movl	-136(%rbp), %esi
	movl	%esi, (%rsp)
	movq	%r8, %r9
	movl	%edi, %r8d
	movl	%ebx, %esi
	movl	%eax, %edi
	call	metaslab_alloc
	movl	%eax, -56(%rbp)
	.loc 2 1672 0
	cmpl	$0, -56(%rbp)
	je	.L369
	.align 32
.L357:
.LBB50:
	.loc 2 1674 0
	movl	-56(%rbp), %eax
	cltq
	movq	%rax, -40(%rbp)
	movq	$28, -32(%rbp)
	movq	-40(%rbp), %rax
	cmpq	-32(%rbp), %rax
	je	.L359
.LBB51:
	naclsspq	$272, %r15
	leal	48(%rsp), %eax
	addq	$15, %rax
	shrq	$4, %rax
	salq	$4, %rax
	mov	%eax, %eax
	movl	%eax, -20(%rbp)
	movl	$.LC17, %eax
	mov	%eax, %ebx
	movl	-20(%rbp), %eax
	movq	-32(%rbp), %rdx
	movq	%rdx, 16(%rsp)
	movl	$.LC26, 8(%rsp)
	movq	-40(%rbp), %rdx
	movq	%rdx, (%rsp)
	movl	$.LC89, %r9d
	movl	$.LC26, %r8d
	movl	$.LC90, %ecx
	movl	%ebx, %edx
	movl	$256, %esi
	movl	%eax, %edi
	movl	$0, %eax
	call	snprintf
	movl	-20(%rbp), %eax
	movl	$1674, %edx
	movl	$.LC12, %esi
	movl	%eax, %edi
	call	__assert
	.align 32
.L359:
.LBE51:
.LBE50:
	.loc 2 1676 0
	cmpq	$512, -104(%rbp)
	jne	.L360
	.loc 2 1677 0
	mov	-148(%rbp), %eax
	movl	-56(%rbp), %edx
	movl	%edx, %nacl:528(%r15,%rax)
	.loc 2 1678 0
	movl	$256, %ebx
	jmp	.L349
	.align 32
.L360:
	.loc 2 1680 0
	movq	-104(%rbp), %rax
	shrq	%rax
	negq	%rax
	andq	$-512, %rax
	negq	%rax
	movq	%rax, -104(%rbp)
	.align 32
.L356:
	.loc 2 1669 0
	mov	-68(%rbp), %eax
	imulq	-104(%rbp), %rax
	cmpq	-112(%rbp), %rax
	jae	.L361
	jmp	.L358
	.align 32
.L369:
	.loc 2 1673 0
	nop
	.align 32
.L358:
	.loc 2 1683 0
	mov	-68(%rbp), %eax
	imulq	-104(%rbp), %rax
	cmpq	-112(%rbp), %rax
	jb	.L362
	.loc 2 1684 0
	movq	-104(%rbp), %rax
	movq	%rax, -80(%rbp)
	.loc 2 1685 0
	mov	-44(%rbp), %eax
	movq	%nacl:48(%r15,%rax), %rdx
	mov	-44(%rbp), %eax
	movq	%nacl:48(%r15,%rax), %rax
	movq	-80(%rbp), %rcx
	shrq	$9, %rcx
	subq	$1, %rcx
	xorq	%rcx, %rax
	andl	$65535, %eax
	xorq	%rax, %rdx
	mov	-44(%rbp), %eax
	movq	%rdx, %nacl:48(%r15,%rax)
	.loc 2 1686 0
	mov	-44(%rbp), %eax
	movq	%nacl:48(%r15,%rax), %rdx
	mov	-44(%rbp), %eax
	movq	%nacl:48(%r15,%rax), %rax
	movq	%rax, %rcx
	shrq	$16, %rcx
	movq	-80(%rbp), %rax
	shrq	$9, %rax
	subq	$1, %rax
	xorq	%rcx, %rax
	salq	$16, %rax
	andl	$4294967295, %eax
	xorq	%rax, %rdx
	mov	-44(%rbp), %eax
	movq	%rdx, %nacl:48(%r15,%rax)
	.loc 2 1687 0
	mov	-44(%rbp), %eax
	movq	%nacl:48(%r15,%rax), %rdx
	mov	-44(%rbp), %eax
	movq	%nacl:48(%r15,%rax), %rax
	shrq	$32, %rax
	xorq	$2, %rax
	andl	$255, %eax
	salq	$32, %rax
	xorq	%rax, %rdx
	mov	-44(%rbp), %eax
	movq	%rdx, %nacl:48(%r15,%rax)
	.loc 2 1688 0
	mov	-44(%rbp), %eax
	movq	-120(%rbp), %rdx
	movq	%rdx, %nacl:80(%r15,%rax)
	.loc 2 1689 0
	movl	-148(%rbp), %eax
	addl	$16, %eax
	mov	%eax, %edi
	mov	-148(%rbp), %eax
	movl	%nacl:484(%r15,%rax), %eax
	movl	%eax, %r10d
	andl	$425111, %r10d
	.loc 2 1692 0
	mov	-148(%rbp), %eax
	movzbl	%nacl:505(%r15,%rax), %eax
	.loc 2 1689 0
	movzbl	%al, %esi
	mov	-148(%rbp), %eax
	mov	%nacl:376(%r15,%rax), %eax
	movq	-88(%rbp), %rdx
	leal	(%rdx,%rax), %eax
	mov	%eax, %r9d
	mov	-148(%rbp), %eax
	movl	%nacl:48(%r15,%rax), %eax
	movl	%eax, %edx
	movl	-44(%rbp), %r8d
	movq	-120(%rbp), %rcx
	movl	-128(%rbp), %ebx
	movl	-148(%rbp), %eax
	movl	%edi, 40(%rsp)
	movl	%r10d, 32(%rsp)
	movl	%esi, 24(%rsp)
	movl	$0, 16(%rsp)
	movl	$zio_write_allocate_gang_member_done, 8(%rsp)
	movq	-80(%rbp), %rsi
	movq	%rsi, (%rsp)
	movl	%ebx, %esi
	movl	%eax, %edi
	call	zio_rewrite
	mov	%eax, %eax
	movl	%eax, %edi
	call	zio_nowait
	jmp	.L363
	.align 32
.L362:
	.loc 2 1696 0
	mov	-68(%rbp), %eax
	movq	%rax, -168(%rbp)
	movq	-112(%rbp), %rax
	movl	$0, %edx
	divq	-168(%rbp)
	negq	%rax
	andq	$-512, %rax
	negq	%rax
	movq	%rax, -80(%rbp)
	.loc 2 1697 0
	cmpq	$512, -80(%rbp)
	jne	.L364
	movl	$__PRETTY_FUNCTION__.11339, %ecx
	movl	$1697, %edx
	movl	$.LC12, %esi
	movl	$.LC91, %edi
	call	__assert_fail
	.align 32
.L364:
	.loc 2 1698 0
	mov	-148(%rbp), %eax
	movl	%nacl:484(%r15,%rax), %eax
	movl	%eax, %r9d
	andl	$425111, %r9d
	.loc 2 1702 0
	mov	-148(%rbp), %eax
	movzbl	%nacl:505(%r15,%rax), %eax
	.loc 2 1698 0
	movzbl	%al, %esi
	mov	-148(%rbp), %eax
	mov	%nacl:376(%r15,%rax), %eax
	movq	-88(%rbp), %rdx
	leal	(%rdx,%rax), %eax
	mov	%eax, %r8d
	.loc 2 1699 0
	mov	-148(%rbp), %eax
	movl	%nacl:48(%r15,%rax), %eax
	.loc 2 1698 0
	movl	%eax, %edx
	movl	-44(%rbp), %edi
	movq	-120(%rbp), %rcx
	movl	-128(%rbp), %ebx
	movl	-148(%rbp), %eax
	movl	%r9d, 32(%rsp)
	movl	%esi, 24(%rsp)
	movl	$0, 16(%rsp)
	movl	$zio_write_allocate_gang_member_done, 8(%rsp)
	movq	-80(%rbp), %rsi
	movq	%rsi, (%rsp)
	movl	%r8d, %r9d
	movl	%edi, %r8d
	movl	%ebx, %esi
	movl	%eax, %edi
	call	zio_write_allocate
	mov	%eax, %eax
	movl	%eax, %edi
	call	zio_nowait
	.align 32
.L363:
.LBE49:
	.loc 2 1662 0
	movq	-80(%rbp), %rax
	addq	%rax, -88(%rbp)
	movq	-80(%rbp), %rax
	subq	%rax, -112(%rbp)
	subl	$1, -68(%rbp)
	addl	$1, -52(%rbp)
	.align 32
.L354:
	.loc 2 1661 0
	mov	-148(%rbp), %eax
	movq	%nacl:384(%r15,%rax), %rax
	cmpq	-88(%rbp), %rax
	jne	.L365
	.loc 2 1707 0
	cmpq	$0, -112(%rbp)
	jne	.L366
	mov	-148(%rbp), %eax
	movq	%nacl:384(%r15,%rax), %rax
	cmpq	-88(%rbp), %rax
	je	.L367
	.align 32
.L366:
	movl	$__PRETTY_FUNCTION__.11339, %ecx
	movl	$1707, %edx
	movl	$.LC12, %esi
	movl	$.LC92, %edi
	call	__assert_fail
	.align 32
.L367:
	.loc 2 1709 0
	mov	-148(%rbp), %eax
	movl	%nacl:536(%r15,%rax), %eax
	movl	%eax, %edx
	orb	$32, %dh
	mov	-148(%rbp), %eax
	movl	%edx, %nacl:536(%r15,%rax)
	.loc 2 1711 0
	movq	-96(%rbp), %rcx
	movq	-96(%rbp), %rdx
	movl	-124(%rbp), %ebx
	movl	-148(%rbp), %eax
	movl	%ebx, %esi
	movl	%eax, %edi
	call	zio_push_transform
	.loc 2 1719 0
	movl	-148(%rbp), %eax
	movl	%eax, %edi
	call	zio_wait_for_children_done
	movl	%eax, %ebx
	.align 32
.L349:
	movq	8(%rbp), %rsi
	movl	$zio_write_allocate_gang_members, %edi
	call	__cyg_profile_func_exit
	movl	%ebx, %eax
	.loc 2 1720 0
	movq	-8(%rbp), %rbx
	movq	%rbp, %rsp
	popq	%r11
	naclrestbp	%r11d, %r15
	popq	%r11
	nacljmp	%r11d,%r15
	.cfi_endproc
.LFE129:
	.size	zio_write_allocate_gang_members, .-zio_write_allocate_gang_members
	.section	.rodata
.LC93:
	.string	"spa_max_replication(spa)"
	.align 8
.LC94:
	.string	"((((((bp)->blk_prop) >> (16)) & ((1ULL << (16)) - 1)) + (1)) << (9))"
	.text
	.align 32
	.type	zio_dva_allocate, @function
zio_dva_allocate:
.LFB130:
	.loc 2 1729 0
	.cfi_startproc
	pushq	%rbp
.LCFI108:
	.cfi_def_cfa_offset 16
	movq	%rsp, %rbp
	.cfi_offset 6, -16
.LCFI109:
	.cfi_def_cfa_register 6
	pushq	%rbx
	naclsspq	$168, %r15
	movl	%edi, -132(%rbp)
	.loc 2 1729 0
	movq	8(%rbp), %rsi
	movl	$zio_dva_allocate, %edi
	.cfi_offset 3, -24
	call	__cyg_profile_func_enter
	.loc 2 1730 0
	mov	-132(%rbp), %eax
	movl	%nacl:8(%r15,%rax), %eax
	movl	%eax, -128(%rbp)
	.loc 2 1731 0
	mov	-128(%rbp), %eax
	movl	%nacl:160(%r15,%rax), %eax
	movl	%eax, -124(%rbp)
	.loc 2 1732 0
	mov	-132(%rbp), %eax
	movl	%nacl:72(%r15,%rax), %eax
	movl	%eax, -120(%rbp)
	.loc 2 1735 0
	mov	-120(%rbp), %eax
	movq	%nacl:80(%r15,%rax), %rax
	testq	%rax, %rax
	je	.L371
	movl	$__PRETTY_FUNCTION__.11473, %ecx
	movl	$1735, %edx
	movl	$.LC12, %esi
	movl	$.LC69, %edi
	call	__assert_fail
	.align 32
.L371:
.LBB52:
	.loc 2 1736 0
	mov	-120(%rbp), %eax
	movq	%nacl:(%r15,%rax), %rax
	andl	$16777215, %eax
	salq	$9, %rax
	testq	%rax, %rax
	setne	%al
	movzbl	%al, %edx
	movl	-120(%rbp), %eax
	addl	$16, %eax
	mov	%eax, %eax
	movq	%nacl:(%r15,%rax), %rax
	andl	$16777215, %eax
	salq	$9, %rax
	testq	%rax, %rax
	setne	%al
	movzbl	%al, %eax
	addl	%eax, %edx
	movl	-120(%rbp), %eax
	addl	$32, %eax
	mov	%eax, %eax
	movq	%nacl:(%r15,%rax), %rax
	andl	$16777215, %eax
	salq	$9, %rax
	testq	%rax, %rax
	setne	%al
	movzbl	%al, %eax
	leal	(%rdx,%rax), %eax
	cltq
	movq	%rax, -112(%rbp)
	movq	$0, -104(%rbp)
	movq	-112(%rbp), %rax
	cmpq	-104(%rbp), %rax
	je	.L372
.LBB53:
	naclsspq	$272, %r15
	leal	24(%rsp), %eax
	addq	$15, %rax
	shrq	$4, %rax
	salq	$4, %rax
	mov	%eax, %eax
	movl	%eax, -92(%rbp)
	movl	$.LC17, %eax
	mov	%eax, %ebx
	movl	-92(%rbp), %eax
	movq	-104(%rbp), %rdx
	movq	%rdx, 16(%rsp)
	movl	$.LC26, 8(%rsp)
	movq	-112(%rbp), %rdx
	movq	%rdx, (%rsp)
	movl	$.LC45, %r9d
	movl	$.LC26, %r8d
	movl	$.LC30, %ecx
	movl	%ebx, %edx
	movl	$256, %esi
	movl	%eax, %edi
	movl	$0, %eax
	call	snprintf
	movl	-92(%rbp), %eax
	movl	$1736, %edx
	movl	$.LC12, %esi
	movl	%eax, %edi
	call	__assert
	.align 32
.L372:
.LBE53:
.LBE52:
.LBB54:
	.loc 2 1737 0
	mov	-132(%rbp), %eax
	movl	%nacl:56(%r15,%rax), %eax
	cltq
	movq	%rax, -88(%rbp)
	movq	$0, -80(%rbp)
	movq	-88(%rbp), %rax
	cmpq	-80(%rbp), %rax
	ja	.L373
.LBB55:
	naclsspq	$272, %r15
	leal	24(%rsp), %eax
	addq	$15, %rax
	shrq	$4, %rax
	salq	$4, %rax
	mov	%eax, %eax
	movl	%eax, -68(%rbp)
	movl	$.LC17, %eax
	mov	%eax, %ebx
	movl	-68(%rbp), %eax
	movq	-80(%rbp), %rdx
	movq	%rdx, 16(%rsp)
	movl	$.LC46, 8(%rsp)
	movq	-88(%rbp), %rdx
	movq	%rdx, (%rsp)
	movl	$.LC45, %r9d
	movl	$.LC46, %r8d
	movl	$.LC31, %ecx
	movl	%ebx, %edx
	movl	$256, %esi
	movl	%eax, %edi
	movl	$0, %eax
	call	snprintf
	movl	-68(%rbp), %eax
	movl	$1737, %edx
	movl	$.LC12, %esi
	movl	%eax, %edi
	call	__assert
	.align 32
.L373:
.LBE55:
.LBE54:
.LBB56:
	.loc 2 1738 0
	mov	-132(%rbp), %eax
	movl	%nacl:56(%r15,%rax), %eax
	cltq
	movq	%rax, -64(%rbp)
	movl	-128(%rbp), %eax
	movl	%eax, %edi
	call	spa_max_replication
	cltq
	movq	%rax, -56(%rbp)
	movq	-64(%rbp), %rax
	cmpq	-56(%rbp), %rax
	jbe	.L374
.LBB57:
	naclsspq	$272, %r15
	leal	24(%rsp), %eax
	addq	$15, %rax
	shrq	$4, %rax
	salq	$4, %rax
	mov	%eax, %eax
	movl	%eax, -44(%rbp)
	movl	$.LC17, %eax
	mov	%eax, %ebx
	movl	-44(%rbp), %eax
	movq	-56(%rbp), %rdx
	movq	%rdx, 16(%rsp)
	movl	$.LC19, 8(%rsp)
	movq	-64(%rbp), %rdx
	movq	%rdx, (%rsp)
	movl	$.LC93, %r9d
	movl	$.LC19, %r8d
	movl	$.LC31, %ecx
	movl	%ebx, %edx
	movl	$256, %esi
	movl	%eax, %edi
	movl	$0, %eax
	call	snprintf
	movl	-44(%rbp), %eax
	movl	$1738, %edx
	movl	$.LC12, %esi
	movl	%eax, %edi
	call	__assert
	.align 32
.L374:
.LBE57:
.LBE56:
	.loc 2 1745 0
	movzwl	zio_io_fail_shift(%rip), %eax
	testw	%ax, %ax
	je	.L375
	.loc 2 1746 0
	mov	-132(%rbp), %eax
	mov	%nacl:8(%r15,%rax), %eax
	movl	%eax, %edi
	call	spa_sync_pass
	movl	zio_sync_pass+8(%rip), %edx
	.loc 2 1745 0
	cmpl	%edx, %eax
	jg	.L375
	.loc 2 1747 0
	movzwl	zio_io_fail_shift(%rip), %eax
	movzwl	%ax, %eax
	movl	%eax, %edi
	call	zio_io_should_fail
	.loc 2 1745 0
	testl	%eax, %eax
	je	.L375
	.loc 2 1748 0
	mov	-132(%rbp), %eax
	movl	%nacl:484(%r15,%rax), %eax
	movl	%eax, %edx
	orl	$524288, %edx
	mov	-132(%rbp), %eax
	movl	%edx, %nacl:484(%r15,%rax)
	.align 32
.L375:
.LBB58:
	.loc 2 1750 0
	mov	-132(%rbp), %eax
	movq	%nacl:384(%r15,%rax), %rax
	movq	%rax, -40(%rbp)
	mov	-120(%rbp), %eax
	movq	%nacl:48(%r15,%rax), %rax
	shrq	$16, %rax
	andl	$65535, %eax
	addq	$1, %rax
	salq	$9, %rax
	movq	%rax, -32(%rbp)
	movq	-40(%rbp), %rax
	cmpq	-32(%rbp), %rax
	je	.L376
.LBB59:
	naclsspq	$272, %r15
	leal	24(%rsp), %eax
	addq	$15, %rax
	shrq	$4, %rax
	salq	$4, %rax
	mov	%eax, %eax
	movl	%eax, -20(%rbp)
	movl	$.LC17, %eax
	mov	%eax, %ebx
	movl	-20(%rbp), %eax
	movq	-32(%rbp), %rdx
	movq	%rdx, 16(%rsp)
	movl	$.LC26, 8(%rsp)
	movq	-40(%rbp), %rdx
	movq	%rdx, (%rsp)
	movl	$.LC94, %r9d
	movl	$.LC26, %r8d
	movl	$.LC78, %ecx
	movl	%ebx, %edx
	movl	$256, %esi
	movl	%eax, %edi
	movl	$0, %eax
	call	snprintf
	movl	-20(%rbp), %eax
	movl	$1750, %edx
	movl	$.LC12, %esi
	movl	%eax, %edi
	call	__assert
	.align 32
.L376:
.LBE59:
.LBE58:
	.loc 2 1752 0
	mov	-132(%rbp), %eax
	movq	%nacl:64(%r15,%rax), %rdi
	mov	-132(%rbp), %eax
	movl	%nacl:56(%r15,%rax), %esi
	mov	-132(%rbp), %eax
	movq	%nacl:384(%r15,%rax), %rdx
	movl	-120(%rbp), %ecx
	movl	-124(%rbp), %ebx
	movl	-128(%rbp), %eax
	movl	$0, 8(%rsp)
	movl	$0, (%rsp)
	movq	%rdi, %r9
	movl	%esi, %r8d
	movl	%ebx, %esi
	movl	%eax, %edi
	call	metaslab_alloc
	movl	%eax, -116(%rbp)
	.loc 2 1755 0
	cmpl	$0, -116(%rbp)
	jne	.L377
	.loc 2 1756 0
	mov	-132(%rbp), %eax
	movq	%nacl:64(%r15,%rax), %rdx
	mov	-120(%rbp), %eax
	movq	%rdx, %nacl:80(%r15,%rax)
	jmp	.L378
	.align 32
.L377:
	.loc 2 1757 0
	cmpl	$28, -116(%rbp)
	jne	.L379
	mov	-132(%rbp), %eax
	movq	%nacl:384(%r15,%rax), %rax
	cmpq	$512, %rax
	jbe	.L379
	.loc 2 1758 0
	movl	-124(%rbp), %edx
	movl	-132(%rbp), %eax
	movl	%edx, %esi
	movl	%eax, %edi
	call	zio_write_allocate_gang_members
	movl	%eax, %ebx
	jmp	.L380
	.align 32
.L379:
	.loc 2 1760 0
	mov	-132(%rbp), %eax
	movl	-116(%rbp), %edx
	movl	%edx, %nacl:528(%r15,%rax)
	.align 32
.L378:
	.loc 2 1763 0
	movl	$256, %ebx
	.align 32
.L380:
	movq	8(%rbp), %rsi
	movl	$zio_dva_allocate, %edi
	call	__cyg_profile_func_exit
	movl	%ebx, %eax
	.loc 2 1764 0
	movq	-8(%rbp), %rbx
	movq	%rbp, %rsp
	popq	%r11
	naclrestbp	%r11d, %r15
	popq	%r11
	nacljmp	%r11d,%r15
	.cfi_endproc
.LFE130:
	.size	zio_dva_allocate, .-zio_dva_allocate
	.align 32
	.type	zio_dva_free, @function
zio_dva_free:
.LFB131:
	.loc 2 1768 0
	.cfi_startproc
	pushq	%rbp
.LCFI110:
	.cfi_def_cfa_offset 16
	movq	%rsp, %rbp
	.cfi_offset 6, -16
.LCFI111:
	.cfi_def_cfa_register 6
	pushq	%rbx
	naclsspq	$40, %r15
	movl	%edi, -36(%rbp)
	.loc 2 1768 0
	movq	8(%rbp), %rsi
	movl	$zio_dva_free, %edi
	.cfi_offset 3, -24
	call	__cyg_profile_func_enter
	.loc 2 1769 0
	mov	-36(%rbp), %eax
	movl	%nacl:72(%r15,%rax), %eax
	movl	%eax, -20(%rbp)
	.loc 2 1771 0
	mov	-36(%rbp), %eax
	movq	%nacl:64(%r15,%rax), %rdx
	mov	-36(%rbp), %eax
	mov	%nacl:8(%r15,%rax), %ebx
	movl	-20(%rbp), %eax
	movl	$0, %ecx
	movl	%eax, %esi
	movl	%ebx, %edi
	call	metaslab_free
	.loc 2 1773 0
	mov	-20(%rbp), %eax
	movq	$0, %nacl:(%r15,%rax)
	mov	-20(%rbp), %eax
	movq	$0, %nacl:8(%r15,%rax)
	mov	-20(%rbp), %eax
	movq	$0, %nacl:16(%r15,%rax)
	mov	-20(%rbp), %eax
	movq	$0, %nacl:24(%r15,%rax)
	mov	-20(%rbp), %eax
	movq	$0, %nacl:32(%r15,%rax)
	mov	-20(%rbp), %eax
	movq	$0, %nacl:40(%r15,%rax)
	mov	-20(%rbp), %eax
	movq	$0, %nacl:80(%r15,%rax)
	mov	-20(%rbp), %eax
	movq	$0, %nacl:48(%r15,%rax)
	mov	-20(%rbp), %eax
	movq	$0, %nacl:56(%r15,%rax)
	mov	-20(%rbp), %eax
	movq	$0, %nacl:64(%r15,%rax)
	mov	-20(%rbp), %eax
	movq	$0, %nacl:72(%r15,%rax)
	mov	-20(%rbp), %eax
	movq	$0, %nacl:88(%r15,%rax)
	mov	-20(%rbp), %eax
	movq	$0, %nacl:96(%r15,%rax)
	mov	-20(%rbp), %eax
	movq	$0, %nacl:104(%r15,%rax)
	mov	-20(%rbp), %eax
	movq	$0, %nacl:112(%r15,%rax)
	mov	-20(%rbp), %eax
	movq	$0, %nacl:120(%r15,%rax)
	.loc 2 1775 0
	movl	$256, %ebx
	movq	8(%rbp), %rsi
	movl	$zio_dva_free, %edi
	call	__cyg_profile_func_exit
	movl	%ebx, %eax
	.loc 2 1776 0
	naclaspq	$40, %r15
	popq	%rbx
	popq	%r11
	naclrestbp	%r11d, %r15
	popq	%r11
	nacljmp	%r11d,%r15
	.cfi_endproc
.LFE131:
	.size	zio_dva_free, .-zio_dva_free
	.align 32
	.type	zio_dva_claim, @function
zio_dva_claim:
.LFB132:
	.loc 2 1780 0
	.cfi_startproc
	pushq	%rbp
.LCFI112:
	.cfi_def_cfa_offset 16
	movq	%rsp, %rbp
	.cfi_offset 6, -16
.LCFI113:
	.cfi_def_cfa_register 6
	pushq	%rbx
	naclsspq	$24, %r15
	movl	%edi, -20(%rbp)
	.loc 2 1780 0
	movq	8(%rbp), %rsi
	movl	$zio_dva_claim, %edi
	.cfi_offset 3, -24
	call	__cyg_profile_func_enter
	.loc 2 1781 0
	mov	-20(%rbp), %eax
	movq	%nacl:64(%r15,%rax), %rax
	mov	-20(%rbp), %edx
	mov	%nacl:72(%r15,%rdx), %ebx
	mov	-20(%rbp), %edx
	mov	%nacl:8(%r15,%rdx), %ecx
	movq	%rax, %rdx
	movl	%ebx, %esi
	movl	%ecx, %edi
	call	metaslab_claim
	mov	-20(%rbp), %edx
	movl	%eax, %nacl:528(%r15,%rdx)
	.loc 2 1783 0
	movl	$256, %ebx
	movq	8(%rbp), %rsi
	movl	$zio_dva_claim, %edi
	call	__cyg_profile_func_exit
	movl	%ebx, %eax
	.loc 2 1784 0
	naclaspq	$24, %r15
	popq	%rbx
	popq	%r11
	naclrestbp	%r11d, %r15
	popq	%r11
	nacljmp	%r11d,%r15
	.cfi_endproc
.LFE132:
	.size	zio_dva_claim, .-zio_dva_claim
	.section	.rodata
.LC95:
	.string	"vd == tvd"
.LC96:
	.string	"!(zio->io_flags & 0x08000)"
	.align 8
.LC97:
	.string	"((zio->io_offset) & ((align) - 1)) == 0"
	.align 8
.LC98:
	.string	"((zio->io_size) & ((align) - 1)) == 0"
	.align 8
.LC99:
	.string	"bp == ((void *)0) || (-(-(((((((&((zio)->io_bp)->blk_dva[0]))->dva_word[1]) >> (63)) & ((1ULL << (1)) - 1)) ? (1ULL << 9) : (((((((zio)->io_bp)->blk_prop) >> (16)) & ((1ULL << (16)) - 1)) + (1)) << (9)))) & -(align))) == zio->io_size"
	.align 8
.LC100:
	.string	"zio->io_type != ZIO_TYPE_WRITE || (spa_mode & 2)"
	.text
	.align 32
	.type	zio_vdev_io_start, @function
zio_vdev_io_start:
.LFB133:
	.loc 2 1794 0
	.cfi_startproc
	pushq	%rbp
.LCFI114:
	.cfi_def_cfa_offset 16
	movq	%rsp, %rbp
	.cfi_offset 6, -16
.LCFI115:
	.cfi_def_cfa_register 6
	pushq	%rbx
	naclsspq	$72, %r15
	movl	%edi, -68(%rbp)
	.loc 2 1794 0
	movq	8(%rbp), %rsi
	movl	$zio_vdev_io_start, %edi
	.cfi_offset 3, -24
	call	__cyg_profile_func_enter
	.loc 2 1795 0
	mov	-68(%rbp), %eax
	movl	%nacl:392(%r15,%rax), %eax
	movl	%eax, -60(%rbp)
	.loc 2 1796 0
	cmpl	$0, -60(%rbp)
	je	.L387
	mov	-60(%rbp), %eax
	mov	%nacl:68(%r15,%rax), %eax
	jmp	.L388
	.align 32
.L387:
	movl	$0, %eax
	.align 32
.L388:
	movl	%eax, -56(%rbp)
	.loc 2 1797 0
	mov	-68(%rbp), %eax
	movl	%nacl:72(%r15,%rax), %eax
	movl	%eax, -52(%rbp)
	.loc 2 1799 0
	mov	-68(%rbp), %eax
	movl	%nacl:8(%r15,%rax), %eax
	movl	%eax, -36(%rbp)
	.loc 2 1806 0
	movl	-36(%rbp), %eax
	movl	%eax, %edi
	call	spa_state
	cmpl	$6, %eax
	jne	.L389
	.loc 2 1807 0
	mov	-68(%rbp), %eax
	movl	%nacl:492(%r15,%rax), %eax
	.loc 2 1806 0
	cmpl	$2, %eax
	jne	.L389
	.loc 2 1808 0
	movl	-68(%rbp), %eax
	movl	%eax, %edi
	call	zio_vdev_suspend_io
	movl	%eax, %ebx
	jmp	.L390
	.align 32
.L389:
	.loc 2 1813 0
	cmpl	$0, -60(%rbp)
	jne	.L391
	.loc 2 1814 0
	mov	vdev_mirror_ops+16(%rip), %eax
	movl	-68(%rbp), %edx
	movl	%edx, %edi
	naclcall	%eax,%r15
	movl	%eax, %ebx
	jmp	.L390
	.align 32
.L391:
	.loc 2 1816 0
	mov	-56(%rbp), %eax
	movq	%nacl:32(%r15,%rax), %rax
	movl	$1, %edx
	movq	%rdx, %rbx
	movl	%eax, %ecx
	salq	%cl, %rbx
	movq	%rbx, %rax
	movq	%rax, -48(%rbp)
	.loc 2 1818 0
	mov	-68(%rbp), %eax
	movl	%nacl:524(%r15,%rax), %eax
	testl	%eax, %eax
	jne	.L392
	movl	-60(%rbp), %eax
	cmpl	-56(%rbp), %eax
	jne	.L392
	.loc 2 1819 0
	mov	-68(%rbp), %eax
	movl	%nacl:484(%r15,%rax), %eax
	movl	%eax, %edx
	orl	$2, %edx
	mov	-68(%rbp), %eax
	movl	%edx, %nacl:484(%r15,%rax)
	.align 32
.L392:
	.loc 2 1821 0
	mov	-68(%rbp), %eax
	movl	%nacl:484(%r15,%rax), %eax
	andl	$256, %eax
	testl	%eax, %eax
	jne	.L393
	mov	-60(%rbp), %eax
	movq	%nacl:80(%r15,%rax), %rax
	testq	%rax, %rax
	jne	.L393
	.loc 2 1822 0
	mov	-68(%rbp), %eax
	movl	%nacl:484(%r15,%rax), %eax
	movl	%eax, %edx
	orb	$1, %dh
	mov	-68(%rbp), %eax
	movl	%edx, %nacl:484(%r15,%rax)
	.loc 2 1823 0
	mov	-68(%rbp), %eax
	movq	%nacl:416(%r15,%rax), %rax
	leaq	4194304(%rax), %rdx
	mov	-68(%rbp), %eax
	movq	%rdx, %nacl:416(%r15,%rax)
	.align 32
.L393:
	.loc 2 1826 0
	mov	-68(%rbp), %eax
	movq	%nacl:384(%r15,%rax), %rax
	movq	-48(%rbp), %rdx
	subq	$1, %rdx
	andq	%rdx, %rax
	testq	%rax, %rax
	je	.L394
.LBB60:
	.loc 2 1827 0
	mov	-68(%rbp), %eax
	movq	%nacl:384(%r15,%rax), %rax
	movq	%rax, %rdx
	negq	%rdx
	movq	-48(%rbp), %rax
	negq	%rax
	andq	%rdx, %rax
	negq	%rax
	movq	%rax, -32(%rbp)
	.loc 2 1828 0
	movq	-32(%rbp), %rax
	movl	%eax, %edi
	call	zio_buf_alloc
	mov	%eax, %eax
	movl	%eax, -20(%rbp)
	.loc 2 1829 0
	movl	-60(%rbp), %eax
	cmpl	-56(%rbp), %eax
	je	.L395
	movl	$__PRETTY_FUNCTION__.11582, %ecx
	movl	$1829, %edx
	movl	$.LC12, %esi
	movl	$.LC95, %edi
	call	__assert_fail
	.align 32
.L395:
	.loc 2 1830 0
	mov	-68(%rbp), %eax
	movl	%nacl:492(%r15,%rax), %eax
	cmpl	$2, %eax
	jne	.L396
	.loc 2 1831 0
	mov	-68(%rbp), %eax
	movq	%nacl:384(%r15,%rax), %rax
	movl	%eax, %edx
	mov	-68(%rbp), %eax
	mov	%nacl:376(%r15,%rax), %ecx
	movl	-20(%rbp), %eax
	movl	%eax, %esi
	movl	%ecx, %edi
	call	bcopy
	.loc 2 1832 0
	movq	-32(%rbp), %rax
	movl	%eax, %edx
	mov	-68(%rbp), %eax
	movq	%nacl:384(%r15,%rax), %rax
	subl	%eax, %edx
	mov	-68(%rbp), %eax
	movq	%nacl:384(%r15,%rax), %rax
	addl	-20(%rbp), %eax
	mov	%eax, %eax
	movl	%edx, %esi
	movl	%eax, %edi
	call	bzero
	.align 32
.L396:
	.loc 2 1834 0
	movq	-32(%rbp), %rcx
	movq	-32(%rbp), %rdx
	movl	-20(%rbp), %ebx
	movl	-68(%rbp), %eax
	movl	%ebx, %esi
	movl	%eax, %edi
	call	zio_push_transform
	.loc 2 1835 0
	mov	-68(%rbp), %eax
	movl	%nacl:484(%r15,%rax), %eax
	andl	$32768, %eax
	testl	%eax, %eax
	je	.L397
	movl	$__PRETTY_FUNCTION__.11582, %ecx
	movl	$1835, %edx
	movl	$.LC12, %esi
	movl	$.LC96, %edi
	call	__assert_fail
	.align 32
.L397:
	.loc 2 1836 0
	mov	-68(%rbp), %eax
	movl	%nacl:484(%r15,%rax), %eax
	movl	%eax, %edx
	orb	$128, %dh
	mov	-68(%rbp), %eax
	movl	%edx, %nacl:484(%r15,%rax)
	.align 32
.L394:
.LBE60:
	.loc 2 1839 0
	mov	-68(%rbp), %eax
	movq	%nacl:416(%r15,%rax), %rax
	movq	-48(%rbp), %rdx
	subq	$1, %rdx
	andq	%rdx, %rax
	testq	%rax, %rax
	je	.L398
	movl	$__PRETTY_FUNCTION__.11582, %ecx
	movl	$1839, %edx
	movl	$.LC12, %esi
	movl	$.LC97, %edi
	call	__assert_fail
	.align 32
.L398:
	.loc 2 1840 0
	mov	-68(%rbp), %eax
	movq	%nacl:384(%r15,%rax), %rax
	movq	-48(%rbp), %rdx
	subq	$1, %rdx
	andq	%rdx, %rax
	testq	%rax, %rax
	je	.L399
	movl	$__PRETTY_FUNCTION__.11582, %ecx
	movl	$1840, %edx
	movl	$.LC12, %esi
	movl	$.LC98, %edi
	call	__assert_fail
	.align 32
.L399:
	.loc 2 1841 0
	cmpl	$0, -52(%rbp)
	je	.L400
	mov	-68(%rbp), %eax
	mov	%nacl:72(%r15,%rax), %eax
	movq	%nacl:8(%r15,%rax), %rax
	testq	%rax, %rax
	js	.L401
	mov	-68(%rbp), %eax
	mov	%nacl:72(%r15,%rax), %eax
	movq	%nacl:48(%r15,%rax), %rax
	shrq	$16, %rax
	andl	$65535, %eax
	addq	$1, %rax
	salq	$9, %rax
	negq	%rax
	jmp	.L402
	.align 32
.L401:
	movq	$-512, %rax
	.align 32
.L402:
	movq	-48(%rbp), %rdx
	negq	%rdx
	andq	%rdx, %rax
	movq	%rax, %rdx
	negq	%rdx
	mov	-68(%rbp), %eax
	movq	%nacl:384(%r15,%rax), %rax
	cmpq	%rax, %rdx
	je	.L400
	movl	$__PRETTY_FUNCTION__.11582, %ecx
	movl	$1842, %edx
	movl	$.LC12, %esi
	movl	$.LC99, %edi
	call	__assert_fail
	.align 32
.L400:
	.loc 2 1843 0
	mov	-68(%rbp), %eax
	movl	%nacl:492(%r15,%rax), %eax
	cmpl	$2, %eax
	jne	.L403
	movl	spa_mode(%rip), %eax
	andl	$2, %eax
	testl	%eax, %eax
	jne	.L403
	movl	$__PRETTY_FUNCTION__.11582, %ecx
	movl	$1843, %edx
	movl	$.LC12, %esi
	movl	$.LC100, %edi
	call	__assert_fail
	.align 32
.L403:
	.loc 2 1845 0
	mov	-60(%rbp), %eax
	mov	%nacl:56(%r15,%rax), %eax
	mov	%nacl:16(%r15,%rax), %eax
	movl	-68(%rbp), %edx
	movl	%edx, %edi
	naclcall	%eax,%r15
	movl	%eax, %ebx
	.align 32
.L390:
	movq	8(%rbp), %rsi
	movl	$zio_vdev_io_start, %edi
	call	__cyg_profile_func_exit
	movl	%ebx, %eax
	.loc 2 1846 0
	naclaspq	$72, %r15
	popq	%rbx
	popq	%r11
	naclrestbp	%r11d, %r15
	popq	%r11
	nacljmp	%r11d,%r15
	.cfi_endproc
.LFE133:
	.size	zio_vdev_io_start, .-zio_vdev_io_start
	.align 32
	.type	zio_vdev_io_done, @function
zio_vdev_io_done:
.LFB134:
	.loc 2 1850 0
	.cfi_startproc
	pushq	%rbp
.LCFI116:
	.cfi_def_cfa_offset 16
	movq	%rsp, %rbp
	.cfi_offset 6, -16
.LCFI117:
	.cfi_def_cfa_register 6
	pushq	%rbx
	naclsspq	$24, %r15
	movl	%edi, -20(%rbp)
	.loc 2 1850 0
	movq	8(%rbp), %rsi
	movl	$zio_vdev_io_done, %edi
	.cfi_offset 3, -24
	call	__cyg_profile_func_enter
	.loc 2 1851 0
	mov	-20(%rbp), %eax
	mov	%nacl:392(%r15,%rax), %eax
	testq	%rax, %rax
	jne	.L406
	.loc 2 1852 0
	mov	vdev_mirror_ops+20(%rip), %eax
	movl	-20(%rbp), %edx
	movl	%edx, %edi
	naclcall	%eax,%r15
	movl	%eax, %ebx
	jmp	.L407
	.align 32
.L406:
	.loc 2 1854 0
	mov	-20(%rbp), %eax
	mov	%nacl:392(%r15,%rax), %eax
	mov	%nacl:56(%r15,%rax), %eax
	mov	%nacl:20(%r15,%rax), %eax
	movl	-20(%rbp), %edx
	movl	%edx, %edi
	naclcall	%eax,%r15
	movl	%eax, %ebx
	.align 32
.L407:
	movq	8(%rbp), %rsi
	movl	$zio_vdev_io_done, %edi
	call	__cyg_profile_func_exit
	movl	%ebx, %eax
	.loc 2 1855 0
	naclaspq	$24, %r15
	popq	%rbx
	popq	%r11
	naclrestbp	%r11d, %r15
	popq	%r11
	nacljmp	%r11d,%r15
	.cfi_endproc
.LFE134:
	.size	zio_vdev_io_done, .-zio_vdev_io_done
	.align 32
.globl zio_should_retry
	.type	zio_should_retry, @function
zio_should_retry:
.LFB135:
	.loc 2 1860 0
	.cfi_startproc
	pushq	%rbp
.LCFI118:
	.cfi_def_cfa_offset 16
	movq	%rsp, %rbp
	.cfi_offset 6, -16
.LCFI119:
	.cfi_def_cfa_register 6
	pushq	%rbx
	naclsspq	$40, %r15
	movl	%edi, -36(%rbp)
	.loc 2 1860 0
	movq	8(%rbp), %rsi
	movl	$zio_should_retry, %edi
	.cfi_offset 3, -24
	call	__cyg_profile_func_enter
	.loc 2 1861 0
	mov	-36(%rbp), %eax
	movl	%nacl:392(%r15,%rax), %eax
	movl	%eax, -20(%rbp)
	.loc 2 1863 0
	mov	-36(%rbp), %eax
	movl	%nacl:528(%r15,%rax), %eax
	testl	%eax, %eax
	jne	.L410
	.loc 2 1864 0
	movl	$0, %ebx
	jmp	.L411
	.align 32
.L410:
	.loc 2 1865 0
	mov	-36(%rbp), %eax
	mov	%nacl:476(%r15,%rax), %eax
	testq	%rax, %rax
	je	.L412
	.loc 2 1866 0
	movl	$0, %ebx
	jmp	.L411
	.align 32
.L412:
	.loc 2 1867 0
	cmpl	$0, -20(%rbp)
	je	.L413
	.loc 2 1868 0
	mov	-20(%rbp), %eax
	mov	%nacl:68(%r15,%rax), %eax
	cmpl	%eax, -20(%rbp)
	je	.L414
	.loc 2 1869 0
	movl	$0, %ebx
	jmp	.L411
	.align 32
.L414:
	.loc 2 1870 0
	mov	-20(%rbp), %eax
	movl	%nacl:1192(%r15,%rax), %eax
	testl	%eax, %eax
	je	.L413
	.loc 2 1871 0
	movl	$0, %ebx
	jmp	.L411
	.align 32
.L413:
	.loc 2 1873 0
	mov	-36(%rbp), %eax
	movl	%nacl:484(%r15,%rax), %eax
	andl	$128, %eax
	testl	%eax, %eax
	je	.L415
	.loc 2 1874 0
	movl	$0, %ebx
	jmp	.L411
	.align 32
.L415:
	.loc 2 1875 0
	mov	-36(%rbp), %eax
	movl	%nacl:524(%r15,%rax), %eax
	testl	%eax, %eax
	jle	.L416
	.loc 2 1876 0
	movl	$0, %ebx
	jmp	.L411
	.align 32
.L416:
	.loc 2 1878 0
	movl	$1, %ebx
	.align 32
.L411:
	movq	8(%rbp), %rsi
	movl	$zio_should_retry, %edi
	call	__cyg_profile_func_exit
	movl	%ebx, %eax
	.loc 2 1879 0
	naclaspq	$40, %r15
	popq	%rbx
	popq	%r11
	naclrestbp	%r11d, %r15
	popq	%r11
	nacljmp	%r11d,%r15
	.cfi_endproc
.LFE135:
	.size	zio_should_retry, .-zio_should_retry
	.section	.rodata
.LC101:
	.string	"zio->io_vsd == ((void *)0)"
.LC102:
	.string	"tvd == vd"
	.text
	.align 32
	.type	zio_vdev_io_assess, @function
zio_vdev_io_assess:
.LFB136:
	.loc 2 1883 0
	.cfi_startproc
	pushq	%rbp
.LCFI120:
	.cfi_def_cfa_offset 16
	movq	%rsp, %rbp
	.cfi_offset 6, -16
.LCFI121:
	.cfi_def_cfa_register 6
	pushq	%rbx
	naclsspq	$56, %r15
	movl	%edi, -52(%rbp)
	.loc 2 1883 0
	movq	8(%rbp), %rsi
	movl	$zio_vdev_io_assess, %edi
	.cfi_offset 3, -24
	call	__cyg_profile_func_enter
	.loc 2 1884 0
	mov	-52(%rbp), %eax
	movl	%nacl:392(%r15,%rax), %eax
	movl	%eax, -24(%rbp)
	.loc 2 1885 0
	cmpl	$0, -24(%rbp)
	je	.L419
	mov	-24(%rbp), %eax
	mov	%nacl:68(%r15,%rax), %eax
	jmp	.L420
	.align 32
.L419:
	movl	$0, %eax
	.align 32
.L420:
	movl	%eax, -20(%rbp)
	.loc 2 1887 0
	mov	-52(%rbp), %eax
	mov	%nacl:408(%r15,%rax), %eax
	testq	%rax, %rax
	je	.L421
	movl	$__PRETTY_FUNCTION__.11736, %ecx
	movl	$1887, %edx
	movl	$.LC12, %esi
	movl	$.LC101, %edi
	call	__assert_fail
	.align 32
.L421:
	.loc 2 1889 0
	mov	-52(%rbp), %eax
	movl	%nacl:484(%r15,%rax), %eax
	andl	$32768, %eax
	testl	%eax, %eax
	je	.L422
.LBB61:
	.loc 2 1892 0
	movl	-24(%rbp), %eax
	cmpl	-20(%rbp), %eax
	je	.L423
	movl	$__PRETTY_FUNCTION__.11736, %ecx
	movl	$1892, %edx
	movl	$.LC12, %esi
	movl	$.LC95, %edi
	call	__assert_fail
	.align 32
.L423:
	.loc 2 1893 0
	leal	-40(%rbp), %ecx
	leal	-40(%rbp), %edx
	leal	-28(%rbp), %ebx
	movl	-52(%rbp), %eax
	movl	%ebx, %esi
	movl	%eax, %edi
	call	zio_pop_transform
	.loc 2 1894 0
	mov	-52(%rbp), %eax
	movl	%nacl:492(%r15,%rax), %eax
	cmpl	$1, %eax
	jne	.L424
	.loc 2 1895 0
	mov	-52(%rbp), %eax
	movq	%nacl:384(%r15,%rax), %rax
	mov	-52(%rbp), %edx
	mov	%nacl:376(%r15,%rdx), %ebx
	mov	-28(%rbp), %ecx
	movl	%eax, %edx
	movl	%ebx, %esi
	movl	%ecx, %edi
	call	bcopy
	.align 32
.L424:
	.loc 2 1896 0
	movq	-40(%rbp), %rax
	mov	-28(%rbp), %edx
	movl	%eax, %esi
	movl	%edx, %edi
	call	zio_buf_free
	.loc 2 1897 0
	mov	-52(%rbp), %eax
	movl	%nacl:484(%r15,%rax), %eax
	movl	%eax, %edx
	andb	$127, %dh
	mov	-52(%rbp), %eax
	movl	%edx, %nacl:484(%r15,%rax)
	.align 32
.L422:
.LBE61:
	.loc 2 1900 0
	movl	zio_injection_enabled(%rip), %eax
	testl	%eax, %eax
	je	.L425
	mov	-52(%rbp), %eax
	movl	%nacl:528(%r15,%rax), %eax
	testl	%eax, %eax
	jne	.L425
	.loc 2 1901 0
	movl	-52(%rbp), %eax
	movl	$5, %esi
	movl	%eax, %edi
	call	zio_handle_fault_injection
	mov	-52(%rbp), %edx
	movl	%eax, %nacl:528(%r15,%rdx)
	.align 32
.L425:
	.loc 2 1907 0
	movl	-52(%rbp), %eax
	movl	%eax, %edi
	call	zio_should_retry
	testl	%eax, %eax
	je	.L426
	.loc 2 1908 0
	movl	-20(%rbp), %eax
	cmpl	-24(%rbp), %eax
	je	.L427
	movl	$__PRETTY_FUNCTION__.11736, %ecx
	movl	$1908, %edx
	movl	$.LC12, %esi
	movl	$.LC102, %edi
	call	__assert_fail
	.align 32
.L427:
	.loc 2 1910 0
	mov	-52(%rbp), %eax
	movl	%nacl:524(%r15,%rax), %eax
	leal	1(%rax), %edx
	mov	-52(%rbp), %eax
	movl	%edx, %nacl:524(%r15,%rax)
	.loc 2 1911 0
	mov	-52(%rbp), %eax
	movl	$0, %nacl:528(%r15,%rax)
	.loc 2 1912 0
	mov	-52(%rbp), %eax
	movl	%nacl:484(%r15,%rax), %eax
	movl	%eax, %edx
	andl	$490975, %edx
	mov	-52(%rbp), %eax
	movl	%edx, %nacl:484(%r15,%rax)
	.loc 2 1914 0
	mov	-52(%rbp), %eax
	movl	%nacl:484(%r15,%rax), %eax
	movl	%eax, %edx
	andl	$-3, %edx
	mov	-52(%rbp), %eax
	movl	%edx, %nacl:484(%r15,%rax)
	.loc 2 1915 0
	mov	-52(%rbp), %eax
	movl	%nacl:484(%r15,%rax), %eax
	movl	%eax, %edx
	orl	$16, %edx
	mov	-52(%rbp), %eax
	movl	%edx, %nacl:484(%r15,%rax)
	.loc 2 1916 0
	mov	-52(%rbp), %eax
	movl	$14, %nacl:496(%r15,%rax)
	.loc 2 1918 0
	movl	$256, %ebx
	jmp	.L428
	.align 32
.L426:
	.loc 2 1921 0
	movl	$256, %ebx
	.align 32
.L428:
	movq	8(%rbp), %rsi
	movl	$zio_vdev_io_assess, %edi
	call	__cyg_profile_func_exit
	movl	%ebx, %eax
	.loc 2 1922 0
	naclaspq	$56, %r15
	popq	%rbx
	popq	%r11
	naclrestbp	%r11d, %r15
	popq	%r11
	nacljmp	%r11d,%r15
	.cfi_endproc
.LFE136:
	.size	zio_vdev_io_assess, .-zio_vdev_io_assess
	.section	.rodata
	.align 8
.LC103:
	.string	"zio->io_stage == ZIO_STAGE_VDEV_IO_START"
.LC104:
	.string	"zio->io_error == 0"
	.text
	.align 32
.globl zio_vdev_io_reissue
	.type	zio_vdev_io_reissue, @function
zio_vdev_io_reissue:
.LFB137:
	.loc 2 1926 0
	.cfi_startproc
	pushq	%rbp
.LCFI122:
	.cfi_def_cfa_offset 16
	movq	%rsp, %rbp
	.cfi_offset 6, -16
.LCFI123:
	.cfi_def_cfa_register 6
	naclsspq	$16, %r15
	movl	%edi, -4(%rbp)
	.loc 2 1926 0
	movq	8(%rbp), %rsi
	movl	$zio_vdev_io_reissue, %edi
	call	__cyg_profile_func_enter
	.loc 2 1927 0
	mov	-4(%rbp), %eax
	movl	%nacl:496(%r15,%rax), %eax
	cmpl	$15, %eax
	je	.L431
	movl	$__PRETTY_FUNCTION__.11788, %ecx
	movl	$1927, %edx
	movl	$.LC12, %esi
	movl	$.LC103, %edi
	call	__assert_fail
	.align 32
.L431:
	.loc 2 1928 0
	mov	-4(%rbp), %eax
	movl	%nacl:528(%r15,%rax), %eax
	testl	%eax, %eax
	je	.L432
	movl	$__PRETTY_FUNCTION__.11788, %ecx
	movl	$1928, %edx
	movl	$.LC12, %esi
	movl	$.LC104, %edi
	call	__assert_fail
	.align 32
.L432:
	.loc 2 1930 0
	mov	-4(%rbp), %eax
	movl	%nacl:496(%r15,%rax), %eax
	leal	-1(%rax), %edx
	mov	-4(%rbp), %eax
	movl	%edx, %nacl:496(%r15,%rax)
	movq	8(%rbp), %rsi
	movl	$zio_vdev_io_reissue, %edi
	call	__cyg_profile_func_exit
	.loc 2 1931 0
	movq	%rbp, %rsp
	popq	%r11
	naclrestbp	%r11d, %r15
	popq	%r11
	nacljmp	%r11d,%r15
	.cfi_endproc
.LFE137:
	.size	zio_vdev_io_reissue, .-zio_vdev_io_reissue
	.section	.rodata
	.align 8
.LC105:
	.string	"zio->io_stage == ZIO_STAGE_VDEV_IO_DONE"
	.text
	.align 32
.globl zio_vdev_io_redone
	.type	zio_vdev_io_redone, @function
zio_vdev_io_redone:
.LFB138:
	.loc 2 1935 0
	.cfi_startproc
	pushq	%rbp
.LCFI124:
	.cfi_def_cfa_offset 16
	movq	%rsp, %rbp
	.cfi_offset 6, -16
.LCFI125:
	.cfi_def_cfa_register 6
	naclsspq	$16, %r15
	movl	%edi, -4(%rbp)
	.loc 2 1935 0
	movq	8(%rbp), %rsi
	movl	$zio_vdev_io_redone, %edi
	call	__cyg_profile_func_enter
	.loc 2 1936 0
	mov	-4(%rbp), %eax
	movl	%nacl:496(%r15,%rax), %eax
	cmpl	$16, %eax
	je	.L435
	movl	$__PRETTY_FUNCTION__.11800, %ecx
	movl	$1936, %edx
	movl	$.LC12, %esi
	movl	$.LC105, %edi
	call	__assert_fail
	.align 32
.L435:
	.loc 2 1938 0
	mov	-4(%rbp), %eax
	movl	%nacl:496(%r15,%rax), %eax
	leal	-1(%rax), %edx
	mov	-4(%rbp), %eax
	movl	%edx, %nacl:496(%r15,%rax)
	movq	8(%rbp), %rsi
	movl	$zio_vdev_io_redone, %edi
	call	__cyg_profile_func_exit
	.loc 2 1939 0
	movq	%rbp, %rsp
	popq	%r11
	naclrestbp	%r11d, %r15
	popq	%r11
	nacljmp	%r11d,%r15
	.cfi_endproc
.LFE138:
	.size	zio_vdev_io_redone, .-zio_vdev_io_redone
	.align 32
.globl zio_vdev_io_bypass
	.type	zio_vdev_io_bypass, @function
zio_vdev_io_bypass:
.LFB139:
	.loc 2 1943 0
	.cfi_startproc
	pushq	%rbp
.LCFI126:
	.cfi_def_cfa_offset 16
	movq	%rsp, %rbp
	.cfi_offset 6, -16
.LCFI127:
	.cfi_def_cfa_register 6
	naclsspq	$16, %r15
	movl	%edi, -4(%rbp)
	.loc 2 1943 0
	movq	8(%rbp), %rsi
	movl	$zio_vdev_io_bypass, %edi
	call	__cyg_profile_func_enter
	.loc 2 1944 0
	mov	-4(%rbp), %eax
	movl	%nacl:496(%r15,%rax), %eax
	cmpl	$15, %eax
	je	.L438
	movl	$__PRETTY_FUNCTION__.11809, %ecx
	movl	$1944, %edx
	movl	$.LC12, %esi
	movl	$.LC103, %edi
	call	__assert_fail
	.align 32
.L438:
	.loc 2 1945 0
	mov	-4(%rbp), %eax
	movl	%nacl:528(%r15,%rax), %eax
	testl	%eax, %eax
	je	.L439
	movl	$__PRETTY_FUNCTION__.11809, %ecx
	movl	$1945, %edx
	movl	$.LC12, %esi
	movl	$.LC104, %edi
	call	__assert_fail
	.align 32
.L439:
	.loc 2 1947 0
	mov	-4(%rbp), %eax
	movl	%nacl:484(%r15,%rax), %eax
	movl	%eax, %edx
	orb	$2, %dh
	mov	-4(%rbp), %eax
	movl	%edx, %nacl:484(%r15,%rax)
	.loc 2 1948 0
	mov	-4(%rbp), %eax
	movl	$16, %nacl:496(%r15,%rax)
	movq	8(%rbp), %rsi
	movl	$zio_vdev_io_bypass, %edi
	call	__cyg_profile_func_exit
	.loc 2 1949 0
	movq	%rbp, %rsp
	popq	%r11
	naclrestbp	%r11d, %r15
	popq	%r11
	nacljmp	%r11d,%r15
	.cfi_endproc
.LFE139:
	.size	zio_vdev_io_bypass, .-zio_vdev_io_bypass
	.align 32
	.type	zio_checksum_generate, @function
zio_checksum_generate:
.LFB140:
	.loc 2 1958 0
	.cfi_startproc
	pushq	%rbp
.LCFI128:
	.cfi_def_cfa_offset 16
	movq	%rsp, %rbp
	.cfi_offset 6, -16
.LCFI129:
	.cfi_def_cfa_register 6
	pushq	%rbx
	naclsspq	$88, %r15
	movl	%edi, -52(%rbp)
	.loc 2 1958 0
	movq	8(%rbp), %rsi
	movl	$zio_checksum_generate, %edi
	.cfi_offset 3, -24
	call	__cyg_profile_func_enter
	.loc 2 1959 0
	mov	-52(%rbp), %eax
	movl	%nacl:48(%r15,%rax), %eax
	movl	%eax, -48(%rbp)
	.loc 2 1960 0
	mov	-52(%rbp), %eax
	movl	%nacl:72(%r15,%rax), %eax
	movl	%eax, -44(%rbp)
.LBB62:
	.loc 2 1962 0
	mov	-52(%rbp), %eax
	movq	%nacl:384(%r15,%rax), %rax
	movq	%rax, -40(%rbp)
	mov	-44(%rbp), %eax
	movq	%nacl:48(%r15,%rax), %rax
	shrq	$16, %rax
	andl	$65535, %eax
	addq	$1, %rax
	salq	$9, %rax
	movq	%rax, -32(%rbp)
	movq	-40(%rbp), %rax
	cmpq	-32(%rbp), %rax
	je	.L442
.LBB63:
	naclsspq	$272, %r15
	leal	24(%rsp), %eax
	addq	$15, %rax
	shrq	$4, %rax
	salq	$4, %rax
	mov	%eax, %eax
	movl	%eax, -20(%rbp)
	movl	$.LC17, %eax
	mov	%eax, %ebx
	movl	-20(%rbp), %eax
	movq	-32(%rbp), %rdx
	movq	%rdx, 16(%rsp)
	movl	$.LC26, 8(%rsp)
	movq	-40(%rbp), %rdx
	movq	%rdx, (%rsp)
	movl	$.LC94, %r9d
	movl	$.LC26, %r8d
	movl	$.LC78, %ecx
	movl	%ebx, %edx
	movl	$256, %esi
	movl	%eax, %edi
	movl	$0, %eax
	call	snprintf
	movl	-20(%rbp), %eax
	movl	$1962, %edx
	movl	$.LC12, %esi
	movl	%eax, %edi
	call	__assert
	.align 32
.L442:
.LBE63:
.LBE62:
	.loc 2 1964 0
	mov	-44(%rbp), %eax
	movq	%nacl:48(%r15,%rax), %rdx
	mov	-44(%rbp), %eax
	movq	%nacl:48(%r15,%rax), %rax
	movq	%rax, %rcx
	shrq	$40, %rcx
	movl	-48(%rbp), %eax
	cltq
	xorq	%rcx, %rax
	andl	$255, %eax
	salq	$40, %rax
	xorq	%rax, %rdx
	mov	-44(%rbp), %eax
	movq	%rdx, %nacl:48(%r15,%rax)
	.loc 2 1965 0
	mov	-44(%rbp), %eax
	movq	%nacl:48(%r15,%rax), %rdx
	mov	-44(%rbp), %eax
	movq	%nacl:48(%r15,%rax), %rax
	testq	%rax, %rax
	js	.L443
	movabsq	$-9223372036854775808, %rax
	jmp	.L444
	.align 32
.L443:
	movl	$0, %eax
	.align 32
.L444:
	xorq	%rax, %rdx
	mov	-44(%rbp), %eax
	movq	%rdx, %nacl:48(%r15,%rax)
	.loc 2 1967 0
	mov	-52(%rbp), %eax
	movq	%nacl:384(%r15,%rax), %rdx
	mov	-52(%rbp), %eax
	mov	%nacl:376(%r15,%rax), %esi
	movl	-44(%rbp), %eax
	addl	$96, %eax
	mov	%eax, %ebx
	movl	-48(%rbp), %eax
	movq	%rdx, %rcx
	movl	%esi, %edx
	movl	%ebx, %esi
	movl	%eax, %edi
	call	zio_checksum
	.loc 2 1969 0
	movl	$256, %ebx
	movq	8(%rbp), %rsi
	movl	$zio_checksum_generate, %edi
	call	__cyg_profile_func_exit
	movl	%ebx, %eax
	.loc 2 1970 0
	movq	-8(%rbp), %rbx
	movq	%rbp, %rsp
	popq	%r11
	naclrestbp	%r11d, %r15
	popq	%r11
	nacljmp	%r11d,%r15
	.cfi_endproc
.LFE140:
	.size	zio_checksum_generate, .-zio_checksum_generate
	.align 32
	.type	zio_gang_checksum_generate, @function
zio_gang_checksum_generate:
.LFB141:
	.loc 2 1974 0
	.cfi_startproc
	pushq	%rbp
.LCFI130:
	.cfi_def_cfa_offset 16
	movq	%rsp, %rbp
	.cfi_offset 6, -16
.LCFI131:
	.cfi_def_cfa_register 6
	pushq	%rbx
	naclsspq	$120, %r15
	movl	%edi, -84(%rbp)
	.loc 2 1974 0
	movq	8(%rbp), %rsi
	movl	$zio_gang_checksum_generate, %edi
	.cfi_offset 3, -24
	call	__cyg_profile_func_enter
	.loc 2 1976 0
	mov	-84(%rbp), %eax
	mov	%nacl:376(%r15,%rax), %eax
	movl	%eax, -44(%rbp)
	.loc 2 1978 0
	mov	-84(%rbp), %eax
	mov	%nacl:72(%r15,%rax), %eax
	movq	%nacl:8(%r15,%rax), %rax
	testq	%rax, %rax
	js	.L447
	movl	$__PRETTY_FUNCTION__.11861, %ecx
	movl	$1978, %edx
	movl	$.LC12, %esi
	movl	$.LC74, %edi
	call	__assert_fail
	.align 32
.L447:
.LBB64:
	.loc 2 1979 0
	mov	-84(%rbp), %eax
	movq	%nacl:384(%r15,%rax), %rax
	movq	%rax, -40(%rbp)
	movq	$512, -32(%rbp)
	movq	-40(%rbp), %rax
	cmpq	-32(%rbp), %rax
	je	.L448
.LBB65:
	naclsspq	$272, %r15
	leal	24(%rsp), %eax
	addq	$15, %rax
	shrq	$4, %rax
	salq	$4, %rax
	mov	%eax, %eax
	movl	%eax, -20(%rbp)
	movl	$.LC17, %eax
	mov	%eax, %ebx
	movl	-20(%rbp), %eax
	movq	-32(%rbp), %rdx
	movq	%rdx, 16(%rsp)
	movl	$.LC26, 8(%rsp)
	movq	-40(%rbp), %rdx
	movq	%rdx, (%rsp)
	movl	$.LC82, %r9d
	movl	$.LC26, %r8d
	movl	$.LC78, %ecx
	movl	%ebx, %edx
	movl	$256, %esi
	movl	%eax, %edi
	movl	$0, %eax
	call	snprintf
	movl	-20(%rbp), %eax
	movl	$1979, %edx
	movl	$.LC12, %esi
	movl	%eax, %edi
	call	__assert
	.align 32
.L448:
.LBE65:
.LBE64:
	.loc 2 1981 0
	movl	-44(%rbp), %eax
	addl	$480, %eax
	mov	%eax, %edx
	movl	-84(%rbp), %eax
	movl	%edx, %esi
	movl	%eax, %edi
	call	zio_set_gang_verifier
	.loc 2 1983 0
	mov	-84(%rbp), %eax
	movq	%nacl:384(%r15,%rax), %rax
	mov	-84(%rbp), %edx
	mov	%nacl:376(%r15,%rdx), %edx
	leal	-80(%rbp), %ebx
	movq	%rax, %rcx
	movl	%ebx, %esi
	movl	$4, %edi
	call	zio_checksum
	.loc 2 1985 0
	movl	$256, %ebx
	movq	8(%rbp), %rsi
	movl	$zio_gang_checksum_generate, %edi
	call	__cyg_profile_func_exit
	movl	%ebx, %eax
	.loc 2 1986 0
	movq	-8(%rbp), %rbx
	movq	%rbp, %rsp
	popq	%r11
	naclrestbp	%r11d, %r15
	popq	%r11
	nacljmp	%r11d,%r15
	.cfi_endproc
.LFE141:
	.size	zio_gang_checksum_generate, .-zio_gang_checksum_generate
	.section	.rodata
.LC106:
	.string	"checksum"
	.text
	.align 32
	.type	zio_checksum_verify, @function
zio_checksum_verify:
.LFB142:
	.loc 2 1990 0
	.cfi_startproc
	pushq	%rbp
.LCFI132:
	.cfi_def_cfa_offset 16
	movq	%rsp, %rbp
	.cfi_offset 6, -16
.LCFI133:
	.cfi_def_cfa_register 6
	pushq	%rbx
	naclsspq	$24, %r15
	movl	%edi, -20(%rbp)
	.loc 2 1990 0
	movq	8(%rbp), %rsi
	movl	$zio_checksum_verify, %edi
	.cfi_offset 3, -24
	call	__cyg_profile_func_enter
	.loc 2 1991 0
	mov	-20(%rbp), %eax
	mov	%nacl:72(%r15,%rax), %eax
	testq	%rax, %rax
	je	.L451
	.loc 2 1992 0
	movl	-20(%rbp), %eax
	movl	%eax, %edi
	call	zio_checksum_error
	mov	-20(%rbp), %edx
	movl	%eax, %nacl:528(%r15,%rdx)
	.loc 2 1993 0
	mov	-20(%rbp), %eax
	movl	%nacl:528(%r15,%rax), %eax
	testl	%eax, %eax
	je	.L451
	mov	-20(%rbp), %eax
	movl	%nacl:484(%r15,%rax), %eax
	andl	$2048, %eax
	testl	%eax, %eax
	jne	.L451
	.loc 2 1994 0
	mov	-20(%rbp), %eax
	mov	%nacl:392(%r15,%rax), %edx
	mov	-20(%rbp), %eax
	mov	%nacl:8(%r15,%rax), %ebx
	movl	-20(%rbp), %eax
	movl	$0, %r9d
	movl	$0, %r8d
	movl	%eax, %ecx
	movl	%ebx, %esi
	movl	$.LC106, %edi
	call	zfs_ereport_post
	.align 32
.L451:
	.loc 2 1998 0
	movl	$256, %ebx
	movq	8(%rbp), %rsi
	movl	$zio_checksum_verify, %edi
	call	__cyg_profile_func_exit
	movl	%ebx, %eax
	.loc 2 1999 0
	naclaspq	$24, %r15
	popq	%rbx
	popq	%r11
	naclrestbp	%r11d, %r15
	popq	%r11
	nacljmp	%r11d,%r15
	.cfi_endproc
.LFE142:
	.size	zio_checksum_verify, .-zio_checksum_verify
	.align 32
.globl zio_checksum_verified
	.type	zio_checksum_verified, @function
zio_checksum_verified:
.LFB143:
	.loc 2 2006 0
	.cfi_startproc
	pushq	%rbp
.LCFI134:
	.cfi_def_cfa_offset 16
	movq	%rsp, %rbp
	.cfi_offset 6, -16
.LCFI135:
	.cfi_def_cfa_register 6
	naclsspq	$16, %r15
	movl	%edi, -4(%rbp)
	.loc 2 2006 0
	movq	8(%rbp), %rsi
	movl	$zio_checksum_verified, %edi
	call	__cyg_profile_func_enter
	.loc 2 2007 0
	mov	-4(%rbp), %eax
	movl	%nacl:536(%r15,%rax), %eax
	movl	%eax, %edx
	andl	$-524289, %edx
	mov	-4(%rbp), %eax
	movl	%edx, %nacl:536(%r15,%rax)
	movq	8(%rbp), %rsi
	movl	$zio_checksum_verified, %edi
	call	__cyg_profile_func_exit
	.loc 2 2008 0
	movq	%rbp, %rsp
	popq	%r11
	naclrestbp	%r11d, %r15
	popq	%r11
	nacljmp	%r11d,%r15
	.cfi_endproc
.LFE143:
	.size	zio_checksum_verified, .-zio_checksum_verified
	.align 32
.globl zio_set_gang_verifier
	.type	zio_set_gang_verifier, @function
zio_set_gang_verifier:
.LFB144:
	.loc 2 2015 0
	.cfi_startproc
	pushq	%rbp
.LCFI136:
	.cfi_def_cfa_offset 16
	movq	%rsp, %rbp
	.cfi_offset 6, -16
.LCFI137:
	.cfi_def_cfa_register 6
	naclsspq	$32, %r15
	movl	%edi, -20(%rbp)
	movl	%esi, -24(%rbp)
	.loc 2 2015 0
	movq	8(%rbp), %rsi
	movl	$zio_set_gang_verifier, %edi
	call	__cyg_profile_func_enter
	.loc 2 2016 0
	mov	-20(%rbp), %eax
	movl	%nacl:72(%r15,%rax), %eax
	movl	%eax, -4(%rbp)
	.loc 2 2018 0
	mov	-4(%rbp), %eax
	movq	%nacl:(%r15,%rax), %rax
	movq	%rax, %rdx
	shrq	$32, %rdx
	mov	-24(%rbp), %eax
	movq	%rdx, %nacl:(%r15,%rax)
	.loc 2 2019 0
	mov	-4(%rbp), %eax
	movq	%nacl:8(%r15,%rax), %rax
	movq	%rax, %rdx
	salq	$9, %rdx
	mov	-24(%rbp), %eax
	movq	%rdx, %nacl:8(%r15,%rax)
	.loc 2 2020 0
	mov	-4(%rbp), %eax
	movq	%nacl:80(%r15,%rax), %rdx
	mov	-24(%rbp), %eax
	movq	%rdx, %nacl:16(%r15,%rax)
	.loc 2 2021 0
	mov	-24(%rbp), %eax
	movq	$0, %nacl:24(%r15,%rax)
	movq	8(%rbp), %rsi
	movl	$zio_set_gang_verifier, %edi
	call	__cyg_profile_func_exit
	.loc 2 2022 0
	movq	%rbp, %rsp
	popq	%r11
	naclrestbp	%r11d, %r15
	popq	%r11
	nacljmp	%r11d,%r15
	.cfi_endproc
.LFE144:
	.size	zio_set_gang_verifier, .-zio_set_gang_verifier
.globl zio_pipeline
	.data
	.align 32
	.type	zio_pipeline, @object
	.size	zio_pipeline, 100
zio_pipeline:
	.long	0
	.long	zio_wait_for_children_ready
	.long	zio_read_init
	.long	zio_issue_async
	.long	zio_write_compress
	.long	zio_checksum_generate
	.long	zio_get_gang_header
	.long	zio_rewrite_gang_members
	.long	zio_free_gang_members
	.long	zio_claim_gang_members
	.long	zio_dva_allocate
	.long	zio_dva_free
	.long	zio_dva_claim
	.long	zio_gang_checksum_generate
	.long	zio_ready
	.long	zio_vdev_io_start
	.long	zio_vdev_io_done
	.long	zio_vdev_io_assess
	.long	zio_wait_for_children_done
	.long	zio_checksum_verify
	.long	zio_read_gang_members
	.long	zio_read_decompress
	.long	zio_assess
	.long	zio_done
	.long	0
	.section	.rodata
	.align 8
.LC107:
	.string	"zio->io_stage <= ZIO_STAGE_DONE"
.LC108:
	.string	"rv == 0x100"
	.text
	.align 32
.globl zio_execute
	.type	zio_execute, @function
zio_execute:
.LFB145:
	.loc 2 2074 0
	.cfi_startproc
	pushq	%rbp
.LCFI138:
	.cfi_def_cfa_offset 16
	movq	%rsp, %rbp
	.cfi_offset 6, -16
.LCFI139:
	.cfi_def_cfa_register 6
	pushq	%rbx
	naclsspq	$40, %r15
	movl	%edi, -36(%rbp)
	.loc 2 2074 0
	movq	8(%rbp), %rsi
	movl	$zio_execute, %edi
	.cfi_offset 3, -24
	call	__cyg_profile_func_enter
	.loc 2 2075 0
	jmp	.L458
	.align 32
.L466:
.LBB66:
	.loc 2 2076 0
	mov	-36(%rbp), %eax
	movl	%nacl:536(%r15,%rax), %eax
	movl	%eax, -24(%rbp)
	.loc 2 2085 0
	mov	-36(%rbp), %eax
	movl	%nacl:528(%r15,%rax), %eax
	testl	%eax, %eax
	je	.L471
	.loc 2 2086 0
	mov	-36(%rbp), %eax
	movl	%nacl:496(%r15,%rax), %eax
	movl	$229376, %edx
	movl	%edx, %ebx
	movl	%eax, %ecx
	shrl	%cl, %ebx
	movl	%ebx, %eax
	andl	$1, %eax
	.loc 2 2085 0
	testl	%eax, %eax
	jne	.L472
	.loc 2 2087 0
	andl	$12861442, -24(%rbp)
	.loc 2 2089 0
	jmp	.L460
	.align 32
.L471:
	nop
	jmp	.L460
	.align 32
.L472:
	nop
	.align 32
.L460:
	mov	-36(%rbp), %eax
	movl	%nacl:496(%r15,%rax), %eax
	leal	1(%rax), %edx
	mov	-36(%rbp), %eax
	movl	%edx, %nacl:496(%r15,%rax)
	mov	-36(%rbp), %eax
	movl	%nacl:496(%r15,%rax), %eax
	movl	-24(%rbp), %edx
	movl	%edx, %ebx
	movl	%eax, %ecx
	shrl	%cl, %ebx
	movl	%ebx, %eax
	andl	$1, %eax
	testl	%eax, %eax
	je	.L460
	.loc 2 2092 0
	mov	-36(%rbp), %eax
	movl	%nacl:496(%r15,%rax), %eax
	cmpl	$23, %eax
	jbe	.L462
	movl	$__PRETTY_FUNCTION__.11922, %ecx
	movl	$2092, %edx
	movl	$.LC12, %esi
	movl	$.LC107, %edi
	call	__assert_fail
	.align 32
.L462:
	.loc 2 2093 0
	mov	-36(%rbp), %eax
	movzbl	%nacl:504(%r15,%rax), %eax
	testb	%al, %al
	je	.L463
	movl	$__PRETTY_FUNCTION__.11922, %ecx
	movl	$2093, %edx
	movl	$.LC12, %esi
	movl	$.LC44, %edi
	call	__assert_fail
	.align 32
.L463:
	.loc 2 2095 0
	mov	-36(%rbp), %eax
	movl	%nacl:496(%r15,%rax), %eax
	sall	$2, %eax
	cltq
	mov	%nacl:zio_pipeline(%r15,%rax), %eax
	movl	-36(%rbp), %edx
	movl	%edx, %edi
	naclcall	%eax,%r15
	movl	%eax, -20(%rbp)
	.loc 2 2097 0
	cmpl	$257, -20(%rbp)
	jne	.L464
	movl	$0, %ebx
	jmp	.L465
	.align 32
.L464:
	.loc 2 2100 0
	cmpl	$256, -20(%rbp)
	je	.L458
	movl	$__PRETTY_FUNCTION__.11922, %ecx
	movl	$2100, %edx
	movl	$.LC12, %esi
	movl	$.LC108, %edi
	call	__assert_fail
	.align 32
.L458:
.LBE66:
	.loc 2 2075 0
	mov	-36(%rbp), %eax
	movl	%nacl:496(%r15,%rax), %eax
	cmpl	$22, %eax
	jbe	.L466
	movl	$1, %ebx
	.align 32
.L465:
	movq	8(%rbp), %rsi
	movl	$zio_execute, %edi
	call	__cyg_profile_func_exit
	cmpl	$1, %ebx
	.loc 2 2102 0
	naclaspq	$40, %r15
	popq	%rbx
	popq	%r11
	naclrestbp	%r11d, %r15
	popq	%r11
	nacljmp	%r11d,%r15
	.cfi_endproc
.LFE145:
	.size	zio_execute, .-zio_execute
	.align 32
	.type	zio_io_should_fail, @function
zio_io_should_fail:
.LFB146:
	.loc 2 2106 0
	.cfi_startproc
	pushq	%rbp
.LCFI140:
	.cfi_def_cfa_offset 16
	movq	%rsp, %rbp
	.cfi_offset 6, -16
.LCFI141:
	.cfi_def_cfa_register 6
	pushq	%rbx
	naclsspq	$24, %r15
	movl	%edi, %eax
	movw	%ax, -20(%rbp)
	.loc 2 2106 0
	movq	8(%rbp), %rsi
	movl	$zio_io_should_fail, %edi
	.cfi_offset 3, -24
	call	__cyg_profile_func_enter
	.loc 2 2109 0
	movzwl	allocs.11958(%rip), %eax
	movzwl	%ax, %ebx
	movzwl	-20(%rbp), %edx
	movl	$1, %esi
	movl	%esi, %edi
	movl	%edx, %ecx
	sall	%cl, %edi
	movl	%edi, %edx
	subl	$1, %edx
	andl	%ebx, %edx
	testl	%edx, %edx
	sete	%dl
	movzbl	%dl, %ebx
	addl	$1, %eax
	movw	%ax, allocs.11958(%rip)
	movq	8(%rbp), %rsi
	movl	$zio_io_should_fail, %edi
	call	__cyg_profile_func_exit
	movl	%ebx, %eax
	.loc 2 2110 0
	naclaspq	$24, %r15
	popq	%rbx
	popq	%r11
	naclrestbp	%r11d, %r15
	popq	%r11
	nacljmp	%r11d,%r15
	.cfi_endproc
.LFE146:
	.size	zio_io_should_fail, .-zio_io_should_fail
	.align 32
.globl zio_alloc_blk
	.type	zio_alloc_blk, @function
zio_alloc_blk:
.LFB147:
	.loc 2 2118 0
	.cfi_startproc
	pushq	%rbp
.LCFI142:
	.cfi_def_cfa_offset 16
	movq	%rsp, %rbp
	.cfi_offset 6, -16
.LCFI143:
	.cfi_def_cfa_register 6
	pushq	%rbx
	naclsspq	$72, %r15
	movl	%edi, -36(%rbp)
	movq	%rsi, -48(%rbp)
	movl	%edx, -52(%rbp)
	movl	%ecx, -56(%rbp)
	movq	%r8, -64(%rbp)
	.loc 2 2118 0
	movq	8(%rbp), %rsi
	movl	$zio_alloc_blk, %edi
	.cfi_offset 3, -24
	call	__cyg_profile_func_enter
	.loc 2 2121 0
	movl	-36(%rbp), %eax
	movl	$__func__.11975, %edx
	movl	$0, %esi
	movl	%eax, %edi
	call	spa_config_enter
	.loc 2 2123 0
	movzwl	zio_zil_fail_shift(%rip), %eax
	testw	%ax, %ax
	je	.L476
	movzwl	zio_zil_fail_shift(%rip), %eax
	movzwl	%ax, %eax
	movl	%eax, %edi
	call	zio_io_should_fail
	testl	%eax, %eax
	je	.L476
	.loc 2 2124 0
	movl	-36(%rbp), %eax
	movl	$__func__.11975, %esi
	movl	%eax, %edi
	call	spa_config_exit
	.loc 2 2125 0
	movl	$28, %ebx
	jmp	.L477
	.align 32
.L476:
	.loc 2 2132 0
	mov	-36(%rbp), %eax
	mov	%nacl:164(%r15,%rax), %esi
	movq	-64(%rbp), %rdi
	movl	-52(%rbp), %ecx
	movq	-48(%rbp), %rdx
	movl	-36(%rbp), %eax
	movl	$1, 8(%rsp)
	movl	-56(%rbp), %ebx
	movl	%ebx, (%rsp)
	movq	%rdi, %r9
	movl	$1, %r8d
	movl	%eax, %edi
	call	metaslab_alloc
	movl	%eax, -20(%rbp)
	.loc 2 2135 0
	cmpl	$0, -20(%rbp)
	je	.L478
	.loc 2 2136 0
	mov	-36(%rbp), %eax
	mov	%nacl:160(%r15,%rax), %esi
	movq	-64(%rbp), %rdi
	movl	-52(%rbp), %ecx
	movq	-48(%rbp), %rdx
	movl	-36(%rbp), %eax
	movl	$1, 8(%rsp)
	movl	-56(%rbp), %ebx
	movl	%ebx, (%rsp)
	movq	%rdi, %r9
	movl	$1, %r8d
	movl	%eax, %edi
	call	metaslab_alloc
	movl	%eax, -20(%rbp)
	.align 32
.L478:
	.loc 2 2139 0
	cmpl	$0, -20(%rbp)
	jne	.L479
	.loc 2 2140 0
	mov	-52(%rbp), %eax
	movq	%nacl:48(%r15,%rax), %rdx
	mov	-52(%rbp), %eax
	movq	%nacl:48(%r15,%rax), %rax
	movq	-48(%rbp), %rcx
	shrq	$9, %rcx
	subq	$1, %rcx
	xorq	%rcx, %rax
	andl	$65535, %eax
	xorq	%rax, %rdx
	mov	-52(%rbp), %eax
	movq	%rdx, %nacl:48(%r15,%rax)
	.loc 2 2141 0
	mov	-52(%rbp), %eax
	movq	%nacl:48(%r15,%rax), %rdx
	mov	-52(%rbp), %eax
	movq	%nacl:48(%r15,%rax), %rax
	movq	%rax, %rcx
	shrq	$16, %rcx
	movq	-48(%rbp), %rax
	shrq	$9, %rax
	subq	$1, %rax
	xorq	%rcx, %rax
	salq	$16, %rax
	andl	$4294967295, %eax
	xorq	%rax, %rdx
	mov	-52(%rbp), %eax
	movq	%rdx, %nacl:48(%r15,%rax)
	.loc 2 2142 0
	mov	-52(%rbp), %eax
	movq	%nacl:48(%r15,%rax), %rdx
	mov	-52(%rbp), %eax
	movq	%nacl:48(%r15,%rax), %rax
	shrq	$32, %rax
	xorq	$2, %rax
	andl	$255, %eax
	salq	$32, %rax
	xorq	%rax, %rdx
	mov	-52(%rbp), %eax
	movq	%rdx, %nacl:48(%r15,%rax)
	.loc 2 2143 0
	mov	-52(%rbp), %eax
	movq	%nacl:48(%r15,%rax), %rdx
	mov	-52(%rbp), %eax
	movq	%nacl:48(%r15,%rax), %rax
	shrq	$40, %rax
	xorq	$5, %rax
	andl	$255, %eax
	salq	$40, %rax
	xorq	%rax, %rdx
	mov	-52(%rbp), %eax
	movq	%rdx, %nacl:48(%r15,%rax)
	.loc 2 2144 0
	mov	-52(%rbp), %eax
	movq	%nacl:48(%r15,%rax), %rdx
	mov	-52(%rbp), %eax
	movq	%nacl:48(%r15,%rax), %rax
	shrq	$48, %rax
	xorq	$9, %rax
	andl	$255, %eax
	salq	$48, %rax
	xorq	%rax, %rdx
	mov	-52(%rbp), %eax
	movq	%rdx, %nacl:48(%r15,%rax)
	.loc 2 2145 0
	mov	-52(%rbp), %eax
	movq	%nacl:48(%r15,%rax), %rdx
	movabsq	$-2233785415175766017, %rax
	andq	%rax, %rdx
	mov	-52(%rbp), %eax
	movq	%rdx, %nacl:48(%r15,%rax)
	.loc 2 2146 0
	mov	-52(%rbp), %eax
	movq	%nacl:48(%r15,%rax), %rdx
	mov	-52(%rbp), %eax
	movq	%nacl:48(%r15,%rax), %rax
	testq	%rax, %rax
	js	.L480
	movabsq	$-9223372036854775808, %rax
	jmp	.L481
	.align 32
.L480:
	movl	$0, %eax
	.align 32
.L481:
	xorq	%rax, %rdx
	mov	-52(%rbp), %eax
	movq	%rdx, %nacl:48(%r15,%rax)
	.loc 2 2147 0
	mov	-52(%rbp), %eax
	movq	-64(%rbp), %rdx
	movq	%rdx, %nacl:80(%r15,%rax)
	.align 32
.L479:
	.loc 2 2150 0
	movl	-36(%rbp), %eax
	movl	$__func__.11975, %esi
	movl	%eax, %edi
	call	spa_config_exit
	.loc 2 2152 0
	movl	-20(%rbp), %ebx
	.align 32
.L477:
	movq	8(%rbp), %rsi
	movl	$zio_alloc_blk, %edi
	call	__cyg_profile_func_exit
	movl	%ebx, %eax
	.loc 2 2153 0
	naclaspq	$72, %r15
	popq	%rbx
	popq	%r11
	naclrestbp	%r11d, %r15
	popq	%r11
	nacljmp	%r11d,%r15
	.cfi_endproc
.LFE147:
	.size	zio_alloc_blk, .-zio_alloc_blk
	.section	.rodata
	.align 8
.LC109:
	.string	"!(((((&(bp)->blk_dva[0]))->dva_word[1]) >> (63)) & ((1ULL << (1)) - 1))"
	.text
	.align 32
.globl zio_free_blk
	.type	zio_free_blk, @function
zio_free_blk:
.LFB148:
	.loc 2 2161 0
	.cfi_startproc
	pushq	%rbp
.LCFI144:
	.cfi_def_cfa_offset 16
	movq	%rsp, %rbp
	.cfi_offset 6, -16
.LCFI145:
	.cfi_def_cfa_register 6
	pushq	%rbx
	naclsspq	$24, %r15
	movl	%edi, -20(%rbp)
	movl	%esi, -24(%rbp)
	movq	%rdx, -32(%rbp)
	.loc 2 2161 0
	movq	8(%rbp), %rsi
	movl	$zio_free_blk, %edi
	.cfi_offset 3, -24
	call	__cyg_profile_func_enter
	.loc 2 2162 0
	mov	-24(%rbp), %eax
	movq	%nacl:8(%r15,%rax), %rax
	testq	%rax, %rax
	jns	.L484
	movl	$__PRETTY_FUNCTION__.12045, %ecx
	movl	$2162, %edx
	movl	$.LC12, %esi
	movl	$.LC109, %edi
	call	__assert_fail
	.align 32
.L484:
	.loc 2 2164 0
	movl	-20(%rbp), %eax
	movl	$__func__.12046, %edx
	movl	$0, %esi
	movl	%eax, %edi
	call	spa_config_enter
	.loc 2 2166 0
	movq	-32(%rbp), %rdx
	movl	-24(%rbp), %ebx
	movl	-20(%rbp), %eax
	movl	$0, %ecx
	movl	%ebx, %esi
	movl	%eax, %edi
	call	metaslab_free
	.loc 2 2168 0
	movl	-20(%rbp), %eax
	movl	$__func__.12046, %esi
	movl	%eax, %edi
	call	spa_config_exit
	movq	8(%rbp), %rsi
	movl	$zio_free_blk, %edi
	call	__cyg_profile_func_exit
	.loc 2 2169 0
	naclaspq	$24, %r15
	popq	%rbx
	popq	%r11
	naclrestbp	%r11d, %r15
	popq	%r11
	nacljmp	%r11d,%r15
	.cfi_endproc
.LFE148:
	.size	zio_free_blk, .-zio_free_blk
	.align 32
.globl zio_flush
	.type	zio_flush, @function
zio_flush:
.LFB149:
	.loc 2 2176 0
	.cfi_startproc
	pushq	%rbp
.LCFI146:
	.cfi_def_cfa_offset 16
	movq	%rsp, %rbp
	.cfi_offset 6, -16
.LCFI147:
	.cfi_def_cfa_register 6
	pushq	%rbx
	naclsspq	$40, %r15
	movl	%edi, -20(%rbp)
	movl	%esi, -24(%rbp)
	.loc 2 2176 0
	movq	8(%rbp), %rsi
	movl	$zio_flush, %edi
	.cfi_offset 3, -24
	call	__cyg_profile_func_enter
	.loc 2 2178 0
	movzbl	zio_priority_table(%rip), %eax
	.loc 2 2177 0
	movzbl	%al, %ecx
	mov	-20(%rbp), %eax
	mov	%nacl:8(%r15,%rax), %ebx
	movl	-24(%rbp), %edx
	movl	-20(%rbp), %eax
	movl	$129, 8(%rsp)
	movl	%ecx, (%rsp)
	movl	$0, %r9d
	movl	$0, %r8d
	movl	$1058, %ecx
	movl	%ebx, %esi
	movl	%eax, %edi
	call	zio_ioctl
	mov	%eax, %eax
	movl	%eax, %edi
	call	zio_nowait
	movq	8(%rbp), %rsi
	movl	$zio_flush, %edi
	call	__cyg_profile_func_exit
	.loc 2 2180 0
	naclaspq	$40, %r15
	popq	%rbx
	popq	%r11
	naclrestbp	%r11d, %r15
	popq	%r11
	nacljmp	%r11d,%r15
	.cfi_endproc
.LFE149:
	.size	zio_flush, .-zio_flush
	.section	.rodata
	.type	__PRETTY_FUNCTION__.12045, @object
	.size	__PRETTY_FUNCTION__.12045, 13
__PRETTY_FUNCTION__.12045:
	.string	"zio_free_blk"
	.type	__func__.12046, @object
	.size	__func__.12046, 13
__func__.12046:
	.string	"zio_free_blk"
	.type	__func__.11975, @object
	.size	__func__.11975, 14
__func__.11975:
	.string	"zio_alloc_blk"
	.local	allocs.11958
	.comm	allocs.11958,2,2
	.type	__PRETTY_FUNCTION__.11922, @object
	.size	__PRETTY_FUNCTION__.11922, 12
__PRETTY_FUNCTION__.11922:
	.string	"zio_execute"
	.align 16
	.type	__PRETTY_FUNCTION__.11861, @object
	.size	__PRETTY_FUNCTION__.11861, 27
__PRETTY_FUNCTION__.11861:
	.string	"zio_gang_checksum_generate"
	.align 16
	.type	__PRETTY_FUNCTION__.11809, @object
	.size	__PRETTY_FUNCTION__.11809, 19
__PRETTY_FUNCTION__.11809:
	.string	"zio_vdev_io_bypass"
	.align 16
	.type	__PRETTY_FUNCTION__.11800, @object
	.size	__PRETTY_FUNCTION__.11800, 19
__PRETTY_FUNCTION__.11800:
	.string	"zio_vdev_io_redone"
	.align 16
	.type	__PRETTY_FUNCTION__.11788, @object
	.size	__PRETTY_FUNCTION__.11788, 20
__PRETTY_FUNCTION__.11788:
	.string	"zio_vdev_io_reissue"
	.align 16
	.type	__PRETTY_FUNCTION__.11736, @object
	.size	__PRETTY_FUNCTION__.11736, 19
__PRETTY_FUNCTION__.11736:
	.string	"zio_vdev_io_assess"
	.align 16
	.type	__PRETTY_FUNCTION__.11582, @object
	.size	__PRETTY_FUNCTION__.11582, 18
__PRETTY_FUNCTION__.11582:
	.string	"zio_vdev_io_start"
	.align 16
	.type	__PRETTY_FUNCTION__.11473, @object
	.size	__PRETTY_FUNCTION__.11473, 17
__PRETTY_FUNCTION__.11473:
	.string	"zio_dva_allocate"
	.align 32
	.type	__PRETTY_FUNCTION__.11339, @object
	.size	__PRETTY_FUNCTION__.11339, 32
__PRETTY_FUNCTION__.11339:
	.string	"zio_write_allocate_gang_members"
	.align 32
	.type	__PRETTY_FUNCTION__.11159, @object
	.size	__PRETTY_FUNCTION__.11159, 36
__PRETTY_FUNCTION__.11159:
	.string	"zio_write_allocate_gang_member_done"
	.align 16
	.type	__PRETTY_FUNCTION__.11112, @object
	.size	__PRETTY_FUNCTION__.11112, 23
__PRETTY_FUNCTION__.11112:
	.string	"zio_claim_gang_members"
	.align 16
	.type	__PRETTY_FUNCTION__.11078, @object
	.size	__PRETTY_FUNCTION__.11078, 22
__PRETTY_FUNCTION__.11078:
	.string	"zio_free_gang_members"
	.align 16
	.type	__PRETTY_FUNCTION__.10989, @object
	.size	__PRETTY_FUNCTION__.10989, 25
__PRETTY_FUNCTION__.10989:
	.string	"zio_rewrite_gang_members"
	.align 16
	.type	__PRETTY_FUNCTION__.10912, @object
	.size	__PRETTY_FUNCTION__.10912, 22
__PRETTY_FUNCTION__.10912:
	.string	"zio_read_gang_members"
	.align 16
	.type	__PRETTY_FUNCTION__.10887, @object
	.size	__PRETTY_FUNCTION__.10887, 20
__PRETTY_FUNCTION__.10887:
	.string	"zio_get_gang_header"
	.align 16
	.type	__PRETTY_FUNCTION__.10868, @object
	.size	__PRETTY_FUNCTION__.10868, 18
__PRETTY_FUNCTION__.10868:
	.string	"zio_gang_byteswap"
	.align 16
	.type	__PRETTY_FUNCTION__.10848, @object
	.size	__PRETTY_FUNCTION__.10848, 20
__PRETTY_FUNCTION__.10848:
	.string	"zio_read_decompress"
	.align 16
	.type	__PRETTY_FUNCTION__.10715, @object
	.size	__PRETTY_FUNCTION__.10715, 19
__PRETTY_FUNCTION__.10715:
	.string	"zio_write_compress"
	.type	__PRETTY_FUNCTION__.10657, @object
	.size	__PRETTY_FUNCTION__.10657, 9
__PRETTY_FUNCTION__.10657:
	.string	"zio_done"
	.type	__PRETTY_FUNCTION__.10466, @object
	.size	__PRETTY_FUNCTION__.10466, 11
__PRETTY_FUNCTION__.10466:
	.string	"zio_assess"
	.align 16
	.type	__PRETTY_FUNCTION__.10334, @object
	.size	__PRETTY_FUNCTION__.10334, 18
__PRETTY_FUNCTION__.10334:
	.string	"zio_vdev_retry_io"
	.align 16
	.type	__PRETTY_FUNCTION__.10163, @object
	.size	__PRETTY_FUNCTION__.10163, 22
__PRETTY_FUNCTION__.10163:
	.string	"zio_wait_for_children"
	.type	__PRETTY_FUNCTION__.10134, @object
	.size	__PRETTY_FUNCTION__.10134, 9
__PRETTY_FUNCTION__.10134:
	.string	"zio_wait"
	.align 16
	.type	__PRETTY_FUNCTION__.9931, @object
	.size	__PRETTY_FUNCTION__.9931, 17
__PRETTY_FUNCTION__.9931:
	.string	"zio_phys_bp_init"
	.type	__PRETTY_FUNCTION__.9833, @object
	.size	__PRETTY_FUNCTION__.9833, 9
__PRETTY_FUNCTION__.9833:
	.string	"zio_free"
	.type	__PRETTY_FUNCTION__.9645, @object
	.size	__PRETTY_FUNCTION__.9645, 10
__PRETTY_FUNCTION__.9645:
	.string	"zio_write"
	.type	__PRETTY_FUNCTION__.9460, @object
	.size	__PRETTY_FUNCTION__.9460, 11
__PRETTY_FUNCTION__.9460:
	.string	"zio_create"
	.align 16
	.type	__PRETTY_FUNCTION__.9430, @object
	.size	__PRETTY_FUNCTION__.9430, 26
__PRETTY_FUNCTION__.9430:
	.string	"zio_clear_transform_stack"
	.align 16
	.type	__PRETTY_FUNCTION__.9394, @object
	.size	__PRETTY_FUNCTION__.9394, 18
__PRETTY_FUNCTION__.9394:
	.string	"zio_data_buf_free"
	.type	__PRETTY_FUNCTION__.9383, @object
	.size	__PRETTY_FUNCTION__.9383, 13
__PRETTY_FUNCTION__.9383:
	.string	"zio_buf_free"
	.align 16
	.type	__PRETTY_FUNCTION__.9370, @object
	.size	__PRETTY_FUNCTION__.9370, 19
__PRETTY_FUNCTION__.9370:
	.string	"zio_data_buf_alloc"
	.type	__PRETTY_FUNCTION__.9358, @object
	.size	__PRETTY_FUNCTION__.9358, 14
__PRETTY_FUNCTION__.9358:
	.string	"zio_buf_alloc"
	.type	__PRETTY_FUNCTION__.9273, @object
	.size	__PRETTY_FUNCTION__.9273, 9
__PRETTY_FUNCTION__.9273:
	.string	"zio_init"
	.text
.Letext0:
	.section	.note.GNU-stack,"",@progbits
